 addon

 Timestamp is 60acc381 (Tue May 25 17:29:37 2021)

 Preferred load address is 0000000180000000

 Start         Length     Name                   Class
 0001:00000000 0003ca20H .text$mn                CODE
 0001:0003ca20 00000040H .text$mn$00             CODE
 0001:0003ca60 00000490H .text$x                 CODE
 0002:00000000 00000280H .idata$5                DATA
 0002:00000280 00000028H .00cfg                  DATA
 0002:000002a8 00000008H .CRT$XCA                DATA
 0002:000002b0 00000008H .CRT$XCU                DATA
 0002:000002b8 00000008H .CRT$XCZ                DATA
 0002:000002c0 00000008H .CRT$XIA                DATA
 0002:000002c8 00000020H .CRT$XIC                DATA
 0002:000002e8 00000008H .CRT$XIZ                DATA
 0002:000002f0 00000008H .CRT$XLA                DATA
 0002:000002f8 00000008H .CRT$XLZ                DATA
 0002:00000300 00000008H .CRT$XPA                DATA
 0002:00000308 00000010H .CRT$XPX                DATA
 0002:00000318 00000008H .CRT$XPXA               DATA
 0002:00000320 00000008H .CRT$XPZ                DATA
 0002:00000328 00000008H .CRT$XTA                DATA
 0002:00000330 00000010H .CRT$XTZ                DATA
 0002:00000338 00000000H .gehcont$y              DATA
 0002:00000338 00000000H .gfids$y                DATA
 0002:00000340 00096b40H .rdata                  DATA
 0002:00096e80 00000000H .rdata$CastGuardVftablesA DATA
 0002:00096e80 00000000H .rdata$CastGuardVftablesC DATA
 0002:00096e80 00000028H .rdata$T                DATA
 0002:00096ea8 00000404H .rdata$r                DATA
 0002:000972ac 00000464H .rdata$zzzdbg           DATA
 0002:00097710 00000008H .rtc$IAA                DATA
 0002:00097718 00000008H .rtc$IZZ                DATA
 0002:00097720 00000008H .rtc$TAA                DATA
 0002:00097728 00000008H .rtc$TZZ                DATA
 0002:00097730 00000004H .tls                    DATA
 0002:00097734 00000004H .tls$                   DATA
 0002:00097738 00000008H .tls$ZZZ                DATA
 0002:00097740 00003ea0H .xdata                  DATA
 0002:0009b5e0 00000244H .xdata$x                DATA
 0002:0009b824 00000020H .didat$2                DATA
 0002:0009b844 00000024H .didat$3                DATA
 0002:0009b868 000000e8H .didat$4                DATA
 0002:0009b950 000007f8H .didat$6                DATA
 0002:0009c148 000000e8H .didat$7                DATA
 0002:0009c230 00000050H .edata                  DATA
 0002:0009c280 00000014H .idata$2                DATA
 0002:0009c294 00000014H .idata$3                DATA
 0002:0009c2a8 00000280H .idata$4                DATA
 0002:0009c528 000005c6H .idata$6                DATA
 0003:00000000 00000a90H .data                   DATA
 0003:00000a90 00000140H .data$r                 DATA
 0003:00000bd0 000000f0H .didat$5                DATA
 0003:00000cc0 00001290H .bss                    DATA
 0004:00000000 00003234H .pdata                  DATA
 0005:00000000 00000094H _RDATA                  DATA
 0006:00000000 00000060H .rsrc$01                DATA
 0006:00000060 00000180H .rsrc$02                DATA

  Address         Publics by Value              Rva+Base               Lib:Object

 0000:00000000       __x64_code_ranges_to_entry_points 0000000000000000     <absolute>
 0000:00000000       __guard_fids_count         0000000000000000     <absolute>
 0000:00000000       ___safe_se_handler_table   0000000000000000     <absolute>
 0000:00000000       __x64_code_ranges_to_entry_points_count 0000000000000000     <absolute>
 0000:00000000       __arm64x_extra_rfe_table   0000000000000000     <absolute>
 0000:00000000       __arm64x_redirection_metadata 0000000000000000     <absolute>
 0000:00000000       __hybrid_code_map          0000000000000000     <absolute>
 0000:00000000       __guard_iat_table          0000000000000000     <absolute>
 0000:00000000       __volatile_metadata        0000000000000000     <absolute>
 0000:00000000       __arm64x_extra_rfe_table_size 0000000000000000     <absolute>
 0000:00000000       ___safe_se_handler_count   0000000000000000     <absolute>
 0000:00000000       __guard_longjmp_table      0000000000000000     <absolute>
 0000:00000000       __guard_iat_count          0000000000000000     <absolute>
 0000:00000000       __guard_longjmp_count      0000000000000000     <absolute>
 0000:00000000       __dynamic_value_reloc_table 0000000000000000     <absolute>
 0000:00000000       __hybrid_auxiliary_iat     0000000000000000     <absolute>
 0000:00000000       __guard_eh_cont_count      0000000000000000     <absolute>
 0000:00000000       __AbsoluteZero             0000000000000000     <absolute>
 0000:00000000       __guard_fids_table         0000000000000000     <absolute>
 0000:00000000       __arm64x_redirection_metadata_count 0000000000000000     <absolute>
 0000:00000000       __enclave_config           0000000000000000     <absolute>
 0000:00000000       __guard_eh_cont_table      0000000000000000     <absolute>
 0000:00000000       __arm64x_native_entrypoint 0000000000000000     <absolute>
 0000:00000000       __hybrid_code_map_count    0000000000000000     <absolute>
 0000:00000100       __guard_flags              0000000000000100     <absolute>
 0000:00000000       __ImageBase                0000000180000000     <linker-defined>
 0001:000000e0       ?convert@@YAXAEBV?$FunctionCallbackInfo@VValue@v8@@@Nan@@@Z 00000001800010e0 f   addon.obj
 0001:00000470       ?Init@@YAXV?$Local@VObject@v8@@@v8@@@Z 0000000180001470 f   addon.obj
 0001:00000680       ?what@exception@stdext@@UEBAPEBDXZ 0000000180001680 f i glyph.obj
 0001:000006a0       ?_Raise@exception@stdext@@QEBAXXZ 00000001800016a0 f i glyph.obj
 0001:000006e0       _guard_check_icall_nop     00000001800016e0 f i LIBCMT:guard_support.obj
 0001:000006e0       ?_Doraise@exception@stdext@@MEBAXXZ 00000001800016e0 f i glyph.obj
 0001:000006f0       ??_Ebad_array_new_length@stdext@@UEAAPEAXI@Z 00000001800016f0 f i * CIL library *:* CIL module *
 0001:000006f0       ??_Gexception@stdext@@UEAAPEAXI@Z 00000001800016f0 f i glyph.obj
 0001:000006f0       ??_Eexception@stdext@@UEAAPEAXI@Z 00000001800016f0 f i * CIL library *:* CIL module *
 0001:000006f0       ??_Gbad_array_new_length@stdext@@UEAAPEAXI@Z 00000001800016f0 f i glyph.obj
 0001:00000720       ?_Doraise@bad_alloc@stdext@@MEBAXXZ 0000000180001720 f i glyph.obj
 0001:00000740       ??0bad_array_new_length@stdext@@QEAA@XZ 0000000180001740 f i glyph.obj
 0001:00000760       ?_Throw_bad_array_new_length@std@@YAXXZ 0000000180001760 f i glyph.obj
 0001:00000780       ?ReadGlyph@woff2@@YA_NPEBE_KPEAVGlyph@1@@Z 0000000180001780 f   glyph.obj
 0001:000013f0       ?StoreGlyph@woff2@@YA_NAEBVGlyph@1@PEAEPEA_K@Z 00000001800023f0 f   glyph.obj
 0001:00001650       ?resize@?$vector@EV?$allocator@E@std@@@std@@QEAAX_K@Z 0000000180002650 f i glyph.obj
 0001:000017a0       ??$_Destroy_range@V?$allocator@V?$vector@EV?$allocator@E@std@@@std@@@std@@@std@@YAXPEAV?$vector@EV?$allocator@E@std@@@0@QEAV10@AEAV?$allocator@V?$vector@EV?$allocator@E@std@@@std@@@0@@Z 00000001800027a0 f i glyph.obj
 0001:00001820       ??$_Destroy_range@V?$allocator@V?$vector@UPoint@Glyph@woff2@@V?$allocator@UPoint@Glyph@woff2@@@std@@@std@@@std@@@std@@YAXPEAV?$vector@UPoint@Glyph@woff2@@V?$allocator@UPoint@Glyph@woff2@@@std@@@0@QEAV10@AEAV?$allocator@V?$vector@UPoint@Glyph@woff2@@V?$allocator@UPoint@Glyph@woff2@@@std@@@std@@@0@@Z 0000000180002820 f i glyph.obj
 0001:000018e0       ?_Xlength@?$vector@V?$vector@EV?$allocator@E@std@@@std@@V?$allocator@V?$vector@EV?$allocator@E@std@@@std@@@2@@std@@CAXXZ 00000001800028e0 f i glyph.obj
 0001:000018e0       ?_Xlength@?$vector@V?$vector@UPoint@Glyph@woff2@@V?$allocator@UPoint@Glyph@woff2@@@std@@@std@@V?$allocator@V?$vector@UPoint@Glyph@woff2@@V?$allocator@UPoint@Glyph@woff2@@@std@@@std@@@2@@std@@CAXXZ 00000001800028e0 f i glyph.obj
 0001:000018e0       ?_Xlength@?$vector@UHistogramPair@brotli@@V?$allocator@UHistogramPair@brotli@@@std@@@std@@CAXXZ 00000001800028e0 f i block_splitter.obj
 0001:000018e0       ?_Xlength@?$vector@U?$Histogram@$0BAA@@brotli@@V?$allocator@U?$Histogram@$0BAA@@brotli@@@std@@@std@@CAXXZ 00000001800028e0 f i block_splitter.obj
 0001:000018e0       ?_Xlength@?$vector@HV?$allocator@H@std@@@std@@CAXXZ 00000001800028e0 f i block_splitter.obj
 0001:000018e0       ?_Xlength@?$vector@GV?$allocator@G@std@@@std@@CAXXZ 00000001800028e0 f i block_splitter.obj
 0001:000018e0       ?_Xlength@?$vector@UPoint@Glyph@woff2@@V?$allocator@UPoint@Glyph@woff2@@@std@@@std@@CAXXZ 00000001800028e0 f i glyph.obj
 0001:000018e0       ?_Xlength@?$vector@UFont@woff2@@V?$allocator@UFont@woff2@@@std@@@std@@CAXXZ 00000001800028e0 f i font.obj
 0001:000018e0       ?_Xlength@?$vector@EV?$allocator@E@std@@@std@@CAXXZ 00000001800028e0 f i glyph.obj
 0001:000018e0       ?_Xlength@?$vector@IV?$allocator@I@std@@@std@@CAXXZ 00000001800028e0 f i font.obj
 0001:000018e0       ?_Xlength@?$vector@U?$Histogram@$0CAI@@brotli@@V?$allocator@U?$Histogram@$0CAI@@brotli@@@std@@@std@@CAXXZ 00000001800028e0 f i block_splitter.obj
 0001:000018e0       ?_Xlength@?$vector@U?$Histogram@$0CMA@@brotli@@V?$allocator@U?$Histogram@$0CMA@@brotli@@@std@@@std@@CAXXZ 00000001800028e0 f i block_splitter.obj
 0001:000018e0       ?_Xlength@?$vector@UTable@woff2@@V?$allocator@UTable@woff2@@@std@@@std@@CAXXZ 00000001800028e0 f i woff2_enc.obj
 0001:00001900       ?allocate@?$allocator@V?$vector@EV?$allocator@E@std@@@std@@@std@@QEAAPEAV?$vector@EV?$allocator@E@std@@@2@_K@Z 0000000180002900 f i glyph.obj
 0001:00001980       ??$_Resize_reallocate@U_Value_init_tag@std@@@?$vector@UPoint@Glyph@woff2@@V?$allocator@UPoint@Glyph@woff2@@@std@@@std@@AEAAX_KAEBU_Value_init_tag@1@@Z 0000000180002980 f i glyph.obj
 0001:00001b40       ??$_Resize_reallocate@U_Value_init_tag@std@@@?$vector@V?$vector@UPoint@Glyph@woff2@@V?$allocator@UPoint@Glyph@woff2@@@std@@@std@@V?$allocator@V?$vector@UPoint@Glyph@woff2@@V?$allocator@UPoint@Glyph@woff2@@@std@@@std@@@2@@std@@AEAAX_KAEBU_Value_init_tag@1@@Z 0000000180002b40 f i glyph.obj
 0001:00001d70       ?_Change_array@?$vector@EV?$allocator@E@std@@@std@@AEAAXQEAE_K1@Z 0000000180002d70 f i glyph.obj
 0001:00001e00       ?_Throw_tree_length_error@std@@YAXXZ 0000000180002e00 f i font.obj
 0001:00001e20       ?Log2Floor@woff2@@YAHI@Z   0000000180002e20 f i font.obj
 0001:00001ed0       ?OutputOrderedTags@Font@woff2@@QEBA?AV?$vector@IV?$allocator@I@std@@@std@@XZ 0000000180002ed0 f   font.obj
 0001:00001fc0       ?ReadTrueTypeFont@woff2@@YA_NPEAVBuffer@1@PEBE_KPEAUFont@1@@Z 0000000180002fc0 f   font.obj
 0001:000024e0       ?ReadCollectionFont@woff2@@YA_NPEAVBuffer@1@PEBE_KPEAUFont@1@PEAV?$map@IPEAUTable@Font@woff2@@U?$less@I@std@@V?$allocator@U?$pair@$$CBIPEAUTable@Font@woff2@@@std@@@5@@std@@@Z 00000001800034e0 f   font.obj
 0001:00002680       ?ReadTrueTypeCollection@woff2@@YA_NPEAVBuffer@1@PEBE_KPEAUFontCollection@1@@Z 0000000180003680 f   font.obj
 0001:000028e0       ?NumGlyphs@woff2@@YAHAEBUFont@1@@Z 00000001800038e0 f   font.obj
 0001:00002a10       ?GetGlyphData@woff2@@YA_NAEBUFont@1@HPEAPEBEPEA_K@Z 0000000180003a10 f   font.obj
 0001:00002cc0       ?resize@?$vector@UFont@woff2@@V?$allocator@UFont@woff2@@@std@@@std@@QEAAX_K@Z 0000000180003cc0 f i font.obj
 0001:00002de0       ??A?$map@IPEAUTable@Font@woff2@@U?$less@I@std@@V?$allocator@U?$pair@$$CBIPEAUTable@Font@woff2@@@std@@@5@@std@@QEAAAEAPEAUTable@Font@woff2@@AEBI@Z 0000000180003de0 f i font.obj
 0001:00002ed0       ??A?$map@IUTable@Font@woff2@@U?$less@I@std@@V?$allocator@U?$pair@$$CBIUTable@Font@woff2@@@std@@@5@@std@@QEAAAEAUTable@Font@woff2@@AEBI@Z 0000000180003ed0 f i font.obj
 0001:00002ed0       ??A?$map@IUTable@Font@woff2@@U?$less@I@std@@V?$allocator@U?$pair@$$CBIUTable@Font@woff2@@@std@@@5@@std@@QEAAAEAUTable@Font@woff2@@$$QEAI@Z 0000000180003ed0 f i transform.obj
 0001:00002fd0       ??$_Emplace_reallocate@AEBI@?$vector@IV?$allocator@I@std@@@std@@QEAAPEAIQEAIAEBI@Z 0000000180003fd0 f i font.obj
 0001:00003170       ?_Insert_node@?$_Tree_val@U?$_Tree_simple_types@H@std@@@std@@QEAAPEAU?$_Tree_node@HPEAX@2@U?$_Tree_id@PEAU?$_Tree_node@HPEAX@std@@@2@QEAU32@@Z 0000000180004170 f i block_splitter.obj
 0001:00003170       ?_Insert_node@?$_Tree_val@U?$_Tree_simple_types@U?$pair@$$CBIUTable@Font@woff2@@@std@@@std@@@std@@QEAAPEAU?$_Tree_node@U?$pair@$$CBIUTable@Font@woff2@@@std@@PEAX@2@U?$_Tree_id@PEAU?$_Tree_node@U?$pair@$$CBIUTable@Font@woff2@@@std@@PEAX@std@@@2@QEAU32@@Z 0000000180004170 f i font.obj
 0001:00003170       ?_Insert_node@?$_Tree_val@U?$_Tree_simple_types@U?$pair@$$CBHH@std@@@std@@@std@@QEAAPEAU?$_Tree_node@U?$pair@$$CBHH@std@@PEAX@2@U?$_Tree_id@PEAU?$_Tree_node@U?$pair@$$CBHH@std@@PEAX@std@@@2@QEAU32@@Z 0000000180004170 f i block_splitter.obj
 0001:00003170       ?_Insert_node@?$_Tree_val@U?$_Tree_simple_types@U?$pair@$$CBII@std@@@std@@@std@@QEAAPEAU?$_Tree_node@U?$pair@$$CBII@std@@PEAX@2@U?$_Tree_id@PEAU?$_Tree_node@U?$pair@$$CBII@std@@PEAX@std@@@2@QEAU32@@Z 0000000180004170 f i font.obj
 0001:00003170       ?_Insert_node@?$_Tree_val@U?$_Tree_simple_types@U?$pair@$$CBIG@std@@@std@@@std@@QEAAPEAU?$_Tree_node@U?$pair@$$CBIG@std@@PEAX@2@U?$_Tree_id@PEAU?$_Tree_node@U?$pair@$$CBIG@std@@PEAX@std@@@2@QEAU32@@Z 0000000180004170 f i woff2_enc.obj
 0001:00003170       ?_Insert_node@?$_Tree_val@U?$_Tree_simple_types@U?$pair@$$CBIPEAUTable@Font@woff2@@@std@@@std@@@std@@QEAAPEAU?$_Tree_node@U?$pair@$$CBIPEAUTable@Font@woff2@@@std@@PEAX@2@U?$_Tree_id@PEAU?$_Tree_node@U?$pair@$$CBIPEAUTable@Font@woff2@@@std@@PEAX@std@@@2@QEAU32@@Z 0000000180004170 f i font.obj
 0001:00003170       ?_Insert_node@?$_Tree_val@U?$_Tree_simple_types@U?$pair@$$CBEE@std@@@std@@@std@@QEAAPEAU?$_Tree_node@U?$pair@$$CBEE@std@@PEAX@2@U?$_Tree_id@PEAU?$_Tree_node@U?$pair@$$CBEE@std@@PEAX@std@@@2@QEAU32@@Z 0000000180004170 f i block_splitter.obj
 0001:000033f0       ?_Extract@?$_Tree_val@U?$_Tree_simple_types@U?$pair@$$CBIUTable@Font@woff2@@@std@@@std@@@std@@QEAAPEAU?$_Tree_node@U?$pair@$$CBIUTable@Font@woff2@@@std@@PEAX@2@V?$_Tree_unchecked_const_iterator@V?$_Tree_val@U?$_Tree_simple_types@U?$pair@$$CBIUTable@Font@woff2@@@std@@@std@@@std@@U_Iterator_base0@2@@2@@Z 00000001800043f0 f i font.obj
 0001:00003890       ??$_Erase_tree@V?$allocator@U?$_Tree_node@U?$pair@$$CBIG@std@@PEAX@std@@@std@@@?$_Tree_val@U?$_Tree_simple_types@U?$pair@$$CBIG@std@@@std@@@std@@QEAAXAEAV?$allocator@U?$_Tree_node@U?$pair@$$CBIG@std@@PEAX@std@@@1@PEAU?$_Tree_node@U?$pair@$$CBIG@std@@PEAX@1@@Z 0000000180004890 f i woff2_enc.obj
 0001:00003890       ??$_Erase_tree@V?$allocator@U?$_Tree_node@U?$pair@$$CBHH@std@@PEAX@std@@@std@@@?$_Tree_val@U?$_Tree_simple_types@U?$pair@$$CBHH@std@@@std@@@std@@QEAAXAEAV?$allocator@U?$_Tree_node@U?$pair@$$CBHH@std@@PEAX@std@@@1@PEAU?$_Tree_node@U?$pair@$$CBHH@std@@PEAX@1@@Z 0000000180004890 f i block_splitter.obj
 0001:00003890       ??$_Erase_tree@V?$allocator@U?$_Tree_node@U?$pair@$$CBII@std@@PEAX@std@@@std@@@?$_Tree_val@U?$_Tree_simple_types@U?$pair@$$CBII@std@@@std@@@std@@QEAAXAEAV?$allocator@U?$_Tree_node@U?$pair@$$CBII@std@@PEAX@std@@@1@PEAU?$_Tree_node@U?$pair@$$CBII@std@@PEAX@1@@Z 0000000180004890 f i font.obj
 0001:000038f0       ??$_Resize_reallocate@U_Value_init_tag@std@@@?$vector@UFont@woff2@@V?$allocator@UFont@woff2@@@std@@@std@@AEAAX_KAEBU_Value_init_tag@1@@Z 00000001800048f0 f i font.obj
 0001:00003c30       ??$_Erase_tree@V?$allocator@U?$_Tree_node@U?$pair@$$CBIPEAUTable@Font@woff2@@@std@@PEAX@std@@@std@@@?$_Tree_val@U?$_Tree_simple_types@U?$pair@$$CBIPEAUTable@Font@woff2@@@std@@@std@@@std@@QEAAXAEAV?$allocator@U?$_Tree_node@U?$pair@$$CBIPEAUTable@Font@woff2@@@std@@PEAX@std@@@1@PEAU?$_Tree_node@U?$pair@$$CBIPEAUTable@Font@woff2@@@std@@PEAX@1@@Z 0000000180004c30 f i font.obj
 0001:00003c90       ?_Buy_raw@?$vector@EV?$allocator@E@std@@@std@@AEAAX_K@Z 0000000180004c90 f i font.obj
 0001:00003d10       ??$_Sort_unchecked@PEAIU?$less@X@std@@@std@@YAXPEAI0_JU?$less@X@0@@Z 0000000180004d10 f i font.obj
 0001:00003fd0       ??$_Partition_by_median_guess_unchecked@PEAIU?$less@X@std@@@std@@YA?AU?$pair@PEAIPEAI@0@PEAI0U?$less@X@0@@Z 0000000180004fd0 f i font.obj
 0001:00004150       ??$_Guess_median_unchecked@PEAIU?$less@X@std@@@std@@YAXPEAI00U?$less@X@0@@Z 0000000180005150 f i font.obj
 0001:000042a0       ??$_Erase_tree@V?$allocator@U?$_Tree_node@U?$pair@$$CBIUTable@Font@woff2@@@std@@PEAX@std@@@std@@@?$_Tree_val@U?$_Tree_simple_types@U?$pair@$$CBIUTable@Font@woff2@@@std@@@std@@@std@@QEAAXAEAV?$allocator@U?$_Tree_node@U?$pair@$$CBIUTable@Font@woff2@@@std@@PEAX@std@@@1@PEAU?$_Tree_node@U?$pair@$$CBIUTable@Font@woff2@@@std@@PEAX@1@@Z 00000001800052a0 f i font.obj
 0001:00004360       ??$_Copy_nodes@U_Copy_tag@?$_Tree@V?$_Tmap_traits@IUTable@Font@woff2@@U?$less@I@std@@V?$allocator@U?$pair@$$CBIUTable@Font@woff2@@@std@@@5@$0A@@std@@@std@@@?$_Tree@V?$_Tmap_traits@IUTable@Font@woff2@@U?$less@I@std@@V?$allocator@U?$pair@$$CBIUTable@Font@woff2@@@std@@@5@$0A@@std@@@std@@IEAAPEAU?$_Tree_node@U?$pair@$$CBIUTable@Font@woff2@@@std@@PEAX@1@PEAU21@0U_Copy_tag@01@@Z 0000000180005360 f i font.obj
 0001:00004450       ??0?$vector@EV?$allocator@E@std@@@std@@QEAA@AEBV01@@Z 0000000180005450 f i font.obj
 0001:000044d0       __local_stdio_printf_options 00000001800054d0 f i normalize.obj
 0001:000044e0       fprintf                    00000001800054e0 f i normalize.obj
 0001:00004960       ?NormalizeGlyphs@woff2@@YA_NPEAUFont@1@@Z 0000000180005960 f   normalize.obj
 0001:00004bc0       ?FixChecksums@woff2@@YA_NPEAUFont@1@@Z 0000000180005bc0 f   normalize.obj
 0001:00004e80       ?NormalizeWithoutFixingChecksums@woff2@@YA_NPEAUFont@1@@Z 0000000180005e80 f   normalize.obj
 0001:00005180       ?NormalizeFontCollection@woff2@@YA_NPEAUFontCollection@1@@Z 0000000180006180 f   normalize.obj
 0001:00006020       ?TransformGlyfAndLocaTables@woff2@@YA_NPEAUFont@1@@Z 0000000180007020 f   transform.obj
 0001:00006770       ??$emplace_back@AEBE@?$vector@EV?$allocator@E@std@@@std@@QEAAXAEBE@Z 0000000180007770 f i transform.obj
 0001:00006770       ??$emplace_back@E@?$vector@EV?$allocator@E@std@@@std@@QEAAX$$QEAE@Z 0000000180007770 f i transform.obj
 0001:000068d0       ?Write255UShort@woff2@@YAXPEAV?$vector@EV?$allocator@E@std@@@std@@H@Z 00000001800078d0 f   variable_length.obj
 0001:00006970       ?Store255UShort@woff2@@YAXHPEA_KPEAE@Z 0000000180007970 f   variable_length.obj
 0001:00006aa0       ?_Xlen_string@std@@YAXXZ   0000000180007aa0 f i woff2_enc.obj
 0001:000071a0       ?ConvertTTFToWOFF2@woff2@@YA_NPEBE_KPEAEPEA_KAEBV?$basic_string@DU?$char_traits@D@std@@V?$allocator@D@2@@std@@@Z 00000001800081a0 f   woff2_enc.obj
 0001:000083f0       ??A?$map@IGU?$less@I@std@@V?$allocator@U?$pair@$$CBIG@std@@@2@@std@@QEAAAEAGAEBI@Z 00000001800093f0 f i woff2_enc.obj
 0001:000084e0       ??1?$vector@UFont@woff2@@V?$allocator@UFont@woff2@@@std@@@std@@QEAA@XZ 00000001800094e0 f i woff2_enc.obj
 0001:000085c0       ?assign@?$basic_string@DU?$char_traits@D@std@@V?$allocator@D@2@@std@@QEAAAEAV12@QEBD_K@Z 00000001800095c0 f i woff2_enc.obj
 0001:00008720       ??$_Emplace_reallocate@AEBUTable@woff2@@@?$vector@UTable@woff2@@V?$allocator@UTable@woff2@@@std@@@std@@QEAAPEAUTable@woff2@@QEAU23@AEBU23@@Z 0000000180009720 f i woff2_enc.obj
 0001:00008940       ??$_Erase_head@V?$allocator@U?$_Tree_node@U?$pair@$$CBIG@std@@PEAX@std@@@std@@@?$_Tree_val@U?$_Tree_simple_types@U?$pair@$$CBIG@std@@@std@@@std@@QEAAXAEAV?$allocator@U?$_Tree_node@U?$pair@$$CBIG@std@@PEAX@std@@@1@@Z 0000000180009940 f i woff2_enc.obj
 0001:000089c0       ??$_Copy_nodes@U_Copy_tag@?$_Tree@V?$_Tmap_traits@IGU?$less@I@std@@V?$allocator@U?$pair@$$CBIG@std@@@2@$0A@@std@@@std@@@?$_Tree@V?$_Tmap_traits@IGU?$less@I@std@@V?$allocator@U?$pair@$$CBIG@std@@@2@$0A@@std@@@std@@IEAAPEAU?$_Tree_node@U?$pair@$$CBIG@std@@PEAX@1@PEAU21@0U_Copy_tag@01@@Z 00000001800099c0 f i woff2_enc.obj
 0001:00008a80       ?Log2Floor@brotli@@YAHI@Z  0000000180009a80 f i backward_references.obj
 0001:00008ce0       ?CreateBackwardReferences@brotli@@YAX_K0PEBE0PEBM0_KNHPEAUHashers@1@HPEAH5PEAUCommand@1@5@Z 0000000180009ce0 f   backward_references.obj
 0001:00009260       ??$CreateBackwardReferences@V?$HashLongestMatchQuickly@$0BA@$00@brotli@@$0A@$0A@@brotli@@YAX_K0PEBE0PEBM0_KNHPEAV?$HashLongestMatchQuickly@$0BA@$00@0@PEAH5PEAUCommand@0@5@Z 000000018000a260 f i backward_references.obj
 0001:00009880       ??$CreateBackwardReferences@V?$HashLongestMatchQuickly@$0BB@$03@brotli@@$0A@$0A@@brotli@@YAX_K0PEBE0PEBM0_KNHPEAV?$HashLongestMatchQuickly@$0BB@$03@0@PEAH5PEAUCommand@0@5@Z 000000018000a880 f i backward_references.obj
 0001:00009ee0       ??$CreateBackwardReferences@V?$HashLongestMatch@$0O@$03$03$03$0A@$0A@@brotli@@$0A@$0A@@brotli@@YAX_K0PEBE0PEBM0_KNHPEAV?$HashLongestMatch@$0O@$03$03$03$0A@$0A@@0@PEAH5PEAUCommand@0@5@Z 000000018000aee0 f i backward_references.obj
 0001:0000a600       ??$CreateBackwardReferences@V?$HashLongestMatch@$0O@$04$03$03$0A@$0A@@brotli@@$0A@$0A@@brotli@@YAX_K0PEBE0PEBM0_KNHPEAV?$HashLongestMatch@$0O@$04$03$03$0A@$0A@@0@PEAH5PEAUCommand@0@5@Z 000000018000b600 f i backward_references.obj
 0001:0000ad20       ??$CreateBackwardReferences@V?$HashLongestMatch@$0P@$05$03$09$0A@$0A@@brotli@@$0A@$0A@@brotli@@YAX_K0PEBE0PEBM0_KNHPEAV?$HashLongestMatch@$0P@$05$03$09$0A@$0A@@0@PEAH5PEAUCommand@0@5@Z 000000018000bd20 f i backward_references.obj
 0001:0000b440       ??$CreateBackwardReferences@V?$HashLongestMatch@$0P@$06$03$09$0A@$0A@@brotli@@$0A@$0A@@brotli@@YAX_K0PEBE0PEBM0_KNHPEAV?$HashLongestMatch@$0P@$06$03$09$0A@$0A@@0@PEAH5PEAUCommand@0@5@Z 000000018000c440 f i backward_references.obj
 0001:0000bb60       ??$CreateBackwardReferences@V?$HashLongestMatch@$0P@$07$03$0BA@$0A@$0A@@brotli@@$0A@$0A@@brotli@@YAX_K0PEBE0PEBM0_KNHPEAV?$HashLongestMatch@$0P@$07$03$0BA@$0A@$0A@@0@PEAH5PEAUCommand@0@5@Z 000000018000cb60 f i backward_references.obj
 0001:0000c250       ??$CreateBackwardReferences@V?$HashLongestMatch@$0P@$07$03$0BA@$00$00@brotli@@$00$00@brotli@@YAX_K0PEBE0PEBM0_KNHPEAV?$HashLongestMatch@$0P@$07$03$0BA@$00$00@0@PEAH5PEAUCommand@0@5@Z 000000018000d250 f i backward_references.obj
 0001:0000cec0       ??$CreateBackwardReferences@V?$HashLongestMatch@$0P@$07$01$0BA@$00$0A@@brotli@@$00$0A@@brotli@@YAX_K0PEBE0PEBM0_KNHPEAV?$HashLongestMatch@$0P@$07$01$0BA@$00$0A@@0@PEAH5PEAUCommand@0@5@Z 000000018000dec0 f i backward_references.obj
 0001:0000d8e0       ?FindLongestMatch@?$HashLongestMatch@$0P@$07$01$0BA@$00$0A@@brotli@@QEAA_NPEIBE_KPEIBM1NPEIBHIIIPEIAH44PEIAN@Z 000000018000e8e0 f i backward_references.obj
 0001:0000e060       ?FindLongestMatch@?$HashLongestMatch@$0P@$07$03$0BA@$00$00@brotli@@QEAA_NPEIBE_KPEIBM1NPEIBHIIIPEIAH44PEIAN@Z 000000018000f060 f i backward_references.obj
 0001:0000e950       ?FindLongestMatch@?$HashLongestMatch@$0P@$07$03$0BA@$0A@$0A@@brotli@@QEAA_NPEIBE_KPEIBM1NPEIBHIIIPEIAH44PEIAN@Z 000000018000f950 f i backward_references.obj
 0001:0000f210       ?FindLongestMatch@?$HashLongestMatch@$0P@$06$03$09$0A@$0A@@brotli@@QEAA_NPEIBE_KPEIBM1NPEIBHIIIPEIAH44PEIAN@Z 0000000180010210 f i backward_references.obj
 0001:0000f890       ?FindLongestMatch@?$HashLongestMatch@$0P@$05$03$09$0A@$0A@@brotli@@QEAA_NPEIBE_KPEIBM1NPEIBHIIIPEIAH44PEIAN@Z 0000000180010890 f i backward_references.obj
 0001:0000ff10       ?FindLongestMatch@?$HashLongestMatch@$0O@$04$03$03$0A@$0A@@brotli@@QEAA_NPEIBE_KPEIBM1NPEIBHIIIPEIAH44PEIAN@Z 0000000180010f10 f i backward_references.obj
 0001:00010720       ?FindLongestMatch@?$HashLongestMatch@$0O@$03$03$03$0A@$0A@@brotli@@QEAA_NPEIBE_KPEIBM1NPEIBHIIIPEIAH44PEIAN@Z 0000000180011720 f i backward_references.obj
 0001:00010f30       ?FindLongestMatch@?$HashLongestMatchQuickly@$0BB@$03@brotli@@QEAA_NPEIBE_KPEIBM1NPEIBHIIIPEIAH44PEIAN@Z 0000000180011f30 f i backward_references.obj
 0001:00011400       ?FindLongestMatch@?$HashLongestMatchQuickly@$0BA@$00@brotli@@QEAA_NPEIBE_KPEIBM1NPEIBHIIIPEIAH44PEIAN@Z 0000000180012400 f i backward_references.obj
 0001:00011870       ?ClusterCostDiff@brotli@@YANHH@Z 0000000180012870 f i block_splitter.obj
 0001:00011a50       ?RemapBlockIds@brotli@@YAHPEAE_K@Z 0000000180012a50 f   block_splitter.obj
 0001:00011c70       ?BuildBlockSplit@brotli@@YAXAEBV?$vector@EV?$allocator@E@std@@@std@@PEAUBlockSplit@1@@Z 0000000180012c70 f   block_splitter.obj
 0001:00011d50       ?SplitBlock@brotli@@YAXPEBUCommand@1@_KPEBEPEAUBlockSplit@1@33@Z 0000000180012d50 f   block_splitter.obj
 0001:00012000       ??A?$map@EEU?$less@E@std@@V?$allocator@U?$pair@$$CBEE@std@@@2@@std@@QEAAAEAEAEBE@Z 0000000180013000 f i block_splitter.obj
 0001:000120e0       ?push_back@?$vector@HV?$allocator@H@std@@@std@@QEAAXAEBH@Z 00000001800130e0 f i block_splitter.obj
 0001:000120e0       ?push_back@?$vector@HV?$allocator@H@std@@@std@@QEAAX$$QEAH@Z 00000001800130e0 f i block_splitter.obj
 0001:000121f0       ??$SplitByteVector@U?$Histogram@$0BAA@@brotli@@E@brotli@@YAXAEBV?$vector@EV?$allocator@E@std@@@std@@HHHNPEAUBlockSplit@0@@Z 00000001800131f0 f i block_splitter.obj
 0001:00012670       ??$SplitByteVector@U?$Histogram@$0CMA@@brotli@@G@brotli@@YAXAEBV?$vector@GV?$allocator@G@std@@@std@@HHHNPEAUBlockSplit@0@@Z 0000000180013670 f i block_splitter.obj
 0001:00012a60       ??$SplitByteVector@U?$Histogram@$0CAI@@brotli@@E@brotli@@YAXAEBV?$vector@EV?$allocator@E@std@@@std@@HHHNPEAUBlockSplit@0@@Z 0000000180013a60 f i block_splitter.obj
 0001:00012ee0       ??$_Emplace_reallocate@AEBG@?$vector@GV?$allocator@G@std@@@std@@QEAAPEAGQEAGAEBG@Z 0000000180013ee0 f i block_splitter.obj
 0001:00013040       ?_Change_array@?$vector@GV?$allocator@G@std@@@std@@AEAAXQEAG_K1@Z 0000000180014040 f i block_splitter.obj
 0001:000130d0       ?_Change_array@?$vector@HV?$allocator@H@std@@@std@@AEAAXQEAH_K1@Z 00000001800140d0 f i block_splitter.obj
 0001:00013160       ?allocate@?$allocator@H@std@@QEAAPEAH_K@Z 0000000180014160 f i block_splitter.obj
 0001:000131d0       ?_Tidy@?$vector@U?$Histogram@$0CAI@@brotli@@V?$allocator@U?$Histogram@$0CAI@@brotli@@@std@@@std@@AEAAXXZ 00000001800141d0 f i block_splitter.obj
 0001:00013250       ?_Tidy@?$vector@U?$Histogram@$0CMA@@brotli@@V?$allocator@U?$Histogram@$0CMA@@brotli@@@std@@@std@@AEAAXXZ 0000000180014250 f i block_splitter.obj
 0001:000132d0       ?_Tidy@?$vector@U?$Histogram@$0BAA@@brotli@@V?$allocator@U?$Histogram@$0BAA@@brotli@@@std@@@std@@AEAAXXZ 00000001800142d0 f i block_splitter.obj
 0001:00013350       ??$RefineEntropyCodes@U?$Histogram@$0BAA@@brotli@@E@brotli@@YAXPEBE_K1PEAV?$vector@U?$Histogram@$0BAA@@brotli@@V?$allocator@U?$Histogram@$0BAA@@brotli@@@std@@@std@@@Z 0000000180014350 f i block_splitter.obj
 0001:000135a0       ??$FindBlocks@E$0BAA@@brotli@@YAXPEBE_KNAEBV?$vector@U?$Histogram@$0BAA@@brotli@@V?$allocator@U?$Histogram@$0BAA@@brotli@@@std@@@std@@PEAE@Z 00000001800145a0 f i block_splitter.obj
 0001:00013940       ??$ClusterBlocks@U?$Histogram@$0BAA@@brotli@@E@brotli@@YAXPEBE_KPEAE@Z 0000000180014940 f i block_splitter.obj
 0001:00013bf0       ??$RefineEntropyCodes@U?$Histogram@$0CMA@@brotli@@G@brotli@@YAXPEBG_K1PEAV?$vector@U?$Histogram@$0CMA@@brotli@@V?$allocator@U?$Histogram@$0CMA@@brotli@@@std@@@std@@@Z 0000000180014bf0 f i block_splitter.obj
 0001:00013e40       ??$FindBlocks@G$0CMA@@brotli@@YAXPEBG_KNAEBV?$vector@U?$Histogram@$0CMA@@brotli@@V?$allocator@U?$Histogram@$0CMA@@brotli@@@std@@@std@@PEAE@Z 0000000180014e40 f i block_splitter.obj
 0001:000141d0       ??$ClusterBlocks@U?$Histogram@$0CMA@@brotli@@G@brotli@@YAXPEBG_KPEAE@Z 00000001800151d0 f i block_splitter.obj
 0001:000145a0       ??$RefineEntropyCodes@U?$Histogram@$0CAI@@brotli@@E@brotli@@YAXPEBE_K1PEAV?$vector@U?$Histogram@$0CAI@@brotli@@V?$allocator@U?$Histogram@$0CAI@@brotli@@@std@@@std@@@Z 00000001800155a0 f i block_splitter.obj
 0001:00014810       ??$FindBlocks@E$0CAI@@brotli@@YAXPEBE_KNAEBV?$vector@U?$Histogram@$0CAI@@brotli@@V?$allocator@U?$Histogram@$0CAI@@brotli@@@std@@@std@@PEAE@Z 0000000180015810 f i block_splitter.obj
 0001:00014bb0       ??$ClusterBlocks@U?$Histogram@$0CAI@@brotli@@E@brotli@@YAXPEBE_KPEAE@Z 0000000180015bb0 f i block_splitter.obj
 0001:00014e60       ??$_Erase_tree@V?$allocator@U?$_Tree_node@U?$pair@$$CBEE@std@@PEAX@std@@@std@@@?$_Tree_val@U?$_Tree_simple_types@U?$pair@$$CBEE@std@@@std@@@std@@QEAAXAEAV?$allocator@U?$_Tree_node@U?$pair@$$CBEE@std@@PEAX@std@@@1@PEAU?$_Tree_node@U?$pair@$$CBEE@std@@PEAX@1@@Z 0000000180015e60 f i block_splitter.obj
 0001:00014e60       ??$_Erase_tree@V?$allocator@U?$_Tree_node@HPEAX@std@@@std@@@?$_Tree_val@U?$_Tree_simple_types@H@std@@@std@@QEAAXAEAV?$allocator@U?$_Tree_node@HPEAX@std@@@1@PEAU?$_Tree_node@HPEAX@1@@Z 0000000180015e60 f i block_splitter.obj
 0001:00014ec0       ?push_back@?$vector@U?$Histogram@$0CAI@@brotli@@V?$allocator@U?$Histogram@$0CAI@@brotli@@@std@@@std@@QEAAXAEBU?$Histogram@$0CAI@@brotli@@@Z 0000000180015ec0 f i block_splitter.obj
 0001:000150a0       ?push_back@?$vector@U?$Histogram@$0CMA@@brotli@@V?$allocator@U?$Histogram@$0CMA@@brotli@@@std@@@std@@QEAAXAEBU?$Histogram@$0CMA@@brotli@@@Z 00000001800160a0 f i block_splitter.obj
 0001:00015280       ?resize@?$vector@U?$Histogram@$0BAA@@brotli@@V?$allocator@U?$Histogram@$0BAA@@brotli@@@std@@@std@@QEAAX_K@Z 0000000180016280 f i block_splitter.obj
 0001:00015420       ?push_back@?$vector@U?$Histogram@$0BAA@@brotli@@V?$allocator@U?$Histogram@$0BAA@@brotli@@@std@@@std@@QEAAXAEBU?$Histogram@$0BAA@@brotli@@@Z 0000000180016420 f i block_splitter.obj
 0001:00015600       ??$ClusterHistograms@U?$Histogram@$0BAA@@brotli@@@brotli@@YAXAEBV?$vector@U?$Histogram@$0BAA@@brotli@@V?$allocator@U?$Histogram@$0BAA@@brotli@@@std@@@std@@HHHPEAV12@PEAV?$vector@HV?$allocator@H@std@@@2@@Z 0000000180016600 f i block_splitter.obj
 0001:00015860       ??$ClusterHistograms@U?$Histogram@$0CAI@@brotli@@@brotli@@YAXAEBV?$vector@U?$Histogram@$0CAI@@brotli@@V?$allocator@U?$Histogram@$0CAI@@brotli@@@std@@@std@@HHHPEAV12@PEAV?$vector@HV?$allocator@H@std@@@2@@Z 0000000180016860 f i block_splitter.obj
 0001:00015a60       ??$_Resize@U_Value_init_tag@std@@@?$vector@U?$Histogram@$0CAI@@brotli@@V?$allocator@U?$Histogram@$0CAI@@brotli@@@std@@@std@@AEAAX_KAEBU_Value_init_tag@1@@Z 0000000180016a60 f i block_splitter.obj
 0001:00015c20       ??$_Resize@U_Value_init_tag@std@@@?$vector@U?$Histogram@$0CMA@@brotli@@V?$allocator@U?$Histogram@$0CMA@@brotli@@@std@@@std@@AEAAX_KAEBU_Value_init_tag@1@@Z 0000000180016c20 f i block_splitter.obj
 0001:00015de0       ?_Change_array@?$vector@U?$Histogram@$0CAI@@brotli@@V?$allocator@U?$Histogram@$0CAI@@brotli@@@std@@@std@@AEAAXQEAU?$Histogram@$0CAI@@brotli@@_K1@Z 0000000180016de0 f i block_splitter.obj
 0001:00015ea0       ?allocate@?$allocator@U?$Histogram@$0CAI@@brotli@@@std@@QEAAPEAU?$Histogram@$0CAI@@brotli@@_K@Z 0000000180016ea0 f i block_splitter.obj
 0001:00015f10       ?_Change_array@?$vector@U?$Histogram@$0CMA@@brotli@@V?$allocator@U?$Histogram@$0CMA@@brotli@@@std@@@std@@AEAAXQEAU?$Histogram@$0CMA@@brotli@@_K1@Z 0000000180016f10 f i block_splitter.obj
 0001:00015fd0       ?allocate@?$allocator@U?$Histogram@$0CMA@@brotli@@@std@@QEAAPEAU?$Histogram@$0CMA@@brotli@@_K@Z 0000000180016fd0 f i block_splitter.obj
 0001:00016040       ?_Change_array@?$vector@U?$Histogram@$0BAA@@brotli@@V?$allocator@U?$Histogram@$0BAA@@brotli@@@std@@@std@@AEAAXQEAU?$Histogram@$0BAA@@brotli@@_K1@Z 0000000180017040 f i block_splitter.obj
 0001:00016100       ?allocate@?$allocator@U?$Histogram@$0BAA@@brotli@@@std@@QEAAPEAU?$Histogram@$0BAA@@brotli@@_K@Z 0000000180017100 f i block_splitter.obj
 0001:00016170       ?resize@?$vector@HV?$allocator@H@std@@@std@@QEAAX_K@Z 0000000180017170 f i block_splitter.obj
 0001:00016280       ??$PopulationCost@$0BAA@@brotli@@YANAEBU?$Histogram@$0BAA@@0@@Z 0000000180017280 f i block_splitter.obj
 0001:00016490       ??$HistogramCombine@U?$Histogram@$0BAA@@brotli@@@brotli@@YAXPEAU?$Histogram@$0BAA@@0@PEAH1HH@Z 0000000180017490 f i block_splitter.obj
 0001:00016a90       ??$HistogramRemap@U?$Histogram@$0BAA@@brotli@@@brotli@@YAXPEBU?$Histogram@$0BAA@@0@HPEAU10@PEAH@Z 0000000180017a90 f i block_splitter.obj
 0001:00016f00       ??$HistogramReindex@U?$Histogram@$0BAA@@brotli@@@brotli@@YAXPEAV?$vector@U?$Histogram@$0BAA@@brotli@@V?$allocator@U?$Histogram@$0BAA@@brotli@@@std@@@std@@PEAV?$vector@HV?$allocator@H@std@@@2@@Z 0000000180017f00 f i block_splitter.obj
 0001:00017250       ??$PopulationCost@$0CMA@@brotli@@YANAEBU?$Histogram@$0CMA@@0@@Z 0000000180018250 f i block_splitter.obj
 0001:00017460       ??$HistogramCombine@U?$Histogram@$0CMA@@brotli@@@brotli@@YAXPEAU?$Histogram@$0CMA@@0@PEAH1HH@Z 0000000180018460 f i block_splitter.obj
 0001:00017a60       ??$HistogramRemap@U?$Histogram@$0CMA@@brotli@@@brotli@@YAXPEBU?$Histogram@$0CMA@@0@HPEAU10@PEAH@Z 0000000180018a60 f i block_splitter.obj
 0001:00017ed0       ??$HistogramReindex@U?$Histogram@$0CMA@@brotli@@@brotli@@YAXPEAV?$vector@U?$Histogram@$0CMA@@brotli@@V?$allocator@U?$Histogram@$0CMA@@brotli@@@std@@@std@@PEAV?$vector@HV?$allocator@H@std@@@2@@Z 0000000180018ed0 f i block_splitter.obj
 0001:00018180       ??$PopulationCost@$0CAI@@brotli@@YANAEBU?$Histogram@$0CAI@@0@@Z 0000000180019180 f i block_splitter.obj
 0001:000183b0       ??$HistogramCombine@U?$Histogram@$0CAI@@brotli@@@brotli@@YAXPEAU?$Histogram@$0CAI@@0@PEAH1HH@Z 00000001800193b0 f i block_splitter.obj
 0001:000189c0       ??$HistogramRemap@U?$Histogram@$0CAI@@brotli@@@brotli@@YAXPEBU?$Histogram@$0CAI@@0@HPEAU10@PEAH@Z 00000001800199c0 f i block_splitter.obj
 0001:00018de0       ??$HistogramReindex@U?$Histogram@$0CAI@@brotli@@@brotli@@YAXPEAV?$vector@U?$Histogram@$0CAI@@brotli@@V?$allocator@U?$Histogram@$0CAI@@brotli@@@std@@@std@@PEAV?$vector@HV?$allocator@H@std@@@2@@Z 0000000180019de0 f i block_splitter.obj
 0001:00019090       ??$_Uninitialized_move@PEAU?$Histogram@$0BAA@@brotli@@V?$allocator@U?$Histogram@$0BAA@@brotli@@@std@@@std@@YAPEAU?$Histogram@$0BAA@@brotli@@QEAU12@0PEAU12@AEAV?$allocator@U?$Histogram@$0BAA@@brotli@@@0@@Z 000000018001a090 f i block_splitter.obj
 0001:00019130       ??A?$map@HHU?$less@H@std@@V?$allocator@U?$pair@$$CBHH@std@@@2@@std@@QEAAAEAHAEBH@Z 000000018001a130 f i block_splitter.obj
 0001:00019220       ??$CompareAndPushToHeap@U?$Histogram@$0BAA@@brotli@@@brotli@@YAXPEBU?$Histogram@$0BAA@@0@PEBHHHPEAV?$vector@UHistogramPair@brotli@@V?$allocator@UHistogramPair@brotli@@@std@@@std@@@Z 000000018001a220 f i block_splitter.obj
 0001:000194f0       ??$HistogramBitCostDistance@U?$Histogram@$0BAA@@brotli@@@brotli@@YANAEBU?$Histogram@$0BAA@@0@0@Z 000000018001a4f0 f i block_splitter.obj
 0001:00019640       ??$CompareAndPushToHeap@U?$Histogram@$0CMA@@brotli@@@brotli@@YAXPEBU?$Histogram@$0CMA@@0@PEBHHHPEAV?$vector@UHistogramPair@brotli@@V?$allocator@UHistogramPair@brotli@@@std@@@std@@@Z 000000018001a640 f i block_splitter.obj
 0001:000198b0       ??$HistogramBitCostDistance@U?$Histogram@$0CMA@@brotli@@@brotli@@YANAEBU?$Histogram@$0CMA@@0@0@Z 000000018001a8b0 f i block_splitter.obj
 0001:000199b0       ??$CompareAndPushToHeap@U?$Histogram@$0CAI@@brotli@@@brotli@@YAXPEBU?$Histogram@$0CAI@@0@PEBHHHPEAV?$vector@UHistogramPair@brotli@@V?$allocator@UHistogramPair@brotli@@@std@@@std@@@Z 000000018001a9b0 f i block_splitter.obj
 0001:00019c20       ??$HistogramBitCostDistance@U?$Histogram@$0CAI@@brotli@@@brotli@@YANAEBU?$Histogram@$0CAI@@0@0@Z 000000018001ac20 f i block_splitter.obj
 0001:00019d40       ??$push_heap@V?$_Vector_iterator@V?$_Vector_val@U?$_Simple_types@UHistogramPair@brotli@@@std@@@std@@@std@@UHistogramPairComparator@brotli@@@std@@YAXV?$_Vector_iterator@V?$_Vector_val@U?$_Simple_types@UHistogramPair@brotli@@@std@@@std@@@0@0UHistogramPairComparator@brotli@@@Z 000000018001ad40 f i block_splitter.obj
 0001:00019e20       ??$_Emplace_reallocate@AEBUHistogramPair@brotli@@@?$vector@UHistogramPair@brotli@@V?$allocator@UHistogramPair@brotli@@@std@@@std@@QEAAPEAUHistogramPair@brotli@@QEAU23@AEBU23@@Z 000000018001ae20 f i block_splitter.obj
 0001:00019fd0       ??$_Pop_heap_hole_by_index@PEAUHistogramPair@brotli@@U12@UHistogramPairComparator@2@@std@@YAXPEAUHistogramPair@brotli@@_J1$$QEAU12@UHistogramPairComparator@2@@Z 000000018001afd0 f i block_splitter.obj
 0001:0001a3a0       ?WriteBits@brotli@@YAXH_KPEIAHPEIAE@Z 000000018001b3a0 f i brotli_bit_stream.obj
 0001:0001a420       ?StoreVarLenUint8@brotli@@YAXHPEAHPEAE@Z 000000018001b420 f   brotli_bit_stream.obj
 0001:0001a4d0       ?StoreCompressedMetaBlockHeader@brotli@@YA_N_N_KPEAHPEAE@Z 000000018001b4d0 f   brotli_bit_stream.obj
 0001:0001a5d0       ?StoreHuffmanTreeOfHuffmanTreeToBitMask@brotli@@YAXHPEBEPEAHPEAE@Z 000000018001b5d0 f   brotli_bit_stream.obj
 0001:0001a770       ?StoreSimpleHuffmanTree@brotli@@YAXPEBEQEAHHHPEAHPEAE@Z 000000018001b770 f   brotli_bit_stream.obj
 0001:0001a970       ?StoreHuffmanTree@brotli@@YAXPEBE_KPEAHPEAE@Z 000000018001b970 f   brotli_bit_stream.obj
 0001:0001ad10       ?BuildAndStoreHuffmanTree@brotli@@YAXPEBHHPEAEPEAGPEAH1@Z 000000018001bd10 f   brotli_bit_stream.obj
 0001:0001ae80       ?MoveToFrontTransform@brotli@@YA?AV?$vector@HV?$allocator@H@std@@@std@@AEBV23@@Z 000000018001be80 f   brotli_bit_stream.obj
 0001:0001b0f0       ?RunLengthCodeZeros@brotli@@YAXAEBV?$vector@HV?$allocator@H@std@@@std@@PEAHPEAV23@2@Z 000000018001c0f0 f   brotli_bit_stream.obj
 0001:0001b300       ?BestMaxZeroRunLengthPrefix@brotli@@YAHAEBV?$vector@HV?$allocator@H@std@@@std@@@Z 000000018001c300 f   brotli_bit_stream.obj
 0001:0001b660       ?EncodeContextMap@brotli@@YAXAEBV?$vector@HV?$allocator@H@std@@@std@@HPEAHPEAE@Z 000000018001c660 f   brotli_bit_stream.obj
 0001:0001ba50       ?BuildAndStoreBlockSplitCode@brotli@@YAXAEBV?$vector@HV?$allocator@H@std@@@std@@0HPEAUBlockSplitCode@1@PEAHPEAE@Z 000000018001ca50 f   brotli_bit_stream.obj
 0001:0001be00       ?StoreTrivialContextMap@brotli@@YAXHHPEAHPEAE@Z 000000018001ce00 f   brotli_bit_stream.obj
 0001:0001c2c0       ??0BlockEncoder@brotli@@QEAA@HHAEBV?$vector@HV?$allocator@H@std@@@std@@0@Z 000000018001d2c0 f i brotli_bit_stream.obj
 0001:0001c3b0       ?StoreSymbol@BlockEncoder@brotli@@QEAAXHPEAHPEAE@Z 000000018001d3b0 f i brotli_bit_stream.obj
 0001:0001c4e0       ??1BlockSplitCode@brotli@@QEAA@XZ 000000018001d4e0 f i brotli_bit_stream.obj
 0001:0001c770       ?StoreMetaBlock@brotli@@YA_NPEBE_K11EE_NHHHPEBUCommand@1@1AEBUMetaBlockSplit@1@PEAHPEAE@Z 000000018001d770 f   brotli_bit_stream.obj
 0001:0001d390       ??1BlockEncoder@brotli@@QEAA@XZ 000000018001e390 f i brotli_bit_stream.obj
 0001:0001d470       ?StoreUncompressedMetaBlock@brotli@@YA_N_NPEBE_K22PEAHPEAE@Z 000000018001e470 f   brotli_bit_stream.obj
 0001:0001d630       ??$PopulationCost@$0BBA@@brotli@@YANAEBU?$Histogram@$0BBA@@0@@Z 000000018001e630 f i brotli_bit_stream.obj
 0001:0001d840       ??$_Resize@U_Value_init_tag@std@@@?$vector@GV?$allocator@G@std@@@std@@AEAAX_KAEBU_Value_init_tag@1@@Z 000000018001e840 f i brotli_bit_stream.obj
 0001:0001d9b0       ?ApplyTransform@brotli@@YA?AV?$basic_string@DU?$char_traits@D@std@@V?$allocator@D@2@@std@@AEBUTransform@1@PEBEH@Z 000000018001e9b0 f i encode.obj
 0001:0001de70       ??0StaticDictionary@brotli@@QEAA@XZ 000000018001ee70 f i encode.obj
 0001:0001df30       ?Fill@StaticDictionary@brotli@@QEAAX_N@Z 000000018001ef30 f i encode.obj
 0001:0001e0a0       ?Insert@StaticDictionary@brotli@@QEAAXAEBV?$basic_string@DU?$char_traits@D@std@@V?$allocator@D@2@@std@@HH@Z 000000018001f0a0 f i encode.obj
 0001:0001e250       ?Init@Hashers@brotli@@QEAAXH@Z 000000018001f250 f i encode.obj
 0001:0001e600       ??_GBrotliOut@brotli@@UEAAPEAXI@Z 000000018001f600 f i encode.obj
 0001:0001e600       ??_EBrotliOut@brotli@@UEAAPEAXI@Z 000000018001f600 f i * CIL library *:* CIL module *
 0001:0001e600       ??_EBrotliIn@brotli@@UEAAPEAXI@Z 000000018001f600 f i * CIL library *:* CIL module *
 0001:0001e600       ??_GBrotliIn@brotli@@UEAAPEAXI@Z 000000018001f600 f i encode.obj
 0001:0001e630       ?ParseAsUTF8@brotli@@YAHPEAHPEBEH@Z 000000018001f630 f   encode.obj
 0001:0001e770       ??0BrotliCompressor@brotli@@QEAA@UBrotliParams@1@@Z 000000018001f770 f   encode.obj
 0001:0001eb20       ?CopyInputToRingBuffer@BrotliCompressor@brotli@@QEAAX_KPEBE@Z 000000018001fb20 f   encode.obj
 0001:0001ec20       ?WriteBrotliData@BrotliCompressor@brotli@@QEAA_N_N0PEA_KPEAPEAE@Z 000000018001fc20 f   encode.obj
 0001:0001f000       ?WriteMetaBlockInternal@BrotliCompressor@brotli@@AEAA_N_N0PEA_KPEAPEAE@Z 0000000180020000 f   encode.obj
 0001:0001f710       ?BrotliCompress@brotli@@YAHUBrotliParams@1@PEAVBrotliIn@1@PEAVBrotliOut@1@@Z 0000000180020710 f   encode.obj
 0001:0001f8f0       ??1MetaBlockSplit@brotli@@QEAA@XZ 00000001800208f0 f i encode.obj
 0001:0001fa00       ??1BlockSplit@brotli@@QEAA@XZ 0000000180020a00 f i encode.obj
 0001:0001fab0       ??1?$unique_ptr@UHashers@brotli@@U?$default_delete@UHashers@brotli@@@std@@@std@@QEAA@XZ 0000000180020ab0 f i encode.obj
 0001:0001fb90       ?_Assign_grow@?$_Hash_vec@V?$allocator@V?$_List_unchecked_iterator@V?$_List_val@U?$_List_simple_types@U?$pair@$$CBV?$basic_string@DU?$char_traits@D@std@@V?$allocator@D@2@@std@@H@std@@@std@@@std@@@std@@@std@@@std@@QEAAX_KV?$_List_unchecked_iterator@V?$_List_val@U?$_List_simple_types@U?$pair@$$CBV?$basic_string@DU?$char_traits@D@std@@V?$allocator@D@2@@std@@H@std@@@std@@@std@@@2@@Z 0000000180020b90 f i encode.obj
 0001:0001fb90       ?_Assign_grow@?$_Hash_vec@V?$allocator@V?$_List_unchecked_iterator@V?$_List_val@U?$_List_simple_types@U?$pair@$$CBIH@std@@@std@@@std@@@std@@@std@@@std@@QEAAX_KV?$_List_unchecked_iterator@V?$_List_val@U?$_List_simple_types@U?$pair@$$CBIH@std@@@std@@@std@@@2@@Z 0000000180020b90 f i encode.obj
 0001:0001fcd0       ??$_Try_emplace@AEBI$$V@?$_Hash@V?$_Umap_traits@IHV?$_Uhash_compare@IU?$hash@I@std@@U?$equal_to@I@2@@std@@V?$allocator@U?$pair@$$CBIH@std@@@2@$0A@@std@@@std@@IEAA?AU?$pair@PEAU?$_List_node@U?$pair@$$CBIH@std@@PEAX@std@@_N@1@AEBI@Z 0000000180020cd0 f i encode.obj
 0001:0001ff90       ??$_Try_emplace@AEBV?$basic_string@DU?$char_traits@D@std@@V?$allocator@D@2@@std@@$$V@?$_Hash@V?$_Umap_traits@V?$basic_string@DU?$char_traits@D@std@@V?$allocator@D@2@@std@@HV?$_Uhash_compare@V?$basic_string@DU?$char_traits@D@std@@V?$allocator@D@2@@std@@U?$hash@V?$basic_string@DU?$char_traits@D@std@@V?$allocator@D@2@@std@@@2@U?$equal_to@V?$basic_string@DU?$char_traits@D@std@@V?$allocator@D@2@@std@@@2@@2@V?$allocator@U?$pair@$$CBV?$basic_string@DU?$char_traits@D@std@@V?$allocator@D@2@@std@@H@std@@@2@$0A@@std@@@std@@IEAA?AU?$pair@PEAU?$_List_node@U?$pair@$$CBV?$basic_string@DU?$char_traits@D@std@@V?$allocator@D@2@@std@@H@std@@PEAX@std@@_N@1@AEBV?$basic_string@DU?$char_traits@D@std@@V?$allocator@D@2@@1@@Z 0000000180020f90 f i encode.obj
 0001:00020350       ??$_Reallocate_grow_by@V<lambda_65e615be2a453ca0576c979606f46740>@@PEBD_K@?$basic_string@DU?$char_traits@D@std@@V?$allocator@D@2@@std@@AEAAAEAV01@_KV<lambda_65e615be2a453ca0576c979606f46740>@@PEBD_K@Z 0000000180021350 f i encode.obj
 0001:000204e0       ?_Forced_rehash@?$_Hash@V?$_Umap_traits@IHV?$_Uhash_compare@IU?$hash@I@std@@U?$equal_to@I@2@@std@@V?$allocator@U?$pair@$$CBIH@std@@@2@$0A@@std@@@std@@IEAAX_K@Z 00000001800214e0 f i encode.obj
 0001:000206a0       ?_Forced_rehash@?$_Hash@V?$_Umap_traits@V?$basic_string@DU?$char_traits@D@std@@V?$allocator@D@2@@std@@HV?$_Uhash_compare@V?$basic_string@DU?$char_traits@D@std@@V?$allocator@D@2@@std@@U?$hash@V?$basic_string@DU?$char_traits@D@std@@V?$allocator@D@2@@std@@@2@U?$equal_to@V?$basic_string@DU?$char_traits@D@std@@V?$allocator@D@2@@std@@@2@@2@V?$allocator@U?$pair@$$CBV?$basic_string@DU?$char_traits@D@std@@V?$allocator@D@2@@std@@H@std@@@2@$0A@@std@@@std@@IEAAX_K@Z 00000001800216a0 f i encode.obj
 0001:00020920       ??$_Reallocate_grow_by@V<lambda_9013ee9e23efe4882b67eff5b0ecf103>@@$$V@?$basic_string@DU?$char_traits@D@std@@V?$allocator@D@2@@std@@AEAAAEAV01@_KV<lambda_9013ee9e23efe4882b67eff5b0ecf103>@@@Z 0000000180021920 f i encode.obj
 0001:00020a70       ??$_Reallocate_grow_by@V<lambda_319d5e083f45f90dcdce5dce53cbb275>@@D@?$basic_string@DU?$char_traits@D@std@@V?$allocator@D@2@@std@@AEAAAEAV01@_KV<lambda_319d5e083f45f90dcdce5dce53cbb275>@@D@Z 0000000180021a70 f i encode.obj
 0001:00020c80       ?CreateHuffmanTree@brotli@@YAXPEBHHHPEAE@Z 0000000180021c80 f   entropy_encode.obj
 0001:000211e0       ?WriteHuffmanTreeRepetitions@brotli@@YAXHHHPEAV?$vector@EV?$allocator@E@std@@@std@@0@Z 00000001800221e0 f   entropy_encode.obj
 0001:00021380       ?WriteHuffmanTreeRepetitionsZeros@brotli@@YAXHPEAV?$vector@EV?$allocator@E@std@@@std@@0@Z 0000000180022380 f   entropy_encode.obj
 0001:000214f0       ?OptimizeHuffmanCountsForRle@brotli@@YAHHPEAH@Z 00000001800224f0 f   entropy_encode.obj
 0001:00021a40       ?WriteHuffmanTree@brotli@@YAXPEBEIPEAV?$vector@EV?$allocator@E@std@@@std@@1@Z 0000000180022a40 f   entropy_encode.obj
 0001:00021be0       ?ConvertBitDepthsToSymbols@brotli@@YAXPEBEHPEAG@Z 0000000180022be0 f   entropy_encode.obj
 0001:00022af0       ?BuildHistograms@brotli@@YAXPEBUCommand@1@_KAEBVBlockSplit@1@22PEBE_K4EEAEBV?$vector@HV?$allocator@H@std@@@std@@PEAV?$vector@U?$Histogram@$0BAA@@brotli@@V?$allocator@U?$Histogram@$0BAA@@brotli@@@std@@@5@PEAV?$vector@U?$Histogram@$0CMA@@brotli@@V?$allocator@U?$Histogram@$0CMA@@brotli@@@std@@@5@PEAV?$vector@U?$Histogram@$0CAI@@brotli@@V?$allocator@U?$Histogram@$0CAI@@brotli@@@std@@@5@@Z 0000000180023af0 f   histogram.obj
 0001:00022e30       ?EstimateBitCostsForLiteralsUTF8@brotli@@YAX_K000PEBEPEAM@Z 0000000180023e30 f   literal_cost.obj
 0001:000233b0       ?EstimateBitCostsForLiterals@brotli@@YAX_K000PEBEPEAM@Z 00000001800243b0 f   literal_cost.obj
 0001:00023740       ?BuildMetaBlock@brotli@@YAXPEBE_K1EEPEBUCommand@1@_KH_NPEAUMetaBlockSplit@1@@Z 0000000180024740 f   metablock.obj
 0001:00023f70       ?BuildMetaBlockGreedy@brotli@@YAXPEBE_K1PEBUCommand@1@1PEAUMetaBlockSplit@1@@Z 0000000180024f70 f   metablock.obj
 0001:000243d0       ?OptimizeHistograms@brotli@@YAXHHPEAUMetaBlockSplit@1@@Z 00000001800253d0 f   metablock.obj
 0001:00024590       ?FinishBlock@?$BlockSplitter@U?$Histogram@$0CAI@@brotli@@@brotli@@QEAAX_N@Z 0000000180025590 f i metablock.obj
 0001:00024a40       ?FinishBlock@?$BlockSplitter@U?$Histogram@$0CMA@@brotli@@@brotli@@QEAAX_N@Z 0000000180025a40 f i metablock.obj
 0001:00024ee0       ?FinishBlock@?$BlockSplitter@U?$Histogram@$0BAA@@brotli@@@brotli@@QEAAX_N@Z 0000000180025ee0 f i metablock.obj
 0001:00025480       ??_EBrotliMemOut@brotli@@UEAAPEAXI@Z 0000000180026480 f i * CIL library *:* CIL module *
 0001:00025480       ??_EBrotliMemIn@brotli@@UEAAPEAXI@Z 0000000180026480 f i * CIL library *:* CIL module *
 0001:00025480       ??_GBrotliMemIn@brotli@@UEAAPEAXI@Z 0000000180026480 f i streams.obj
 0001:00025480       ??_GBrotliMemOut@brotli@@UEAAPEAXI@Z 0000000180026480 f i streams.obj
 0001:000254b0       ?Write@BrotliMemOut@brotli@@UEAA_NPEBX_K@Z 00000001800264b0 f   streams.obj
 0001:00025500       ?Read@BrotliMemIn@brotli@@UEAAPEBX_KPEA_K@Z 0000000180026500 f   streams.obj
 0001:00025564       __imp_load_?Value@External@v8@@QEBAPEAXXZ 0000000180026564 f   node:node.exe
 0001:00025570       __tailMerge_node_exe       0000000180026570     node:node.exe
 0001:000255e9       __imp_load_?New@External@v8@@SA?AV?$Local@VExternal@v8@@@2@PEAVIsolate@2@PEAX@Z 00000001800265e9 f   node:node.exe
 0001:000255f5       __imp_load_?ThrowException@Isolate@v8@@QEAA?AV?$Local@VValue@v8@@@2@V32@@Z 00000001800265f5 f   node:node.exe
 0001:00025601       __imp_load_?GetCurrentContext@Isolate@v8@@QEAA?AV?$Local@VContext@v8@@@2@XZ 0000000180026601 f   node:node.exe
 0001:0002560d       __imp_load_?GetCurrent@Isolate@v8@@SAPEAV12@XZ 000000018002660d f   node:node.exe
 0001:00025619       __imp_load_?CreateHandle@HandleScope@v8@@CAPEAPEAVObject@internal@2@PEAVHeapObject@42@PEAV342@@Z 0000000180026619 f   node:node.exe
 0001:00025625       __imp_load_??1HandleScope@v8@@QEAA@XZ 0000000180026625 f   node:node.exe
 0001:00025631       __imp_load_??0HandleScope@v8@@QEAA@PEAVIsolate@1@@Z 0000000180026631 f   node:node.exe
 0001:0002563d       __imp_load_?Error@Exception@v8@@SA?AV?$Local@VValue@v8@@@2@V?$Local@VString@v8@@@2@@Z 000000018002663d f   node:node.exe
 0001:00025649       __imp_load_?TypeError@Exception@v8@@SA?AV?$Local@VValue@v8@@@2@V?$Local@VString@v8@@@2@@Z 0000000180026649 f   node:node.exe
 0001:00025655       __imp_load_?GetFunction@FunctionTemplate@v8@@QEAA?AV?$MaybeLocal@VFunction@v8@@@2@V?$Local@VContext@v8@@@2@@Z 0000000180026655 f   node:node.exe
 0001:00025661       __imp_load_?New@FunctionTemplate@v8@@SA?AV?$Local@VFunctionTemplate@v8@@@2@PEAVIsolate@2@P6AXAEBV?$FunctionCallbackInfo@VValue@v8@@@2@@ZV?$Local@VValue@v8@@@2@V?$Local@VSignature@v8@@@2@HW4ConstructorBehavior@2@W4SideEffectType@2@@Z 0000000180026661 f   node:node.exe
 0001:0002566d       __imp_load_?ToLocalEmpty@V8@v8@@CAXXZ 000000018002666d f   node:node.exe
 0001:00025679       __imp_load_?ToObject@Value@v8@@QEBA?AV?$MaybeLocal@VObject@v8@@@2@V?$Local@VContext@v8@@@2@@Z 0000000180026679 f   node:node.exe
 0001:00025685       __imp_load_?Escape@EscapableHandleScope@v8@@AEAAPEAPEAVObject@internal@2@PEAPEAV342@@Z 0000000180026685 f   node:node.exe
 0001:00025691       __imp_load_??0EscapableHandleScope@v8@@QEAA@PEAVIsolate@1@@Z 0000000180026691 f   node:node.exe
 0001:0002569d       __imp_load_?NewFromUtf8@String@v8@@SA?AV?$MaybeLocal@VString@v8@@@2@PEAVIsolate@2@PEBDW4NewStringType@2@H@Z 000000018002669d f   node:node.exe
 0001:000256a9       __imp_load_?SlowGetInternalField@Object@v8@@AEAA?AV?$Local@VValue@v8@@@2@H@Z 00000001800266a9 f   node:node.exe
 0001:000256b5       __imp_load_?SetInternalField@Object@v8@@QEAAXHV?$Local@VValue@v8@@@2@@Z 00000001800266b5 f   node:node.exe
 0001:000256c1       __imp_load_?Set@Object@v8@@QEAA?AV?$Maybe@_N@2@V?$Local@VContext@v8@@@2@V?$Local@VValue@v8@@@2@1@Z 00000001800266c1 f   node:node.exe
 0001:000256cd       __imp_load_?SetInternalFieldCount@ObjectTemplate@v8@@QEAAXH@Z 00000001800266cd f   node:node.exe
 0001:000256d9       __imp_load_?NewInstance@ObjectTemplate@v8@@QEAA?AV?$MaybeLocal@VObject@v8@@@2@V?$Local@VContext@v8@@@2@@Z 00000001800266d9 f   node:node.exe
 0001:000256e5       __imp_load_?New@ObjectTemplate@v8@@SA?AV?$Local@VObjectTemplate@v8@@@2@PEAVIsolate@2@V?$Local@VFunctionTemplate@v8@@@2@@Z 00000001800266e5 f   node:node.exe
 0001:000256f1       __imp_load_node_module_register 00000001800266f1 f   node:node.exe
 0001:000256fd       __imp_load_?HasInstance@Buffer@node@@YA_NV?$Local@VObject@v8@@@v8@@@Z 00000001800266fd f   node:node.exe
 0001:00025709       __imp_load_?New@Buffer@node@@YA?AV?$MaybeLocal@VObject@v8@@@v8@@PEAVIsolate@4@PEAD_K@Z 0000000180026709 f   node:node.exe
 0001:00025715       __imp_load_?Data@Buffer@node@@YAPEADV?$Local@VObject@v8@@@v8@@@Z 0000000180026715 f   node:node.exe
 0001:00025721       __imp_load_?Length@Buffer@node@@YA_KV?$Local@VObject@v8@@@v8@@@Z 0000000180026721 f   node:node.exe
 0001:00025730       ??0bad_alloc@std@@QEAA@AEBV01@@Z 0000000180026730 f i libcpmt:xthrow.obj
 0001:0002576c       ??0bad_alloc@std@@QEAA@XZ  000000018002676c f i libcpmt:xthrow.obj
 0001:0002578c       ??0exception@std@@QEAA@AEBV01@@Z 000000018002678c f i libcpmt:xthrow.obj
 0001:000257c0       ??0length_error@std@@QEAA@AEBV01@@Z 00000001800267c0 f i libcpmt:xthrow.obj
 0001:000257fc       ??0length_error@std@@QEAA@PEBD@Z 00000001800267fc f i libcpmt:xthrow.obj
 0001:00025844       ??0logic_error@std@@QEAA@AEBV01@@Z 0000000180026844 f i libcpmt:xthrow.obj
 0001:00025880       ??0out_of_range@std@@QEAA@AEBV01@@Z 0000000180026880 f i libcpmt:xthrow.obj
 0001:000258bc       ??0out_of_range@std@@QEAA@PEBD@Z 00000001800268bc f i libcpmt:xthrow.obj
 0001:00025904       ??1bad_alloc@std@@UEAA@XZ  0000000180026904 f i libcpmt:xthrow.obj
 0001:00025904       ??1bad_array_new_length@std@@UEAA@XZ 0000000180026904 f i LIBCMT:throw_bad_alloc.obj
 0001:00025904       ??1out_of_range@std@@UEAA@XZ 0000000180026904 f i libcpmt:xthrow.obj
 0001:00025904       ??1bad_exception@std@@UEAA@XZ 0000000180026904 f i libvcruntime:frame.obj
 0001:00025904       ??1length_error@std@@UEAA@XZ 0000000180026904 f i libcpmt:xthrow.obj
 0001:00025918       ??_Gbad_alloc@std@@UEAAPEAXI@Z 0000000180026918 f i libcpmt:xthrow.obj
 0001:00025918       ??_Ebad_exception@std@@UEAAPEAXI@Z 0000000180026918 f i libvcruntime:frame.obj
 0001:00025918       ??_Gbad_array_new_length@std@@UEAAPEAXI@Z 0000000180026918 f i LIBCMT:throw_bad_alloc.obj
 0001:00025918       ??_Gout_of_range@std@@UEAAPEAXI@Z 0000000180026918 f i libcpmt:xthrow.obj
 0001:00025918       ??_Eout_of_range@std@@UEAAPEAXI@Z 0000000180026918 f i libcpmt:xthrow.obj
 0001:00025918       ??_Ebad_array_new_length@std@@UEAAPEAXI@Z 0000000180026918 f i LIBCMT:throw_bad_alloc.obj
 0001:00025918       ??_Gexception@std@@UEAAPEAXI@Z 0000000180026918 f i libcpmt:xthrow.obj
 0001:00025918       ??_Elength_error@std@@UEAAPEAXI@Z 0000000180026918 f i libcpmt:xthrow.obj
 0001:00025918       ??_Gbad_exception@std@@UEAAPEAXI@Z 0000000180026918 f i libvcruntime:frame.obj
 0001:00025918       ??_Elogic_error@std@@UEAAPEAXI@Z 0000000180026918 f i libcpmt:xthrow.obj
 0001:00025918       ??_Eexception@std@@UEAAPEAXI@Z 0000000180026918 f i libcpmt:xthrow.obj
 0001:00025918       ??_Glength_error@std@@UEAAPEAXI@Z 0000000180026918 f i libcpmt:xthrow.obj
 0001:00025918       ??_Ebad_alloc@std@@UEAAPEAXI@Z 0000000180026918 f i libcpmt:xthrow.obj
 0001:00025918       ??_Glogic_error@std@@UEAAPEAXI@Z 0000000180026918 f i libcpmt:xthrow.obj
 0001:0002595c       ?_Xlength_error@std@@YAXPEBD@Z 000000018002695c f   libcpmt:xthrow.obj
 0001:00025980       ?_Xout_of_range@std@@YAXPEBD@Z 0000000180026980 f   libcpmt:xthrow.obj
 0001:000259a4       ?what@exception@std@@UEBAPEBDXZ 00000001800269a4 f i libcpmt:xthrow.obj
 0001:000259b8       __std_reverse_trivially_swappable_8 00000001800269b8 f   libcpmt:vector_algorithms.obj
 0001:00025a90       __security_check_cookie    0000000180026a90 f   LIBCMT:amdsecgs.obj
 0001:00025ab4       ??2@YAPEAX_K@Z             0000000180026ab4 f   LIBCMT:new_scalar.obj
 0001:00025af0       ??_V@YAXPEAX@Z             0000000180026af0 f   LIBCMT:delete_array.obj
 0001:00025af0       ??3@YAXPEAX_K@Z            0000000180026af0 f   LIBCMT:delete_scalar_size.obj
 0001:00025af8       ??_U@YAPEAX_K@Z            0000000180026af8 f   LIBCMT:new_array.obj
 0001:00025b00       __raise_securityfailure    0000000180026b00 f   LIBCMT:gs_report.obj
 0001:00025b34       __report_gsfailure         0000000180026b34 f   LIBCMT:gs_report.obj
 0001:00025c08       __report_rangecheckfailure 0000000180026c08 f   LIBCMT:gs_report.obj
 0001:00025c1c       __report_securityfailure   0000000180026c1c f   LIBCMT:gs_report.obj
 0001:00025e94       _Init_thread_footer        0000000180026e94 f   LIBCMT:thread_safe_statics.obj
 0001:00025ef4       _Init_thread_header        0000000180026ef4 f   LIBCMT:thread_safe_statics.obj
 0001:00025f5c       _Init_thread_notify        0000000180026f5c f   LIBCMT:thread_safe_statics.obj
 0001:00025fa0       _Init_thread_wait          0000000180026fa0 f   LIBCMT:thread_safe_statics.obj
 0001:00026004       ??2@YAPEAX_KAEBUnothrow_t@std@@@Z 0000000180027004 f   LIBCMT:new_scalar_nothrow.obj
 0001:00026018       ??3@YAXPEAX@Z              0000000180027018 f   LIBCMT:delete_scalar.obj
 0001:00026340       _DllMainCRTStartup         0000000180027340 f   LIBCMT:dll_dllmain.obj
 0001:00026380       ??_Etype_info@@UEAAPEAXI@Z 0000000180027380 f i LIBCMT:std_type_info_static.obj
 0001:00026380       ??_Gtype_info@@UEAAPEAXI@Z 0000000180027380 f i LIBCMT:std_type_info_static.obj
 0001:000263ac       __isa_available_init       00000001800273ac f   LIBCMT:cpu_disp.obj
 0001:00026550       ??0bad_array_new_length@std@@QEAA@AEBV01@@Z 0000000180027550 f i LIBCMT:throw_bad_alloc.obj
 0001:0002658c       ??0bad_array_new_length@std@@QEAA@XZ 000000018002758c f i LIBCMT:throw_bad_alloc.obj
 0001:000265ac       ?__scrt_throw_std_bad_alloc@@YAXXZ 00000001800275ac f   LIBCMT:throw_bad_alloc.obj
 0001:000265cc       ?__scrt_throw_std_bad_array_new_length@@YAXXZ 00000001800275cc f   LIBCMT:throw_bad_alloc.obj
 0001:000265ec       __scrt_acquire_startup_lock 00000001800275ec f   LIBCMT:utility.obj
 0001:00026628       __scrt_dllmain_after_initialize_c 0000000180027628 f   LIBCMT:utility.obj
 0001:0002665c       __scrt_dllmain_before_initialize_c 000000018002765c f   LIBCMT:utility.obj
 0001:00026674       __scrt_dllmain_crt_thread_attach 0000000180027674 f   LIBCMT:utility.obj
 0001:0002669c       __scrt_dllmain_crt_thread_detach 000000018002769c f   LIBCMT:utility.obj
 0001:000266b4       __scrt_dllmain_exception_filter 00000001800276b4 f   LIBCMT:utility.obj
 0001:00026714       __scrt_dllmain_uninitialize_c 0000000180027714 f   LIBCMT:utility.obj
 0001:00026744       __scrt_dllmain_uninitialize_critical 0000000180027744 f   LIBCMT:utility.obj
 0001:00026758       __scrt_initialize_crt      0000000180027758 f   LIBCMT:utility.obj
 0001:000267a4       __scrt_initialize_onexit_tables 00000001800277a4 f   LIBCMT:utility.obj
 0001:00026830       __scrt_is_nonwritable_in_current_image 0000000180027830 f   LIBCMT:utility.obj
 0001:000268c8       __scrt_release_startup_lock 00000001800278c8 f   LIBCMT:utility.obj
 0001:000268ec       __scrt_uninitialize_crt    00000001800278ec f   LIBCMT:utility.obj
 0001:00026918       _onexit                    0000000180027918 f   LIBCMT:utility.obj
 0001:00026954       atexit                     0000000180027954 f   LIBCMT:utility.obj
 0001:0002696c       __crt_debugger_hook        000000018002796c f   LIBCMT:utility_desktop.obj
 0001:00026974       __scrt_fastfail            0000000180027974 f   LIBCMT:utility_desktop.obj
 0001:00026ac0       __security_init_cookie     0000000180027ac0 f   LIBCMT:gs_support.obj
 0001:00026b6c       DllMain                    0000000180027b6c f   LIBCMT:dll_dllmain_stub.obj
 0001:00026b6c       _get_startup_argv_mode     0000000180027b6c f   LIBCMT:argv_mode.obj
 0001:00026b74       ?__scrt_initialize_type_info@@YAXXZ 0000000180027b74 f   LIBCMT:tncleanup.obj
 0001:00026b84       ?__scrt_uninitialize_type_info@@YAXXZ 0000000180027b84 f   LIBCMT:tncleanup.obj
 0001:00026b90       __local_stdio_scanf_options 0000000180027b90 f i LIBCMT:default_local_stdio_options.obj
 0001:00026b98       __scrt_initialize_default_local_stdio_options 0000000180027b98 f   LIBCMT:default_local_stdio_options.obj
 0001:00026bb4       __scrt_get_dyn_tls_init_callback 0000000180027bb4 f   LIBCMT:dyn_tls_init.obj
 0001:00026bbc       _RTC_Initialize            0000000180027bbc f   LIBCMT:initsect.obj
 0001:00026bf8       _RTC_Terminate             0000000180027bf8 f   LIBCMT:initsect.obj
 0001:00026c34       __scrt_is_ucrt_dll_in_use  0000000180027c34 f   LIBCMT:ucrt_detection.obj
 0001:00026c40       _get_purecall_handler      0000000180027c40 f   libvcruntime:purevirt.obj
 0001:00026c48       _purecall                  0000000180027c48 f   libvcruntime:purevirt.obj
 0001:00026c64       __std_exception_copy       0000000180027c64 f   libvcruntime:std_exception.obj
 0001:00026cf4       __std_exception_destroy    0000000180027cf4 f   libvcruntime:std_exception.obj
 0001:00026d1c       _CxxThrowException         0000000180027d1c f   libvcruntime:throw.obj
 0001:00026dbc       ??$_CallSETranslator@V__FrameHandler4@@@@YAHPEAUEHExceptionRecord@@PEA_KPEAU_CONTEXT@@PEAU_xDISPATCHER_CONTEXT@@PEAUFuncInfo4@FH4@@K1H@Z 0000000180027dbc f i libvcruntime:risctrnsctrl.obj
 0001:00026e10       ?DecompFuncInfo@FH4@@YA_JPEAEAEAUFuncInfo4@1@_KH_N@Z 0000000180027e10 f i libvcruntime:risctrnsctrl.obj
 0001:00026f34       ?ExecutionInCatch@__FrameHandler4@@SA_NPEAU_xDISPATCHER_CONTEXT@@PEAUFuncInfo4@FH4@@@Z 0000000180027f34 f   libvcruntime:risctrnsctrl.obj
 0001:00026f3c       ?FrameUnwindToEmptyState@__FrameHandler4@@SAXPEA_KPEAU_xDISPATCHER_CONTEXT@@PEAUFuncInfo4@FH4@@@Z 0000000180027f3c f   libvcruntime:risctrnsctrl.obj
 0001:00026f70       ?GetEstablisherFrame@__FrameHandler4@@SAPEA_KPEA_KPEAU_xDISPATCHER_CONTEXT@@PEAUFuncInfo4@FH4@@0@Z 0000000180027f70 f   libvcruntime:risctrnsctrl.obj
 0001:00026f94       ?GetRangeOfTrysToCheck@__FrameHandler4@@SA?AU?$pair@Viterator@TryBlockMap4@FH4@@V123@@std@@AEAVTryBlockMap4@FH4@@HPEAU_xDISPATCHER_CONTEXT@@PEAUFuncInfo4@5@H@Z 0000000180027f94 f   libvcruntime:risctrnsctrl.obj
 0001:000270fc       ?UnwindNestedFrames@__FrameHandler4@@SAXPEA_KPEAUEHExceptionRecord@@PEAU_CONTEXT@@0PEAXPEAUFuncInfo4@FH4@@HHPEAUHandlerType4@5@PEAU_xDISPATCHER_CONTEXT@@E@Z 00000001800280fc f   libvcruntime:risctrnsctrl.obj
 0001:0002721c       ?setBuffer@TryBlockMap4@FH4@@QEAAXViterator@12@@Z 000000018002821c f i libvcruntime:risctrnsctrl.obj
 0001:000273dc       _CreateFrameInfo           00000001800283dc f   libvcruntime:risctrnsctrl.obj
 0001:00027418       _FindAndUnlinkFrame        0000000180028418 f   libvcruntime:risctrnsctrl.obj
 0001:0002746c       _GetImageBase              000000018002846c f   libvcruntime:risctrnsctrl.obj
 0001:00027480       _GetThrowImageBase         0000000180028480 f   libvcruntime:risctrnsctrl.obj
 0001:00027494       _SetImageBase              0000000180028494 f   libvcruntime:risctrnsctrl.obj
 0001:000274ac       _SetThrowImageBase         00000001800284ac f   libvcruntime:risctrnsctrl.obj
 0001:000274c4       __CxxFrameHandler4         00000001800284c4 f   libvcruntime:risctrnsctrl.obj
 0001:00027584       __C_specific_handler       0000000180028584 f   libvcruntime:riscchandler.obj
 0001:00027790       __vcrt_initialize          0000000180028790 f   libvcruntime:initialization.obj
 0001:000277b8       __vcrt_thread_attach       00000001800287b8 f   libvcruntime:initialization.obj
 0001:000277cc       __vcrt_thread_detach       00000001800287cc f   libvcruntime:initialization.obj
 0001:000277e0       __vcrt_uninitialize        00000001800287e0 f   libvcruntime:initialization.obj
 0001:000277fc       __vcrt_uninitialize_critical 00000001800287fc f   libvcruntime:initialization.obj
 0001:0002780c       __DestructExceptionObject  000000018002880c f   libvcruntime:ehhelpers.obj
 0001:0002787c       ?_CallMemberFunction0@@YAXQEAX0@Z 000000018002887c f i libvcruntime:ehhelpers.obj
 0001:00027880       _IsExceptionObjectToBeDestroyed 0000000180028880 f   libvcruntime:ehhelpers.obj
 0001:000278b0       __AdjustPointer            00000001800288b0 f   libvcruntime:ehhelpers.obj
 0001:000278d4       __FrameUnwindFilter        00000001800288d4 f   libvcruntime:ehhelpers.obj
 0001:00027950       memset_repmovs             0000000180028950 f   libvcruntime:memset.obj
 0001:00027970       memset                     0000000180028970 f   libvcruntime:memset.obj
 0001:00027b00       __std_type_info_compare    0000000180028b00 f   libvcruntime:std_type_info.obj
 0001:00027b28       __std_type_info_destroy_list 0000000180028b28 f   libvcruntime:std_type_info.obj
 0001:00027b54       __vcrt_freefls             0000000180028b54 f   libvcruntime:per_thread_data.obj
 0001:00027b74       __vcrt_freeptd             0000000180028b74 f   libvcruntime:per_thread_data.obj
 0001:00027bc4       __vcrt_getptd              0000000180028bc4 f   libvcruntime:per_thread_data.obj
 0001:00027be0       __vcrt_getptd_noexit       0000000180028be0 f   libvcruntime:per_thread_data.obj
 0001:00027ca0       __vcrt_initialize_ptd      0000000180028ca0 f   libvcruntime:per_thread_data.obj
 0001:00027ce8       __vcrt_uninitialize_ptd    0000000180028ce8 f   libvcruntime:per_thread_data.obj
 0001:00027d0c       ?StateFromControlPc@__FrameHandler4@@SAHPEAUFuncInfo4@FH4@@PEAU_xDISPATCHER_CONTEXT@@@Z 0000000180028d0c f   libvcruntime:ehstate.obj
 0001:00027d14       ?StateFromIp@__FrameHandler4@@SAHPEAUFuncInfo4@FH4@@PEAU_xDISPATCHER_CONTEXT@@_K@Z 0000000180028d14 f   libvcruntime:ehstate.obj
 0001:00028998       ??$TypeMatchHelper@V__FrameHandler3@@@@YAHPEBU_s_HandlerType@@PEBU_s_CatchableType@@PEBU_s_ThrowInfo@@@Z 0000000180029998 f i libvcruntime:frame.obj
 0001:00028ad8       ??$TypeMatchHelper@V__FrameHandler4@@@@YAHPEAUHandlerType4@FH4@@PEBU_s_CatchableType@@PEBU_s_ThrowInfo@@@Z 0000000180029ad8 f i libvcruntime:frame.obj
 0001:00028c1c       ??$__InternalCxxFrameHandler@V__FrameHandler4@@@@YA?AW4_EXCEPTION_DISPOSITION@@PEAUEHExceptionRecord@@PEA_KPEAU_CONTEXT@@PEAU_xDISPATCHER_CONTEXT@@PEAUFuncInfo4@FH4@@H1E@Z 0000000180029c1c f i libvcruntime:frame.obj
 0001:00028eb0       ??0HandlerMap4@FH4@@QEAA@PEBUTryBlockMapEntry4@1@_KH@Z 0000000180029eb0 f i libvcruntime:frame.obj
 0001:00028f2c       ??0TryBlockMap4@FH4@@QEAA@PEBUFuncInfo4@1@_K@Z 0000000180029f2c f i libvcruntime:frame.obj
 0001:00029004       ??0bad_exception@std@@QEAA@AEBV01@@Z 000000018002a004 f i libvcruntime:frame.obj
 0001:00029040       ??0bad_exception@std@@QEAA@XZ 000000018002a040 f i libvcruntime:frame.obj
 0001:00029060       ?CxxCallCatchBlock@__FrameHandler4@@SAPEAXPEAU_EXCEPTION_RECORD@@@Z 000000018002a060 f   libvcruntime:frame.obj
 0001:000292b0       ?DecompHandler@HandlerMap4@FH4@@AEAAXXZ 000000018002a2b0 f i libvcruntime:frame.obj
 0001:000294f0       ?FrameUnwindToState@__FrameHandler4@@SAXPEA_KPEAU_xDISPATCHER_CONTEXT@@PEAUFuncInfo4@FH4@@H@Z 000000018002a4f0 f   libvcruntime:frame.obj
 0001:00029950       ?ReadEntry@UWMap4@FH4@@AEAAXPEAPEAE@Z 000000018002a950 f i libvcruntime:frame.obj
 0001:000299f0       ?_CallMemberFunction1@@YAXQEAX00@Z 000000018002a9f0 f i libvcruntime:frame.obj
 0001:000299fc       ?_CallMemberFunction2@@YAXQEAX00H@Z 000000018002a9fc f i libvcruntime:frame.obj
 0001:00029a0c       ?getStartStop@UWMap4@FH4@@QEAAXHHAEAViterator@12@0@Z 000000018002aa0c f i libvcruntime:frame.obj
 0001:00029adc       ?getStateFromIterators@UWMap4@FH4@@SAHAEBViterator@12@H0H0@Z 000000018002aadc f i libvcruntime:frame.obj
 0001:00029bc0       _NLG_Notify                000000018002abc0 f   libvcruntime:notify.obj
 0001:00029be0       __NLG_Dispatch2            000000018002abe0 f   libvcruntime:notify.obj
 0001:00029bf0       __NLG_Return2              000000018002abf0 f   libvcruntime:notify.obj
 0001:00029bf4       __except_validate_context_record 000000018002abf4 f   libvcruntime:jbcxrval.obj
 0001:00029c2c       __vcrt_initialize_locks    000000018002ac2c f   libvcruntime:locks.obj
 0001:00029c60       __vcrt_uninitialize_locks  000000018002ac60 f   libvcruntime:locks.obj
 0001:00029de4       __vcrt_FlsAlloc            000000018002ade4 f   libvcruntime:winapi_downlevel.obj
 0001:00029e2c       __vcrt_FlsFree             000000018002ae2c f   libvcruntime:winapi_downlevel.obj
 0001:00029e74       __vcrt_FlsGetValue         000000018002ae74 f   libvcruntime:winapi_downlevel.obj
 0001:00029ebc       __vcrt_FlsSetValue         000000018002aebc f   libvcruntime:winapi_downlevel.obj
 0001:00029f10       __vcrt_InitializeCriticalSectionEx 000000018002af10 f   libvcruntime:winapi_downlevel.obj
 0001:00029f90       _CallSettingFrame          000000018002af90 f   libvcruntime:handlers.obj
 0001:00029fe0       _CallSettingFrame_LookupContinuationIndex 000000018002afe0 f   libvcruntime:handlers.obj
 0001:0002a010       _CallSettingFrame_NotifyContinuationAddr 000000018002b010 f   libvcruntime:handlers.obj
 0001:0002a040       _CallSettingFrameEncoded   000000018002b040 f   libvcruntime:handlers.obj
 0001:0002a0a0       memcpy_repmovs             000000018002b0a0 f   libvcruntime:memcpy.obj
 0001:0002a0c0       memcpy                     000000018002b0c0 f   libvcruntime:memcpy.obj
 0001:0002a0c0       memmove                    000000018002b0c0 f   libvcruntime:memcpy.obj
 0001:0002a498       calloc                     000000018002b498 f   libucrt:calloc.obj
 0001:0002a4a0       realloc                    000000018002b4a0 f   libucrt:realloc.obj
 0001:0002abc0       ??$ftprintf@PEAU_iobuf@@PEB_WAEBQEB_WAEBQEB_WAEBI@?$__crt_char_traits@_W@@SAH$$QEAPEAU_iobuf@@$$QEAPEB_WAEBQEB_W2AEBI@Z 000000018002bbc0 f i libucrt:assert.obj
 0001:0002abe8       _wassert                   000000018002bbe8 f   libucrt:assert.obj
 0001:0002ac5c       fwprintf                   000000018002bc5c f i libucrt:assert.obj
 0001:0002aca0       swprintf                   000000018002bca0 f i libucrt:assert.obj
 0001:0002acf4       __acrt_call_reportfault    000000018002bcf4 f   libucrt:invalid_parameter.obj
 0001:0002ae50       __acrt_initialize_invalid_parameter_handler 000000018002be50 f   libucrt:invalid_parameter.obj
 0001:0002ae58       _invalid_parameter         000000018002be58 f   libucrt:invalid_parameter.obj
 0001:0002af08       _invalid_parameter_noinfo  000000018002bf08 f   libucrt:invalid_parameter.obj
 0001:0002af28       _invalid_parameter_noinfo_noreturn 000000018002bf28 f   libucrt:invalid_parameter.obj
 0001:0002af58       _invoke_watson             000000018002bf58 f   libucrt:invalid_parameter.obj
 0001:0002afa0       __acrt_initialize_stdio    000000018002bfa0 f   libucrt:_file.obj
 0001:0002b0c0       __acrt_iob_func            000000018002c0c0 f   libucrt:_file.obj
 0001:0002b0d4       __acrt_uninitialize_stdio  000000018002c0d4 f   libucrt:_file.obj
 0001:0002b130       _lock_file                 000000018002c130 f   libucrt:_file.obj
 0001:0002b13c       _unlock_file               000000018002c13c f   libucrt:_file.obj
 0001:0002b39c       ??$ensure_buffer_is_big_enough@D@formatting_buffer@__crt_stdio_output@@QEAA_N_K@Z 000000018002c39c f i libucrt:output.obj
 0001:0002b444       ??$ensure_buffer_is_big_enough@_W@formatting_buffer@__crt_stdio_output@@QEAA_N_K@Z 000000018002c444 f i libucrt:output.obj
 0001:0002b4f0       ??$is_wide_character_specifier@_W@__crt_stdio_output@@YA_N_K_WW4length_modifier@0@@Z 000000018002c4f0 f i libucrt:output.obj
 0001:0002b530       ??$type_case_integer_parse_into_buffer@I@?$output_processor@DV?$stream_output_adapter@D@__crt_stdio_output@@V?$standard_base@DV?$stream_output_adapter@D@__crt_stdio_output@@@2@@__crt_stdio_output@@AEAAXII_N@Z 000000018002c530 f i libucrt:output.obj
 0001:0002b5b8       ??$type_case_integer_parse_into_buffer@I@?$output_processor@_WV?$stream_output_adapter@_W@__crt_stdio_output@@V?$standard_base@_WV?$stream_output_adapter@_W@__crt_stdio_output@@@2@@__crt_stdio_output@@AEAAXII_N@Z 000000018002c5b8 f i libucrt:output.obj
 0001:0002b5b8       ??$type_case_integer_parse_into_buffer@I@?$output_processor@_WV?$string_output_adapter@_W@__crt_stdio_output@@V?$standard_base@_WV?$string_output_adapter@_W@__crt_stdio_output@@@2@@__crt_stdio_output@@AEAAXII_N@Z 000000018002c5b8 f i libucrt:output.obj
 0001:0002b65c       ??$type_case_integer_parse_into_buffer@_K@?$output_processor@DV?$stream_output_adapter@D@__crt_stdio_output@@V?$standard_base@DV?$stream_output_adapter@D@__crt_stdio_output@@@2@@__crt_stdio_output@@AEAAX_KI_N@Z 000000018002c65c f i libucrt:output.obj
 0001:0002b6ec       ??$type_case_integer_parse_into_buffer@_K@?$output_processor@_WV?$stream_output_adapter@_W@__crt_stdio_output@@V?$standard_base@_WV?$stream_output_adapter@_W@__crt_stdio_output@@@2@@__crt_stdio_output@@AEAAX_KI_N@Z 000000018002c6ec f i libucrt:output.obj
 0001:0002b6ec       ??$type_case_integer_parse_into_buffer@_K@?$output_processor@_WV?$string_output_adapter@_W@__crt_stdio_output@@V?$standard_base@_WV?$string_output_adapter@_W@__crt_stdio_output@@@2@@__crt_stdio_output@@AEAAX_KI_N@Z 000000018002c6ec f i libucrt:output.obj
 0001:0002b790       ??$write_multiple_characters@V?$stream_output_adapter@D@__crt_stdio_output@@D@__crt_stdio_output@@YAXAEBV?$stream_output_adapter@D@0@DHQEAH@Z 000000018002c790 f i libucrt:output.obj
 0001:0002b81c       ??$write_multiple_characters@V?$stream_output_adapter@_W@__crt_stdio_output@@D@__crt_stdio_output@@YAXAEBV?$stream_output_adapter@_W@0@DHQEAH@Z 000000018002c81c f i libucrt:output.obj
 0001:0002b8b0       ??$write_multiple_characters@V?$string_output_adapter@_W@__crt_stdio_output@@D@__crt_stdio_output@@YAXAEBV?$string_output_adapter@_W@0@DHQEAH@Z 000000018002c8b0 f i libucrt:output.obj
 0001:0002b92c       ??0_LocaleUpdate@@QEAA@QEAU__crt_locale_pointers@@@Z 000000018002c92c f i libucrt:output.obj
 0001:0002bc2c       ?crop_zeroes@__crt_stdio_output@@YAXPEADQEAU__crt_locale_pointers@@@Z 000000018002cc2c f i libucrt:output.obj
 0001:0002bc98       ?parse_int_from_format_string@?$output_processor@DV?$stream_output_adapter@D@__crt_stdio_output@@V?$standard_base@DV?$stream_output_adapter@D@__crt_stdio_output@@@2@@__crt_stdio_output@@AEAA_NQEAH@Z 000000018002cc98 f i libucrt:output.obj
 0001:0002bd3c       ?parse_int_from_format_string@?$output_processor@_WV?$string_output_adapter@_W@__crt_stdio_output@@V?$standard_base@_WV?$string_output_adapter@_W@__crt_stdio_output@@@2@@__crt_stdio_output@@AEAA_NQEAH@Z 000000018002cd3c f i libucrt:output.obj
 0001:0002bd3c       ?parse_int_from_format_string@?$output_processor@_WV?$stream_output_adapter@_W@__crt_stdio_output@@V?$standard_base@_WV?$stream_output_adapter@_W@__crt_stdio_output@@@2@@__crt_stdio_output@@AEAA_NQEAH@Z 000000018002cd3c f i libucrt:output.obj
 0001:0002bde0       ?process@?$output_processor@DV?$stream_output_adapter@D@__crt_stdio_output@@V?$standard_base@DV?$stream_output_adapter@D@__crt_stdio_output@@@2@@__crt_stdio_output@@QEAAHXZ 000000018002cde0 f i libucrt:output.obj
 0001:0002bff8       ?process@?$output_processor@_WV?$stream_output_adapter@_W@__crt_stdio_output@@V?$standard_base@_WV?$stream_output_adapter@_W@__crt_stdio_output@@@2@@__crt_stdio_output@@QEAAHXZ 000000018002cff8 f i libucrt:output.obj
 0001:0002c264       ?process@?$output_processor@_WV?$string_output_adapter@_W@__crt_stdio_output@@V?$standard_base@_WV?$string_output_adapter@_W@__crt_stdio_output@@@2@@__crt_stdio_output@@QEAAHXZ 000000018002d264 f i libucrt:output.obj
 0001:0002c4e0       ?state_case_normal@?$output_processor@DV?$stream_output_adapter@D@__crt_stdio_output@@V?$standard_base@DV?$stream_output_adapter@D@__crt_stdio_output@@@2@@__crt_stdio_output@@AEAA_NXZ 000000018002d4e0 f i libucrt:output.obj
 0001:0002c550       ?state_case_normal_tchar@?$output_processor@DV?$stream_output_adapter@D@__crt_stdio_output@@V?$standard_base@DV?$stream_output_adapter@D@__crt_stdio_output@@@2@@__crt_stdio_output@@AEAA_ND@Z 000000018002d550 f i libucrt:output.obj
 0001:0002c5f4       ?state_case_size@?$output_processor@DV?$stream_output_adapter@D@__crt_stdio_output@@V?$standard_base@DV?$stream_output_adapter@D@__crt_stdio_output@@@2@@__crt_stdio_output@@AEAA_NXZ 000000018002d5f4 f i libucrt:output.obj
 0001:0002c768       ?state_case_size@?$output_processor@_WV?$stream_output_adapter@_W@__crt_stdio_output@@V?$standard_base@_WV?$stream_output_adapter@_W@__crt_stdio_output@@@2@@__crt_stdio_output@@AEAA_NXZ 000000018002d768 f i libucrt:output.obj
 0001:0002c900       ?state_case_size@?$output_processor@_WV?$string_output_adapter@_W@__crt_stdio_output@@V?$standard_base@_WV?$string_output_adapter@_W@__crt_stdio_output@@@2@@__crt_stdio_output@@AEAA_NXZ 000000018002d900 f i libucrt:output.obj
 0001:0002ca98       ?state_case_type@?$output_processor@DV?$stream_output_adapter@D@__crt_stdio_output@@V?$standard_base@DV?$stream_output_adapter@D@__crt_stdio_output@@@2@@__crt_stdio_output@@AEAA_NXZ 000000018002da98 f i libucrt:output.obj
 0001:0002cd1c       ?state_case_type@?$output_processor@_WV?$stream_output_adapter@_W@__crt_stdio_output@@V?$standard_base@_WV?$stream_output_adapter@_W@__crt_stdio_output@@@2@@__crt_stdio_output@@AEAA_NXZ 000000018002dd1c f i libucrt:output.obj
 0001:0002cffc       ?state_case_type@?$output_processor@_WV?$string_output_adapter@_W@__crt_stdio_output@@V?$standard_base@_WV?$string_output_adapter@_W@__crt_stdio_output@@@2@@__crt_stdio_output@@AEAA_NXZ 000000018002dffc f i libucrt:output.obj
 0001:0002d2c8       ?type_case_Z@?$output_processor@DV?$stream_output_adapter@D@__crt_stdio_output@@V?$standard_base@DV?$stream_output_adapter@D@__crt_stdio_output@@@2@@__crt_stdio_output@@AEAA_NXZ 000000018002e2c8 f i libucrt:output.obj
 0001:0002d33c       ?type_case_Z@?$output_processor@_WV?$string_output_adapter@_W@__crt_stdio_output@@V?$standard_base@_WV?$string_output_adapter@_W@__crt_stdio_output@@@2@@__crt_stdio_output@@AEAA_NXZ 000000018002e33c f i libucrt:output.obj
 0001:0002d33c       ?type_case_Z@?$output_processor@_WV?$stream_output_adapter@_W@__crt_stdio_output@@V?$standard_base@_WV?$stream_output_adapter@_W@__crt_stdio_output@@@2@@__crt_stdio_output@@AEAA_NXZ 000000018002e33c f i libucrt:output.obj
 0001:0002d3b8       ?type_case_a@?$output_processor@DV?$stream_output_adapter@D@__crt_stdio_output@@V?$standard_base@DV?$stream_output_adapter@D@__crt_stdio_output@@@2@@__crt_stdio_output@@AEAA_NXZ 000000018002e3b8 f i libucrt:output.obj
 0001:0002d5d0       ?type_case_a@?$output_processor@_WV?$stream_output_adapter@_W@__crt_stdio_output@@V?$standard_base@_WV?$stream_output_adapter@_W@__crt_stdio_output@@@2@@__crt_stdio_output@@AEAA_NXZ 000000018002e5d0 f i libucrt:output.obj
 0001:0002d5d0       ?type_case_a@?$output_processor@_WV?$string_output_adapter@_W@__crt_stdio_output@@V?$standard_base@_WV?$string_output_adapter@_W@__crt_stdio_output@@@2@@__crt_stdio_output@@AEAA_NXZ 000000018002e5d0 f i libucrt:output.obj
 0001:0002d80c       ?type_case_c_tchar@?$output_processor@DV?$stream_output_adapter@D@__crt_stdio_output@@V?$standard_base@DV?$stream_output_adapter@D@__crt_stdio_output@@@2@@__crt_stdio_output@@AEAA_ND@Z 000000018002e80c f i libucrt:output.obj
 0001:0002d8c8       ?type_case_c_tchar@?$output_processor@_WV?$string_output_adapter@_W@__crt_stdio_output@@V?$standard_base@_WV?$string_output_adapter@_W@__crt_stdio_output@@@2@@__crt_stdio_output@@AEAA_N_W@Z 000000018002e8c8 f i libucrt:output.obj
 0001:0002d8c8       ?type_case_c_tchar@?$output_processor@_WV?$stream_output_adapter@_W@__crt_stdio_output@@V?$standard_base@_WV?$stream_output_adapter@_W@__crt_stdio_output@@@2@@__crt_stdio_output@@AEAA_N_W@Z 000000018002e8c8 f i libucrt:output.obj
 0001:0002d970       ?type_case_integer@?$output_processor@DV?$stream_output_adapter@D@__crt_stdio_output@@V?$standard_base@DV?$stream_output_adapter@D@__crt_stdio_output@@@2@@__crt_stdio_output@@AEAA_NI_N@Z 000000018002e970 f i libucrt:output.obj
 0001:0002db38       ?type_case_integer@?$output_processor@_WV?$stream_output_adapter@_W@__crt_stdio_output@@V?$standard_base@_WV?$stream_output_adapter@_W@__crt_stdio_output@@@2@@__crt_stdio_output@@AEAA_NI_N@Z 000000018002eb38 f i libucrt:output.obj
 0001:0002db38       ?type_case_integer@?$output_processor@_WV?$string_output_adapter@_W@__crt_stdio_output@@V?$standard_base@_WV?$string_output_adapter@_W@__crt_stdio_output@@@2@@__crt_stdio_output@@AEAA_NI_N@Z 000000018002eb38 f i libucrt:output.obj
 0001:0002dd04       ?type_case_n@?$output_processor@_WV?$stream_output_adapter@_W@__crt_stdio_output@@V?$standard_base@_WV?$stream_output_adapter@_W@__crt_stdio_output@@@2@@__crt_stdio_output@@AEAA_NXZ 000000018002ed04 f i libucrt:output.obj
 0001:0002dd04       ?type_case_n@?$output_processor@DV?$stream_output_adapter@D@__crt_stdio_output@@V?$standard_base@DV?$stream_output_adapter@D@__crt_stdio_output@@@2@@__crt_stdio_output@@AEAA_NXZ 000000018002ed04 f i libucrt:output.obj
 0001:0002dd04       ?type_case_n@?$output_processor@_WV?$string_output_adapter@_W@__crt_stdio_output@@V?$standard_base@_WV?$string_output_adapter@_W@__crt_stdio_output@@@2@@__crt_stdio_output@@AEAA_NXZ 000000018002ed04 f i libucrt:output.obj
 0001:0002dde0       ?type_case_s@?$output_processor@DV?$stream_output_adapter@D@__crt_stdio_output@@V?$standard_base@DV?$stream_output_adapter@D@__crt_stdio_output@@@2@@__crt_stdio_output@@AEAA_NXZ 000000018002ede0 f i libucrt:output.obj
 0001:0002de78       ?type_case_s@?$output_processor@_WV?$string_output_adapter@_W@__crt_stdio_output@@V?$standard_base@_WV?$string_output_adapter@_W@__crt_stdio_output@@@2@@__crt_stdio_output@@AEAA_NXZ 000000018002ee78 f i libucrt:output.obj
 0001:0002de78       ?type_case_s@?$output_processor@_WV?$stream_output_adapter@_W@__crt_stdio_output@@V?$standard_base@_WV?$stream_output_adapter@_W@__crt_stdio_output@@@2@@__crt_stdio_output@@AEAA_NXZ 000000018002ee78 f i libucrt:output.obj
 0001:0002df40       ?validate_stream_is_ansi_if_required@?$__acrt_stdio_char_traits@D@@SA_NQEAU_iobuf@@@Z 000000018002ef40 f i libucrt:output.obj
 0001:0002dfdc       ?write_stored_string_tchar@?$output_processor@DV?$stream_output_adapter@D@__crt_stdio_output@@V?$standard_base@DV?$stream_output_adapter@D@__crt_stdio_output@@@2@@__crt_stdio_output@@AEAA_ND@Z 000000018002efdc f i libucrt:output.obj
 0001:0002e100       ?write_stored_string_tchar@?$output_processor@_WV?$stream_output_adapter@_W@__crt_stdio_output@@V?$standard_base@_WV?$stream_output_adapter@_W@__crt_stdio_output@@@2@@__crt_stdio_output@@AEAA_N_W@Z 000000018002f100 f i libucrt:output.obj
 0001:0002e208       ?write_stored_string_tchar@?$output_processor@_WV?$string_output_adapter@_W@__crt_stdio_output@@V?$standard_base@_WV?$string_output_adapter@_W@__crt_stdio_output@@@2@@__crt_stdio_output@@AEAA_N_W@Z 000000018002f208 f i libucrt:output.obj
 0001:0002e2f4       ?write_string@?$string_output_adapter@_W@__crt_stdio_output@@QEBAXQEB_WHQEAHAEAV__crt_deferred_errno_cache@@@Z 000000018002f2f4 f i libucrt:output.obj
 0001:0002e39c       ?write_string_impl@?$output_adapter_common@DV?$stream_output_adapter@D@__crt_stdio_output@@@__crt_stdio_output@@IEBAXQEBDHQEAHAEAV__crt_deferred_errno_cache@@@Z 000000018002f39c f i libucrt:output.obj
 0001:0002e494       ?write_string_impl@?$output_adapter_common@_WV?$stream_output_adapter@_W@__crt_stdio_output@@@__crt_stdio_output@@IEBAXQEB_WHQEAHAEAV__crt_deferred_errno_cache@@@Z 000000018002f494 f i libucrt:output.obj
 0001:0002e598       __stdio_common_vfprintf    000000018002f598 f   libucrt:output.obj
 0001:0002e624       __stdio_common_vfwprintf   000000018002f624 f   libucrt:output.obj
 0001:0002e6b0       __stdio_common_vswprintf   000000018002f6b0 f   libucrt:output.obj
 0001:0002e6b8       log2                       000000018002f6b8 f   libucrt:log2.obj
 0001:0002e9e0       free                       000000018002f9e0 f   libucrt:free.obj
 0001:0002e9f4       malloc                     000000018002f9f4 f   libucrt:malloc.obj
 0001:0002e9fc       __ascii_stricmp            000000018002f9fc f   libucrt:stricmp.obj
 0001:0002ea38       _stricmp                   000000018002fa38 f   libucrt:stricmp.obj
 0001:0002ea80       _stricmp_l                 000000018002fa80 f   libucrt:stricmp.obj
 0001:0002eb08       __acrt_initialize_new_handler 000000018002fb08 f   libucrt:new_handler.obj
 0001:0002eb10       _callnewh                  000000018002fb10 f   libucrt:new_handler.obj
 0001:0002eb40       _query_new_handler         000000018002fb40 f   libucrt:new_handler.obj
 0001:0002eb74       _initterm                  000000018002fb74 f   libucrt:initterm.obj
 0001:0002ebd8       _initterm_e                000000018002fbd8 f   libucrt:initterm.obj
 0001:0002ec18       _seh_filter_dll            000000018002fc18 f   libucrt:exception_filter.obj
 0001:0002ec2c       _seh_filter_exe            000000018002fc2c f   libucrt:exception_filter.obj
 0001:0002f01c       __acrt_initialize_thread_local_exit_callback 000000018003001c f   libucrt:exit.obj
 0001:0002f024       _cexit                     0000000180030024 f   libucrt:exit.obj
 0001:0002f034       _exit                      0000000180030034 f   libucrt:exit.obj
 0001:0002f040       _is_c_termination_complete 0000000180030040 f   libucrt:exit.obj
 0001:0002f20c       __acrt_allocate_buffer_for_argv 000000018003020c f   libucrt:argv_parsing.obj
 0001:0002f26c       _configure_narrow_argv     000000018003026c f   libucrt:argv_parsing.obj
 0001:0002f5e4       __dcrt_uninitialize_environments_nolock 00000001800305e4 f   libucrt:environment_initialization.obj
 0001:0002f61c       _initialize_narrow_environment 000000018003061c f   libucrt:environment_initialization.obj
 0001:0002f964       _crt_atexit                0000000180030964 f   libucrt:onexit.obj
 0001:0002f974       _execute_onexit_table      0000000180030974 f   libucrt:onexit.obj
 0001:0002f9b0       _initialize_onexit_table   00000001800309b0 f   libucrt:onexit.obj
 0001:0002f9d8       _register_onexit_function  00000001800309d8 f   libucrt:onexit.obj
 0001:0002fa58       __acrt_uninitialize_command_line 0000000180030a58 f   libucrt:argv_data.obj
 0001:0002fb50       __acrt_initialize          0000000180030b50 f   libucrt:initialization.obj
 0001:0002fb64       __acrt_thread_attach       0000000180030b64 f   libucrt:initialization.obj
 0001:0002fb78       __acrt_thread_detach       0000000180030b78 f   libucrt:initialization.obj
 0001:0002fb88       __acrt_uninitialize        0000000180030b88 f   libucrt:initialization.obj
 0001:0002fbc0       __acrt_uninitialize_critical 0000000180030bc0 f   libucrt:initialization.obj
 0001:0002fbd0       terminate                  0000000180030bd0 f   libucrt:terminate.obj
 0001:0002fbf0       abort                      0000000180030bf0 f   libucrt:abort.obj
 0001:0002fc48       strcpy_s                   0000000180030c48 f   libucrt:strcpy_s.obj
 0001:0002fca8       ??$parse_integer@KV?$c_string_character_source@D@__crt_strtox@@@__crt_strtox@@YAKQEAU__crt_locale_pointers@@V?$c_string_character_source@D@0@H_N@Z 0000000180030ca8 f i libucrt:atox.obj
 0001:0002ffb0       ??$parse_integer@KV?$c_string_character_source@_W@__crt_strtox@@@__crt_strtox@@YAKQEAU__crt_locale_pointers@@V?$c_string_character_source@_W@0@H_N@Z 0000000180030fb0 f i libucrt:atox.obj
 0001:00030658       _ischartype_l              0000000180031658 f i libucrt:atox.obj
 0001:000306e0       strncmp                    00000001800316e0 f   libucrt:strncmp.obj
 0001:00030760       wcsncmp                    0000000180031760 f   libucrt:wcsncmp.obj
 0001:0003078c       _calloc_base               000000018003178c f   libucrt:calloc_base.obj
 0001:00030804       _realloc_base              0000000180031804 f   libucrt:realloc_base.obj
 0001:00030880       _query_app_type            0000000180031880 f   libucrt:report_runtime_error.obj
 0001:00030888       __acrt_errno_from_os_error 0000000180031888 f   libucrt:errno.obj
 0001:000308d0       __acrt_errno_map_os_error  00000001800318d0 f   libucrt:errno.obj
 0001:00030920       __doserrno                 0000000180031920 f   libucrt:errno.obj
 0001:00030940       _errno                     0000000180031940 f   libucrt:errno.obj
 0001:00030aa0       _itow_s                    0000000180031aa0 f   libucrt:xtoa.obj
 0001:00030ac0       _set_error_mode            0000000180031ac0 f   libucrt:set_error_mode.obj
 0001:00030b00       wcscat_s                   0000000180031b00 f   libucrt:wcscat_s.obj
 0001:00030b80       wcscpy_s                   0000000180031b80 f   libucrt:wcscpy_s.obj
 0001:00030be8       wcsncat_s                  0000000180031be8 f   libucrt:wcsncat_s.obj
 0001:00030ce8       ??$__acrt_wcs_to_mbs_cp@U__crt_win32_buffer_no_resizing@@@@YAHQEB_WAEAV?$__crt_win32_buffer@DU__crt_win32_buffer_no_resizing@@@@I@Z 0000000180031ce8 f i libucrt:getmodulefilenamea.obj
 0001:00030dfc       __acrt_GetModuleFileNameA  0000000180031dfc f   libucrt:getmodulefilenamea.obj
 0001:00030f1c       __acrt_show_wide_message_box 0000000180031f1c f   libucrt:crtmbox.obj
 0001:000311dc       __acrt_stdio_flush_nolock  00000001800321dc f   libucrt:fflush.obj
 0001:00031258       _fflush_nolock             0000000180032258 f   libucrt:fflush.obj
 0001:000312a4       _flushall                  00000001800322a4 f   libucrt:fflush.obj
 0001:000312ac       fflush                     00000001800322ac f   libucrt:fflush.obj
 0001:00031434       setvbuf                    0000000180032434 f   libucrt:setvbuf.obj
 0001:00031518       __acrt_get_sigabrt_handler 0000000180032518 f   libucrt:signal.obj
 0001:00031548       __acrt_initialize_signal_handlers 0000000180032548 f   libucrt:signal.obj
 0001:00031568       raise                      0000000180032568 f   libucrt:signal.obj
 0001:00031b4c       __acrt_freeptd             0000000180032b4c f   libucrt:per_thread_data.obj
 0001:00031b90       __acrt_getptd              0000000180032b90 f   libucrt:per_thread_data.obj
 0001:00031c64       __acrt_getptd_head         0000000180032c64 f   libucrt:per_thread_data.obj
 0001:00031d0c       __acrt_getptd_noexit       0000000180032d0c f   libucrt:per_thread_data.obj
 0001:00031dd8       __acrt_initialize_ptd      0000000180032dd8 f   libucrt:per_thread_data.obj
 0001:00031e14       __acrt_uninitialize_ptd    0000000180032e14 f   libucrt:per_thread_data.obj
 0001:00031e38       _free_base                 0000000180032e38 f   libucrt:free_base.obj
 0001:00032050       __acrt_AppPolicyGetProcessTerminationMethodInternal 0000000180033050 f   libucrt:winapi_thunks.obj
 0001:000320a0       __acrt_AppPolicyGetShowDeveloperDiagnosticInternal 00000001800330a0 f   libucrt:winapi_thunks.obj
 0001:000320f0       __acrt_AppPolicyGetWindowingModelInternal 00000001800330f0 f   libucrt:winapi_thunks.obj
 0001:00032140       __acrt_AreFileApisANSI     0000000180033140 f   libucrt:winapi_thunks.obj
 0001:0003217c       __acrt_FlsAlloc            000000018003317c f   libucrt:winapi_thunks.obj
 0001:000321c4       __acrt_FlsFree             00000001800331c4 f   libucrt:winapi_thunks.obj
 0001:0003220c       __acrt_FlsGetValue         000000018003320c f   libucrt:winapi_thunks.obj
 0001:00032254       __acrt_FlsSetValue         0000000180033254 f   libucrt:winapi_thunks.obj
 0001:000322a8       __acrt_InitializeCriticalSectionEx 00000001800332a8 f   libucrt:winapi_thunks.obj
 0001:0003230c       __acrt_LCMapStringEx       000000018003330c f   libucrt:winapi_thunks.obj
 0001:000323e8       __acrt_LocaleNameToLCID    00000001800333e8 f   libucrt:winapi_thunks.obj
 0001:00032438       __acrt_MessageBoxW         0000000180033438 f   libucrt:winapi_thunks.obj
 0001:000324ac       __acrt_can_show_message_box 00000001800334ac f   libucrt:winapi_thunks.obj
 0001:0003251c       __acrt_get_parent_window   000000018003351c f   libucrt:winapi_thunks.obj
 0001:00032594       __acrt_initialize_winapi_thunks 0000000180033594 f   libucrt:winapi_thunks.obj
 0001:000325c8       __acrt_is_interactive      00000001800335c8 f   libucrt:winapi_thunks.obj
 0001:00032690       __acrt_uninitialize_winapi_thunks 0000000180033690 f   libucrt:winapi_thunks.obj
 0001:000326d4       _fcloseall                 00000001800336d4 f   libucrt:closeall.obj
 0001:00032788       __acrt_stdio_free_buffer_nolock 0000000180033788 f   libucrt:_freebuf.obj
 0001:000329c4       __acrt_initialize_lowio    00000001800339c4 f   libucrt:ioinit.obj
 0001:00032a00       __acrt_uninitialize_lowio  0000000180033a00 f   libucrt:ioinit.obj
 0001:00032a40       _malloc_base               0000000180033a40 f   libucrt:malloc_base.obj
 0001:00032aa0       strtol                     0000000180033aa0 f   libucrt:strtox.obj
 0001:00032acc       wcstol                     0000000180033acc f   libucrt:strtox.obj
 0001:00032af8       _mbtowc_l                  0000000180033af8 f   libucrt:mbtowc.obj
 0001:00032c78       mbtowc                     0000000180033c78 f   libucrt:mbtowc.obj
 0001:00032c80       _wctomb_s_l                0000000180033c80 f   libucrt:wctomb.obj
 0001:00032e1c       wctomb_s                   0000000180033e1c f   libucrt:wctomb.obj
 0001:00032e30       strnlen                    0000000180033e30 f   libucrt:strnlen.obj
 0001:00032f80       wcsnlen                    0000000180033f80 f   libucrt:strnlen.obj
 0001:00033158       __acrt_update_locale_info  0000000180034158 f   libucrt:locale_update.obj
 0001:0003318c       __acrt_update_multibyte_info 000000018003418c f   libucrt:locale_update.obj
 0001:00033a58       __acrt_fp_format           0000000180034a58 f   libucrt:cvt.obj
 0001:00033d5c       _fputwc_nolock             0000000180034d5c f   libucrt:fputwc.obj
 0001:00033ed8       _fileno                    0000000180034ed8 f   libucrt:fileno.obj
 0001:00033f00       _fputc_nolock              0000000180034f00 f   libucrt:fputc.obj
 0001:00033f18       _get_printf_count_output   0000000180034f18 f   libucrt:printf_count_output.obj
 0001:00033f30       __acrt_stdio_begin_temporary_buffering_nolock 0000000180034f30 f   libucrt:_sftbuf.obj
 0001:00034000       __acrt_stdio_end_temporary_buffering_nolock 0000000180035000 f   libucrt:_sftbuf.obj
 0001:000340ac       __acrt_set_locale_changed  00000001800350ac f   libucrt:wsetlocale.obj
 0001:000340b8       __acrt_uninitialize_locale 00000001800350b8 f   libucrt:wsetlocale.obj
 0001:0003420c       _handle_error              000000018003520c f   libucrt:libm_error.obj
 0001:00034334       _handle_nan                0000000180035334 f   libucrt:libm_error.obj
 0001:00034350       _handle_nanf               0000000180035350 f   libucrt:libm_error.obj
 0001:00034bc0       _write                     0000000180035bc0 f   libucrt:write.obj
 0001:00034cac       _write_nolock              0000000180035cac f   libucrt:write.obj
 0001:000351d0       __acrt_stdio_flush_and_write_narrow_nolock 00000001800361d0 f   libucrt:_flsbuf.obj
 0001:000352bc       __acrt_stdio_flush_and_write_wide_nolock 00000001800362bc f   libucrt:_flsbuf.obj
 0001:000353a8       __acrt_initialize_locks    00000001800363a8 f   libucrt:locks.obj
 0001:000353f0       __acrt_lock                00000001800363f0 f   libucrt:locks.obj
 0001:0003540c       __acrt_uninitialize_locks  000000018003640c f   libucrt:locks.obj
 0001:00035444       __acrt_unlock              0000000180036444 f   libucrt:locks.obj
 0001:00035460       __acrt_get_developer_information_policy 0000000180036460 f   libucrt:win_policies.obj
 0001:000354b4       __acrt_get_process_end_policy 00000001800364b4 f   libucrt:win_policies.obj
 0001:000354f0       __acrt_get_windowing_model_policy 00000001800364f0 f   libucrt:win_policies.obj
 0001:00035570       ??$__acrt_mbs_to_wcs_cp@U__crt_win32_buffer_internal_dynamic_resizing@@@@YAHQEBDAEAV?$__crt_win32_buffer@_WU__crt_win32_buffer_internal_dynamic_resizing@@@@I@Z 0000000180036570 f i libucrt:argv_wildcards.obj
 0001:000356e8       ??$__acrt_wcs_to_mbs_cp@U__crt_win32_buffer_internal_dynamic_resizing@@@@YAHQEB_WAEAV?$__crt_win32_buffer@DU__crt_win32_buffer_internal_dynamic_resizing@@@@I@Z 00000001800366e8 f i libucrt:argv_wildcards.obj
 0001:00035f18       __acrt_expand_narrow_argv_wildcards 0000000180036f18 f   libucrt:argv_wildcards.obj
 0001:0003664c       __acrt_initialize_multibyte 000000018003764c f   libucrt:mbctype.obj
 0001:000366ac       __acrt_update_thread_multibyte_data 00000001800376ac f   libucrt:mbctype.obj
 0001:000366c8       _setmbcp_nolock            00000001800376c8 f   libucrt:mbctype.obj
 0001:000369fc       _ismbblead                 00000001800379fc f   libucrt:ismbbyte.obj
 0001:00036a10       __acrt_initialize_command_line 0000000180037a10 f   libucrt:argv_data.obj
 0001:00036a38       __acrt_MultiByteToWideChar 0000000180037a38 f   libucrt:multibytetowidechar.obj
 0001:00036a94       __acrt_WideCharToMultiByte 0000000180037a94 f   libucrt:widechartomultibyte.obj
 0001:00036b2c       __dcrt_get_narrow_environment_from_os 0000000180037b2c f   libucrt:get_environment_from_os.obj
 0001:00036c30       _recalloc_base             0000000180037c30 f   libucrt:recalloc.obj
 0001:00036cc8       __acrt_initialize_heap     0000000180037cc8 f   libucrt:heap_handle.obj
 0001:00036ce4       __acrt_uninitialize_heap   0000000180037ce4 f   libucrt:heap_handle.obj
 0001:00036cf0       __acrt_execute_initializers 0000000180037cf0 f   libucrt:shared_initialization.obj
 0001:00036d70       __acrt_execute_uninitializers 0000000180037d70 f   libucrt:shared_initialization.obj
 0001:00036dac       __acrt_has_user_matherr    0000000180037dac f   libucrt:matherr.obj
 0001:00036dcc       __acrt_initialize_user_matherr 0000000180037dcc f   libucrt:matherr.obj
 0001:00036dd4       __acrt_invoke_user_matherr 0000000180037dd4 f   libucrt:matherr.obj
 0001:00036e04       __pctype_func              0000000180037e04 f   libucrt:ctype.obj
 0001:00036e34       iswctype                   0000000180037e34 f   libucrt:iswctype.obj
 0001:00036ea4       _isctype_l                 0000000180037ea4 f   libucrt:isctype.obj
 0001:00036fac       _query_new_mode            0000000180037fac f   libucrt:new_mode.obj
 0001:00037040       _commit                    0000000180038040 f   libucrt:commit.obj
 0001:000370d4       __acrt_add_locale_ref      00000001800380d4 f   libucrt:locale_refcounting.obj
 0001:00037160       __acrt_free_locale         0000000180038160 f   libucrt:locale_refcounting.obj
 0001:000372d8       __acrt_locale_add_lc_time_reference 00000001800382d8 f   libucrt:locale_refcounting.obj
 0001:00037300       __acrt_locale_free_lc_time_if_unreferenced 0000000180038300 f   libucrt:locale_refcounting.obj
 0001:00037338       __acrt_locale_release_lc_time_reference 0000000180038338 f   libucrt:locale_refcounting.obj
 0001:00037360       __acrt_release_locale_ref  0000000180038360 f   libucrt:locale_refcounting.obj
 0001:00037408       __acrt_update_thread_locale_data 0000000180038408 f   libucrt:locale_refcounting.obj
 0001:00037474       _updatetlocinfoEx_nolock   0000000180038474 f   libucrt:locale_refcounting.obj
 0001:000374dc       __acrt_DownlevelLocaleNameToLCID 00000001800384dc f   libucrt:lcidtoname_downlevel.obj
 0001:0003758c       _fclose_nolock             000000018003858c f   libucrt:fclose.obj
 0001:00037610       fclose                     0000000180038610 f   libucrt:fclose.obj
 0001:00037674       __acrt_lowio_create_handle_array 0000000180038674 f   libucrt:osfinfo.obj
 0001:0003771c       __acrt_lowio_destroy_handle_array 000000018003871c f   libucrt:osfinfo.obj
 0001:0003776c       __acrt_lowio_ensure_fh_exists 000000018003876c f   libucrt:osfinfo.obj
 0001:00037814       __acrt_lowio_lock_fh       0000000180038814 f   libucrt:osfinfo.obj
 0001:0003783c       __acrt_lowio_unlock_fh     000000018003883c f   libucrt:osfinfo.obj
 0001:00037864       _free_osfhnd               0000000180038864 f   libucrt:osfinfo.obj
 0001:00037920       _get_osfhandle             0000000180038920 f   libucrt:osfinfo.obj
 0001:00037998       _isleadbyte_l              0000000180038998 f i libucrt:_wctype.obj
 0001:000379e4       ?__mbrtowc_utf8@__crt_mbstring@@YA_KPEA_WPEBD_KPEAU_Mbstatet@@@Z 00000001800389e4 f   libucrt:mbrtowc.obj
 0001:00037a20       ?__mbsrtowcs_utf8@__crt_mbstring@@YA_KPEA_WPEAPEBD_KPEAU_Mbstatet@@@Z 0000000180038a20 f   libucrt:mbrtowc.obj
 0001:00037b98       ?__c32rtomb_utf8@__crt_mbstring@@YA_KPEAD_UPEAU_Mbstatet@@@Z 0000000180038b98 f   libucrt:c32rtomb.obj
 0001:00037c4c       __acrt_fp_strflt_to_string 0000000180038c4c f   libucrt:_fptostr.obj
 0001:00037d30       ?divide@__crt_strtox@@YA_KAEAUbig_integer@1@AEBU21@@Z 0000000180038d30 f i libucrt:cfout.obj
 0001:0003815c       __acrt_fltout              000000018003915c f   libucrt:cfout.obj
 0001:00039418       _isatty                    000000018003a418 f   libucrt:isatty.obj
 0001:00039478       __acrt_locale_free_monetary 000000018003a478 f   libucrt:initmon.obj
 0001:00039584       __acrt_locale_free_numeric 000000018003a584 f   libucrt:initnum.obj
 0001:00039648       __acrt_locale_free_time    000000018003a648 f   libucrt:inittime.obj
 0001:00039750       __acrt_GetStringTypeA      000000018003a750 f   libucrt:getstringtypea.obj
 0001:000398e0       _raise_exc                 000000018003a8e0 f   libucrt:fpexcept.obj
 0001:00039908       _raise_exc_ex              000000018003a908 f   libucrt:fpexcept.obj
 0001:00039c18       _set_errno_from_matherr    000000018003ac18 f   libucrt:fpexcept.obj
 0001:00039c48       _clrfp                     000000018003ac48 f   libucrt:fpctrl.obj
 0001:00039c68       _ctrlfp                    000000018003ac68 f   libucrt:fpctrl.obj
 0001:00039ce4       _set_statfp                000000018003ace4 f   libucrt:fpctrl.obj
 0001:00039d04       _statfp                    000000018003ad04 f   libucrt:fpctrl.obj
 0001:00039ea4       _lseeki64                  000000018003aea4 f   libucrt:lseek.obj
 0001:00039eac       _lseeki64_nolock           000000018003aeac f   libucrt:lseek.obj
 0001:00039eb4       _putwch_nolock             000000018003aeb4 f   libucrt:putwch.obj
 0001:00039ef0       __acrt_stdio_allocate_buffer_nolock 000000018003aef0 f   libucrt:_getbuf.obj
 0001:00039f60       qsort                      000000018003af60 f   libucrt:qsort.obj
 0001:0003a310       strncpy_s                  000000018003b310 f   libucrt:strncpy_s.obj
 0001:0003a490       strpbrk                    000000018003b490 f   libucrt:strpbrk.obj
 0001:0003a870       _mbsdec                    000000018003b870 f   libucrt:mbsdec.obj
 0001:0003a878       _mbsdec_l                  000000018003b878 f   libucrt:mbsdec.obj
 0001:0003ac24       __acrt_LCMapStringA        000000018003bc24 f   libucrt:lcmapstringa.obj
 0001:0003acd4       _msize_base                000000018003bcd4 f   libucrt:msize.obj
 0001:0003ad10       __acrt_GetStringTypeW      000000018003bd10 f   libucrt:getstringtypew.obj
 0001:0003ad18       __ascii_wcsnicmp           000000018003bd18 f   libucrt:wcsnicmp.obj
 0001:0003add8       _close                     000000018003bdd8 f   libucrt:close.obj
 0001:0003ae7c       _close_nolock              000000018003be7c f   libucrt:close.obj
 0001:0003af3c       ?__acrt_stdio_free_stream@@YAXV__crt_stdio_stream@@@Z 000000018003bf3c f   libucrt:stream.obj
 0001:0003af58       ?__mbrtoc32_utf8@__crt_mbstring@@YA_KPEA_UPEBD_KPEAU_Mbstatet@@@Z 000000018003bf58 f   libucrt:mbrtoc32.obj
 0001:0003b134       fegetenv                   000000018003c134 f   libucrt:fegetenv.obj
 0001:0003b154       fesetenv                   000000018003c154 f   libucrt:fesetenv.obj
 0001:0003b1a0       feholdexcept               000000018003c1a0 f   libucrt:feholdexcept.obj
 0001:0003b1f0       ceil                       000000018003c1f0 f   libucrt:ceil.obj
 0001:0003b2c0       log10                      000000018003c2c0 f   libucrt:log10.obj
 0001:0003b880       _get_fpsr                  000000018003c880 f   libucrt:fpsr.obj
 0001:0003b890       _set_fpsr                  000000018003c890 f   libucrt:fpsr.obj
 0001:0003b89a       _fclrf                     000000018003c89a f   libucrt:fpsr.obj
 0001:0003b8ae       _frnd                      000000018003c8ae f   libucrt:fpsr.obj
 0001:0003b8d0       __dcrt_lowio_ensure_console_output_initialized 000000018003c8d0 f   libucrt:initcon.obj
 0001:0003b924       __dcrt_terminate_console_output 000000018003c924 f   libucrt:initcon.obj
 0001:0003b940       __dcrt_write_console       000000018003c940 f   libucrt:initcon.obj
 0001:0003ba00       __strncnt                  000000018003ca00 f   libucrt:strncnt.obj
 0001:0003ba18       __acrt_fenv_get_control    000000018003ca18 f   libucrt:_fenvutils.obj
 0001:0003bb0c       __acrt_fenv_get_status     000000018003cb0c f   libucrt:_fenvutils.obj
 0001:0003bb60       __acrt_fenv_set_control    000000018003cb60 f   libucrt:_fenvutils.obj
 0001:0003bca8       __acrt_fenv_set_status     000000018003cca8 f   libucrt:_fenvutils.obj
 0001:0003bd2c       _clearfp                   000000018003cd2c f   libucrt:ieee.obj
 0001:0003bda0       __acrt_initialize_fma3     000000018003cda0 f   libucrt:fma3_available.obj
 0001:0003be10       _log10_special             000000018003ce10 f   libucrt:log_special.obj
 0001:0003bec6       IsProcessorFeaturePresent  000000018003cec6 f   kernel32:KERNEL32.dll
 0001:0003becc       ?DloadAcquireSectionWriteAccess@@YAXXZ 000000018003cecc f i DelayImp:delayhlp.obj
 0001:0003bf78       ?DloadGetSRWLockFunctionPointers@@YAEXZ 000000018003cf78 f i DelayImp:delayhlp.obj
 0001:0003c014       ?DloadMakePermanentImageCommit@@YAXPEAX_K@Z 000000018003d014 f i DelayImp:delayhlp.obj
 0001:0003c0ac       ?DloadObtainSection@@YAPEAXPEAK0@Z 000000018003d0ac f i DelayImp:delayhlp.obj
 0001:0003c148       ?DloadProtectSection@@YAXKPEAK@Z 000000018003d148 f i DelayImp:delayhlp.obj
 0001:0003c1d8       ?DloadReleaseSectionWriteAccess@@YAXXZ 000000018003d1d8 f i DelayImp:delayhlp.obj
 0001:0003c26c       __delayLoadHelper2         000000018003d26c f   DelayImp:delayhlp.obj
 0001:0003c544       __GSHandlerCheck           000000018003d544 f   LIBCMT:gshandler.obj
 0001:0003c564       __GSHandlerCheckCommon     000000018003d564 f   LIBCMT:gshandler.obj
 0001:0003c5c0       _FindPESection             000000018003d5c0 f   LIBCMT:pesect.obj
 0001:0003c610       _IsNonwritableInCurrentImage 000000018003d610 f   LIBCMT:pesect.obj
 0001:0003c660       _ValidateImageBase         000000018003d660 f   LIBCMT:pesect.obj
 0001:0003c690       __GSHandlerCheck_SEH       000000018003d690 f   LIBCMT:gshandlerseh.obj
 0001:0003c730       __chkstk                   000000018003d730 f   LIBCMT:chkstk.obj
 0001:0003c730       _alloca_probe              000000018003d730 f   LIBCMT:chkstk.obj
 0001:0003c784       strrchr                    000000018003d784 f   libvcruntime:strrchr.obj
 0001:0003c8d0       memcmp                     000000018003d8d0 f   libvcruntime:memcmp.obj
 0001:0003c998       ceilf                      000000018003d998 f   libucrt:ceilf.obj
 0001:0003ca30       _guard_dispatch_icall_nop  000000018003da30 f   LIBCMT:guard_dispatch.obj
 0001:0003ca50       _guard_xfg_dispatch_icall_nop 000000018003da50 f   LIBCMT:guard_xfg_dispatch.obj
 0002:00000000       __imp_GetModuleHandleA     000000018003e000     kernel32:KERNEL32.dll
 0002:00000008       __imp_LoadLibraryExA       000000018003e008     kernel32:KERNEL32.dll
 0002:00000010       __imp_RtlCaptureContext    000000018003e010     kernel32:KERNEL32.dll
 0002:00000018       __imp_RtlLookupFunctionEntry 000000018003e018     kernel32:KERNEL32.dll
 0002:00000020       __imp_RtlVirtualUnwind     000000018003e020     kernel32:KERNEL32.dll
 0002:00000028       __imp_UnhandledExceptionFilter 000000018003e028     kernel32:KERNEL32.dll
 0002:00000030       __imp_SetUnhandledExceptionFilter 000000018003e030     kernel32:KERNEL32.dll
 0002:00000038       __imp_GetCurrentProcess    000000018003e038     kernel32:KERNEL32.dll
 0002:00000040       __imp_TerminateProcess     000000018003e040     kernel32:KERNEL32.dll
 0002:00000048       __imp_IsProcessorFeaturePresent 000000018003e048     kernel32:KERNEL32.dll
 0002:00000050       __imp_CloseHandle          000000018003e050     kernel32:KERNEL32.dll
 0002:00000058       __imp_EnterCriticalSection 000000018003e058     kernel32:KERNEL32.dll
 0002:00000060       __imp_LeaveCriticalSection 000000018003e060     kernel32:KERNEL32.dll
 0002:00000068       __imp_InitializeCriticalSectionAndSpinCount 000000018003e068     kernel32:KERNEL32.dll
 0002:00000070       __imp_DeleteCriticalSection 000000018003e070     kernel32:KERNEL32.dll
 0002:00000078       __imp_SetEvent             000000018003e078     kernel32:KERNEL32.dll
 0002:00000080       __imp_ResetEvent           000000018003e080     kernel32:KERNEL32.dll
 0002:00000088       __imp_WaitForSingleObjectEx 000000018003e088     kernel32:KERNEL32.dll
 0002:00000090       __imp_CreateEventW         000000018003e090     kernel32:KERNEL32.dll
 0002:00000098       __imp_GetModuleHandleW     000000018003e098     kernel32:KERNEL32.dll
 0002:000000a0       __imp_GetProcAddress       000000018003e0a0     kernel32:KERNEL32.dll
 0002:000000a8       __imp_IsDebuggerPresent    000000018003e0a8     kernel32:KERNEL32.dll
 0002:000000b0       __imp_GetStartupInfoW      000000018003e0b0     kernel32:KERNEL32.dll
 0002:000000b8       __imp_QueryPerformanceCounter 000000018003e0b8     kernel32:KERNEL32.dll
 0002:000000c0       __imp_GetCurrentProcessId  000000018003e0c0     kernel32:KERNEL32.dll
 0002:000000c8       __imp_GetCurrentThreadId   000000018003e0c8     kernel32:KERNEL32.dll
 0002:000000d0       __imp_GetSystemTimeAsFileTime 000000018003e0d0     kernel32:KERNEL32.dll
 0002:000000d8       __imp_InitializeSListHead  000000018003e0d8     kernel32:KERNEL32.dll
 0002:000000e0       __imp_RtlPcToFileHeader    000000018003e0e0     kernel32:KERNEL32.dll
 0002:000000e8       __imp_RaiseException       000000018003e0e8     kernel32:KERNEL32.dll
 0002:000000f0       __imp_RtlUnwindEx          000000018003e0f0     kernel32:KERNEL32.dll
 0002:000000f8       __imp_InterlockedFlushSList 000000018003e0f8     kernel32:KERNEL32.dll
 0002:00000100       __imp_GetLastError         000000018003e100     kernel32:KERNEL32.dll
 0002:00000108       __imp_SetLastError         000000018003e108     kernel32:KERNEL32.dll
 0002:00000110       __imp_EncodePointer        000000018003e110     kernel32:KERNEL32.dll
 0002:00000118       __imp_TlsAlloc             000000018003e118     kernel32:KERNEL32.dll
 0002:00000120       __imp_TlsGetValue          000000018003e120     kernel32:KERNEL32.dll
 0002:00000128       __imp_TlsSetValue          000000018003e128     kernel32:KERNEL32.dll
 0002:00000130       __imp_TlsFree              000000018003e130     kernel32:KERNEL32.dll
 0002:00000138       __imp_FreeLibrary          000000018003e138     kernel32:KERNEL32.dll
 0002:00000140       __imp_LoadLibraryExW       000000018003e140     kernel32:KERNEL32.dll
 0002:00000148       __imp_GetStdHandle         000000018003e148     kernel32:KERNEL32.dll
 0002:00000150       __imp_GetFileType          000000018003e150     kernel32:KERNEL32.dll
 0002:00000158       __imp_GetModuleFileNameW   000000018003e158     kernel32:KERNEL32.dll
 0002:00000160       __imp_GetModuleHandleExW   000000018003e160     kernel32:KERNEL32.dll
 0002:00000168       __imp_WriteConsoleW        000000018003e168     kernel32:KERNEL32.dll
 0002:00000170       __imp_ExitProcess          000000018003e170     kernel32:KERNEL32.dll
 0002:00000178       __imp_HeapAlloc            000000018003e178     kernel32:KERNEL32.dll
 0002:00000180       __imp_HeapReAlloc          000000018003e180     kernel32:KERNEL32.dll
 0002:00000188       __imp_WriteFile            000000018003e188     kernel32:KERNEL32.dll
 0002:00000190       __imp_OutputDebugStringW   000000018003e190     kernel32:KERNEL32.dll
 0002:00000198       __imp_HeapFree             000000018003e198     kernel32:KERNEL32.dll
 0002:000001a0       __imp_LCMapStringW         000000018003e1a0     kernel32:KERNEL32.dll
 0002:000001a8       __imp_GetConsoleCP         000000018003e1a8     kernel32:KERNEL32.dll
 0002:000001b0       __imp_GetConsoleMode       000000018003e1b0     kernel32:KERNEL32.dll
 0002:000001b8       __imp_GetFileSizeEx        000000018003e1b8     kernel32:KERNEL32.dll
 0002:000001c0       __imp_SetFilePointerEx     000000018003e1c0     kernel32:KERNEL32.dll
 0002:000001c8       __imp_FindClose            000000018003e1c8     kernel32:KERNEL32.dll
 0002:000001d0       __imp_FindFirstFileExW     000000018003e1d0     kernel32:KERNEL32.dll
 0002:000001d8       __imp_FindNextFileW        000000018003e1d8     kernel32:KERNEL32.dll
 0002:000001e0       __imp_IsValidCodePage      000000018003e1e0     kernel32:KERNEL32.dll
 0002:000001e8       __imp_GetACP               000000018003e1e8     kernel32:KERNEL32.dll
 0002:000001f0       __imp_GetOEMCP             000000018003e1f0     kernel32:KERNEL32.dll
 0002:000001f8       __imp_GetCPInfo            000000018003e1f8     kernel32:KERNEL32.dll
 0002:00000200       __imp_GetCommandLineA      000000018003e200     kernel32:KERNEL32.dll
 0002:00000208       __imp_GetCommandLineW      000000018003e208     kernel32:KERNEL32.dll
 0002:00000210       __imp_MultiByteToWideChar  000000018003e210     kernel32:KERNEL32.dll
 0002:00000218       __imp_WideCharToMultiByte  000000018003e218     kernel32:KERNEL32.dll
 0002:00000220       __imp_GetEnvironmentStringsW 000000018003e220     kernel32:KERNEL32.dll
 0002:00000228       __imp_FreeEnvironmentStringsW 000000018003e228     kernel32:KERNEL32.dll
 0002:00000230       __imp_GetProcessHeap       000000018003e230     kernel32:KERNEL32.dll
 0002:00000238       __imp_FlushFileBuffers     000000018003e238     kernel32:KERNEL32.dll
 0002:00000240       __imp_SetStdHandle         000000018003e240     kernel32:KERNEL32.dll
 0002:00000248       __imp_GetStringTypeW       000000018003e248     kernel32:KERNEL32.dll
 0002:00000250       __imp_HeapSize             000000018003e250     kernel32:KERNEL32.dll
 0002:00000258       __imp_CreateFileW          000000018003e258     kernel32:KERNEL32.dll
 0002:00000260       __imp_GetSystemInfo        000000018003e260     kernel32:KERNEL32.dll
 0002:00000268       __imp_VirtualProtect       000000018003e268     kernel32:KERNEL32.dll
 0002:00000270       __imp_VirtualQuery         000000018003e270     kernel32:KERNEL32.dll
 0002:00000278       \177KERNEL32_NULL_THUNK_DATA 000000018003e278     kernel32:KERNEL32.dll
 0002:00000280       __guard_check_icall_fptr   000000018003e280     LIBCMT:guard_support.obj
 0002:00000288       __guard_xfg_check_icall_fptr 000000018003e288     LIBCMT:guard_support.obj
 0002:00000290       __guard_dispatch_icall_fptr 000000018003e290     LIBCMT:guard_support.obj
 0002:00000298       __guard_xfg_dispatch_icall_fptr 000000018003e298     LIBCMT:guard_support.obj
 0002:000002a0       __guard_xfg_table_dispatch_icall_fptr 000000018003e2a0     LIBCMT:guard_support.obj
 0002:000002a8       __xc_a                     000000018003e2a8     LIBCMT:initializers.obj
 0002:000002b0       _register_addon_           000000018003e2b0     addon.obj
 0002:000002b8       __xc_z                     000000018003e2b8     LIBCMT:initializers.obj
 0002:000002c0       __xi_a                     000000018003e2c0     LIBCMT:initializers.obj
 0002:000002d0       __acrt_stdio_initializer   000000018003e2d0     libucrt:stdio_initializer.obj
 0002:000002d8       __acrt_multibyte_initializer 000000018003e2d8     libucrt:multibyte_initializer.obj
 0002:000002e0       __acrt_tran_fma3_initializer 000000018003e2e0     libucrt:fma3_initializer.obj
 0002:000002e8       __xi_z                     000000018003e2e8     LIBCMT:initializers.obj
 0002:000002f0       __xl_a                     000000018003e2f0     LIBCMT:tlssup.obj
 0002:000002f8       __xl_z                     000000018003e2f8     LIBCMT:tlssup.obj
 0002:00000300       __xp_a                     000000018003e300     LIBCMT:initializers.obj
 0002:00000308       __acrt_locale_terminator   000000018003e308     libucrt:locale_initializer.obj
 0002:00000310       __dcrt_console_output_terminator 000000018003e310     libucrt:console_output_initializer.obj
 0002:00000318       __acrt_stdio_terminator    000000018003e318     libucrt:stdio_initializer.obj
 0002:00000320       __xp_z                     000000018003e320     LIBCMT:initializers.obj
 0002:00000328       __xt_a                     000000018003e328     LIBCMT:initializers.obj
 0002:00000330       __xt_z                     000000018003e330     LIBCMT:initializers.obj
 0002:00000340       __sz_node_exe              000000018003e340     node:node.exe
 0002:00000358       ??_7exception@std@@6B@     000000018003e358     libcpmt:xthrow.obj
 0002:00000368       ??_C@_0BC@EOODALEL@Unknown?5exception@ 000000018003e368     libcpmt:xthrow.obj
 0002:00000388       ??_7bad_alloc@std@@6B@     000000018003e388     libcpmt:xthrow.obj
 0002:00000398       ??_C@_0P@GHFPNOJB@bad?5allocation@ 000000018003e398     libcpmt:xthrow.obj
 0002:000003b0       ??_7logic_error@std@@6B@   000000018003e3b0     libcpmt:xthrow.obj
 0002:000003c8       ??_7length_error@std@@6B@  000000018003e3c8     libcpmt:xthrow.obj
 0002:000003e0       ??_7out_of_range@std@@6B@  000000018003e3e0     libcpmt:xthrow.obj
 0002:000003f0       ?nothrow@std@@3Unothrow_t@1@B 000000018003e3f0     libcpmt:nothrow.obj
 0002:00000410       ??_C@_1EC@JIJBPKFM@?$AAa?$AAp?$AAi?$AA?9?$AAm?$AAs?$AA?9?$AAw?$AAi?$AAn?$AA?9?$AAc?$AAo?$AAr?$AAe@ 000000018003e410     LIBCMT:thread_safe_statics.obj
 0002:00000458       ??_C@_1BK@MGMFAEKH@?$AAk?$AAe?$AAr?$AAn?$AAe?$AAl?$AA3?$AA2?$AA?4?$AAd?$AAl?$AAl@ 000000018003e458     LIBCMT:thread_safe_statics.obj
 0002:00000478       ??_C@_0BJ@JEBJOJFJ@SleepConditionVariableCS@ 000000018003e478     LIBCMT:thread_safe_statics.obj
 0002:00000498       ??_C@_0BJ@PGPPEPCC@WakeAllConditionVariable@ 000000018003e498     LIBCMT:thread_safe_statics.obj
 0002:000004b8       _pDefaultRawDllMain        000000018003e4b8     LIBCMT:dll_dllmain.obj
 0002:000004b8       _pRawDllMain               000000018003e4b8     LIBCMT:dll_dllmain.obj
 0002:000004c8       ??_7type_info@@6B@         000000018003e4c8     LIBCMT:std_type_info_static.obj
 0002:000004d8       ??_7bad_array_new_length@std@@6B@ 000000018003e4d8     LIBCMT:throw_bad_alloc.obj
 0002:000004e8       ?s_negLengthTab@FH4@@3QBCB 000000018003e4e8     libvcruntime:risctrnsctrl.obj
 0002:000004f8       ?s_shiftTab@FH4@@3QBEB     000000018003e4f8     libvcruntime:risctrnsctrl.obj
 0002:000005a8       _pDestructExceptionObject  000000018003e5a8     libvcruntime:ehhelpers.obj
 0002:000005b8       ??_7bad_exception@std@@6B@ 000000018003e5b8     libvcruntime:frame.obj
 0002:000005c8       ??_C@_0O@DPKOEFFH@bad?5exception@ 000000018003e5c8     libvcruntime:frame.obj
 0002:00000ce0       ??_C@_08EHJDFFNH@__based?$CI@ 000000018003ece0     libvcruntime:undname.obj
 0002:00000cf0       ??_C@_07KOLFKCDI@__cdecl@  000000018003ecf0     libvcruntime:undname.obj
 0002:00000cf8       ??_C@_08GHMPAG@__pascal@   000000018003ecf8     libvcruntime:undname.obj
 0002:00000d08       ??_C@_09IFJBGAPI@__stdcall@ 000000018003ed08     libvcruntime:undname.obj
 0002:00000d18       ??_C@_0L@NPHFGOKO@__thiscall@ 000000018003ed18     libvcruntime:undname.obj
 0002:00000d28       ??_C@_0L@JMKHOMEK@__fastcall@ 000000018003ed28     libvcruntime:undname.obj
 0002:00000d38       ??_C@_0N@BCKKPABJ@__vectorcall@ 000000018003ed38     libvcruntime:undname.obj
 0002:00000d48       ??_C@_09HIJEGCPM@__clrcall@ 000000018003ed48     libvcruntime:undname.obj
 0002:00000d54       ??_C@_06GHPCKEAG@__eabi@   000000018003ed54     libvcruntime:undname.obj
 0002:00000d60       ??_C@_09IOPIDJLG@__swift_1@ 000000018003ed60     libvcruntime:undname.obj
 0002:00000d70       ??_C@_09KFNFGKHF@__swift_2@ 000000018003ed70     libvcruntime:undname.obj
 0002:00000d80       ??_C@_07JOMMBBKO@__ptr64@  000000018003ed80     libvcruntime:undname.obj
 0002:00000d88       ??_C@_0L@PILCLIHE@__restrict@ 000000018003ed88     libvcruntime:undname.obj
 0002:00000d98       ??_C@_0M@GFIIJFMG@__unaligned@ 000000018003ed98     libvcruntime:undname.obj
 0002:00000da8       ??_C@_09DHDLOLLB@restrict?$CI@ 000000018003eda8     libvcruntime:undname.obj
 0002:00000db4       ??_C@_04NIHEBCM@?5new@     000000018003edb4     libvcruntime:undname.obj
 0002:00000dc0       ??_C@_07FPCDHGMM@?5delete@ 000000018003edc0     libvcruntime:undname.obj
 0002:00000dc8       ??_C@_01NEMOKFLO@?$DN@     000000018003edc8     libvcruntime:undname.obj
 0002:00000dcc       ??_C@_02GPIOPFAK@?$DO?$DO@ 000000018003edcc     libvcruntime:undname.obj
 0002:00000dd0       ??_C@_02FODMEDOG@?$DM?$DM@ 000000018003edd0     libvcruntime:undname.obj
 0002:00000dd4       ??_C@_01DCLJPIOD@?$CB@     000000018003edd4     libvcruntime:undname.obj
 0002:00000dd8       ??_C@_02EGOFBIJA@?$DN?$DN@ 000000018003edd8     libvcruntime:undname.obj
 0002:00000ddc       ??_C@_02FDNJECIE@?$CB?$DN@ 000000018003eddc     libvcruntime:undname.obj
 0002:00000de0       ??_C@_02GPECMEKF@?$FL?$FN@ 000000018003ede0     libvcruntime:undname.obj
 0002:00000de8       ??_C@_08LHJFAFGD@operator@ 000000018003ede8     libvcruntime:undname.obj
 0002:00000df4       ??_C@_02HBOOOICD@?9?$DO@   000000018003edf4     libvcruntime:undname.obj
 0002:00000df8       ??_C@_01NBENCBCI@?$CK@     000000018003edf8     libvcruntime:undname.obj
 0002:00000dfc       ??_C@_02ECNGHCIF@?$CL?$CL@ 000000018003edfc     libvcruntime:undname.obj
 0002:00000e00       ??_C@_02BAABKJLB@?9?9@     000000018003ee00     libvcruntime:undname.obj
 0002:00000e04       ??_C@_01JOAMLHOP@?9@       000000018003ee04     libvcruntime:undname.obj
 0002:00000e08       ??_C@_01MIFGBAGJ@?$CL@     000000018003ee08     libvcruntime:undname.obj
 0002:00000e0c       ??_C@_01HNPIGOCE@?$CG@     000000018003ee0c     libvcruntime:undname.obj
 0002:00000e10       ??_C@_03MNHNFDLC@?9?$DO?$CK@ 000000018003ee10     libvcruntime:undname.obj
 0002:00000e14       ??_C@_01KMDKNFGN@?1@       000000018003ee14     libvcruntime:undname.obj
 0002:00000e18       ??_C@_01FGNFDNOH@?$CF@     000000018003ee18     libvcruntime:undname.obj
 0002:00000e1c       ??_C@_01MNNFJEPP@?$DM@     000000018003ee1c     libvcruntime:undname.obj
 0002:00000e20       ??_C@_02EHCHHCKH@?$DM?$DN@ 000000018003ee20     libvcruntime:undname.obj
 0002:00000e24       ??_C@_01PPODPGHN@?$DO@     000000018003ee24     libvcruntime:undname.obj
 0002:00000e28       ??_C@_02EEKDKGMJ@?$DO?$DN@ 000000018003ee28     libvcruntime:undname.obj
 0002:00000e2c       ??_C@_02HCKGKOFO@?$CI?$CJ@ 000000018003ee2c     libvcruntime:undname.obj
 0002:00000e30       ??_C@_01PJKLJHI@?$HO@      000000018003ee30     libvcruntime:undname.obj
 0002:00000e34       ??_C@_01JKBOJNNK@?$FO@     000000018003ee34     libvcruntime:undname.obj
 0002:00000e38       ??_C@_01DNKMNLPK@?$HM@     000000018003ee38     libvcruntime:undname.obj
 0002:00000e3c       ??_C@_02PPKAJPJL@?$CG?$CG@ 000000018003ee3c     libvcruntime:undname.obj
 0002:00000e40       ??_C@_02NONPIBCD@?$HM?$HM@ 000000018003ee40     libvcruntime:undname.obj
 0002:00000e44       ??_C@_02FPIMKNGF@?$CK?$DN@ 000000018003ee44     libvcruntime:undname.obj
 0002:00000e48       ??_C@_02FOEOMHFC@?$CL?$DN@ 000000018003ee48     libvcruntime:undname.obj
 0002:00000e4c       ??_C@_02FKMDLLOA@?9?$DN@   000000018003ee4c     libvcruntime:undname.obj
 0002:00000e50       ??_C@_02FJEHGPIO@?1?$DN@   000000018003ee50     libvcruntime:undname.obj
 0002:00000e54       ??_C@_02FENAOKFI@?$CF?$DN@ 000000018003ee54     libvcruntime:undname.obj
 0002:00000e58       ??_C@_03IKFCCPFF@?$DO?$DO?$DN@ 000000018003ee58     libvcruntime:undname.obj
 0002:00000e5c       ??_C@_03CDNPDDLA@?$DM?$DM?$DN@ 000000018003ee5c     libvcruntime:undname.obj
 0002:00000e60       ??_C@_02FGJGFEAB@?$CG?$DN@ 000000018003ee60     libvcruntime:undname.obj
 0002:00000e64       ??_C@_02DHLNPPGH@?$HM?$DN@ 000000018003ee64     libvcruntime:undname.obj
 0002:00000e68       ??_C@_02MHEGNOJ@?$FO?$DN@  000000018003ee68     libvcruntime:undname.obj
 0002:00000e70       ??_C@_09IFPLHPGF@?$GAvftable?8@ 000000018003ee70     libvcruntime:undname.obj
 0002:00000e80       ??_C@_09BLBHBJP@?$GAvbtable?8@ 000000018003ee80     libvcruntime:undname.obj
 0002:00000e90       ??_C@_07FEEIOKP@?$GAvcall?8@ 000000018003ee90     libvcruntime:undname.obj
 0002:00000e98       ??_C@_08LLFFHHDJ@?$GAtypeof?8@ 000000018003ee98     libvcruntime:undname.obj
 0002:00000ea8       ??_C@_0BF@KDPPACIK@?$GAlocal?5static?5guard?8@ 000000018003eea8     libvcruntime:undname.obj
 0002:00000ec0       ??_C@_08OBABFOLI@?$GAstring?8@ 000000018003eec0     libvcruntime:undname.obj
 0002:00000ed0       ??_C@_0BD@JDLKDPAB@?$GAvbase?5destructor?8@ 000000018003eed0     libvcruntime:undname.obj
 0002:00000ee8       ??_C@_0BN@DEGPLNFK@?$GAvector?5deleting?5destructor?8@ 000000018003eee8     libvcruntime:undname.obj
 0002:00000f08       ??_C@_0BO@OBMKPJIG@?$GAdefault?5constructor?5closure?8@ 000000018003ef08     libvcruntime:undname.obj
 0002:00000f28       ??_C@_0BN@IMDCHIKM@?$GAscalar?5deleting?5destructor?8@ 000000018003ef28     libvcruntime:undname.obj
 0002:00000f48       ??_C@_0BO@PFGOCPJJ@?$GAvector?5constructor?5iterator?8@ 000000018003ef48     libvcruntime:undname.obj
 0002:00000f68       ??_C@_0BN@LFPFMEDL@?$GAvector?5destructor?5iterator?8@ 000000018003ef68     libvcruntime:undname.obj
 0002:00000f88       ??_C@_0CE@IKBNEHA@?$GAvector?5vbase?5constructor?5itera@ 000000018003ef88     libvcruntime:undname.obj
 0002:00000fb0       ??_C@_0BL@NILFHHPC@?$GAvirtual?5displacement?5map?8@ 000000018003efb0     libvcruntime:undname.obj
 0002:00000fd0       ??_C@_0CB@JONCMFFK@?$GAeh?5vector?5constructor?5iterator@ 000000018003efd0     libvcruntime:undname.obj
 0002:00000ff8       ??_C@_0CA@GCEOPDGL@?$GAeh?5vector?5destructor?5iterator?8@ 000000018003eff8     libvcruntime:undname.obj
 0002:00001018       ??_C@_0CH@OOJPLCPH@?$GAeh?5vector?5vbase?5constructor?5it@ 000000018003f018     libvcruntime:undname.obj
 0002:00001040       ??_C@_0BL@LLKPOHJI@?$GAcopy?5constructor?5closure?8@ 000000018003f040     libvcruntime:undname.obj
 0002:00001060       ??_C@_0BA@KBCDOMBN@?$GAudt?5returning?8@ 000000018003f060     libvcruntime:undname.obj
 0002:00001070       ??_C@_03KLGMFNMG@?$GAEH@   000000018003f070     libvcruntime:undname.obj
 0002:00001074       ??_C@_05KHLCHHI@?$GARTTI@  000000018003f074     libvcruntime:undname.obj
 0002:00001080       ??_C@_0BA@KKLDJDLB@?$GAlocal?5vftable?8@ 000000018003f080     libvcruntime:undname.obj
 0002:00001090       ??_C@_0CE@IIHCMGGL@?$GAlocal?5vftable?5constructor?5clos@ 000000018003f090     libvcruntime:undname.obj
 0002:000010b4       ??_C@_06FHBGPFGH@?5new?$FL?$FN@ 000000018003f0b4     libvcruntime:undname.obj
 0002:000010c0       ??_C@_09LBNFPBCA@?5delete?$FL?$FN@ 000000018003f0c0     libvcruntime:undname.obj
 0002:000010d0       ??_C@_0P@HJKNJFNN@?$GAomni?5callsig?8@ 000000018003f0d0     libvcruntime:undname.obj
 0002:000010e0       ??_C@_0BL@CNOONJFP@?$GAplacement?5delete?5closure?8@ 000000018003f0e0     libvcruntime:undname.obj
 0002:00001100       ??_C@_0BN@CKNJLHMB@?$GAplacement?5delete?$FL?$FN?5closure?8@ 000000018003f100     libvcruntime:undname.obj
 0002:00001120       ??_C@_0CG@CFDHKGGD@?$GAmanaged?5vector?5constructor?5ite@ 000000018003f120     libvcruntime:undname.obj
 0002:00001148       ??_C@_0CF@IMGKMJNO@?$GAmanaged?5vector?5destructor?5iter@ 000000018003f148     libvcruntime:undname.obj
 0002:00001170       ??_C@_0CG@HLDDJMAG@?$GAeh?5vector?5copy?5constructor?5ite@ 000000018003f170     libvcruntime:undname.obj
 0002:00001198       ??_C@_0CM@FCBBDIGB@?$GAeh?5vector?5vbase?5copy?5construct@ 000000018003f198     libvcruntime:undname.obj
 0002:000011c8       ??_C@_0BL@CLIPGLGB@?$GAdynamic?5initializer?5for?5?8@ 000000018003f1c8     libvcruntime:undname.obj
 0002:000011e8       ??_C@_0CB@PDBIFEP@?$GAdynamic?5atexit?5destructor?5for?5@ 000000018003f1e8     libvcruntime:undname.obj
 0002:00001210       ??_C@_0CD@CGAJBKEJ@?$GAvector?5copy?5constructor?5iterat@ 000000018003f210     libvcruntime:undname.obj
 0002:00001238       ??_C@_0CJ@GJELGAMM@?$GAvector?5vbase?5copy?5constructor?5@ 000000018003f238     libvcruntime:undname.obj
 0002:00001268       ??_C@_0CL@FGIJHLCE@?$GAmanaged?5vector?5copy?5constructo@ 000000018003f268     libvcruntime:undname.obj
 0002:00001298       ??_C@_0BM@PMGGMLDN@?$GAlocal?5static?5thread?5guard?8@ 000000018003f298     libvcruntime:undname.obj
 0002:000012b8       ??_C@_0N@BDNMDMOL@operator?5?$CC?$CC?5@ 000000018003f2b8     libvcruntime:undname.obj
 0002:000012c8       ??_C@_0BC@GGEBGALA@operator?5co_await@ 000000018003f2c8     libvcruntime:undname.obj
 0002:000012e0       ??_C@_0M@GAAIMMOH@operator?$DM?$DN?$DO@ 000000018003f2e0     libvcruntime:undname.obj
 0002:000012f0       ??_C@_0BC@DAFEJGAK@?5Type?5Descriptor?8@ 000000018003f2f0     libvcruntime:undname.obj
 0002:00001308       ??_C@_0BM@LDKODKLH@?5Base?5Class?5Descriptor?5at?5?$CI@ 000000018003f308     libvcruntime:undname.obj
 0002:00001328       ??_C@_0BD@LGICGFMM@?5Base?5Class?5Array?8@ 000000018003f328     libvcruntime:undname.obj
 0002:00001340       ??_C@_0BN@MECKDCOJ@?5Class?5Hierarchy?5Descriptor?8@ 000000018003f340     libvcruntime:undname.obj
 0002:00001360       ??_C@_0BK@CFCOFLF@?5Complete?5Object?5Locator?8@ 000000018003f360     libvcruntime:undname.obj
 0002:00001380       ??_C@_0BG@JNJLAMPM@?$GAanonymous?5namespace?8@ 000000018003f380     libvcruntime:undname.obj
 0002:000013b0       ??_C@_1DM@KHCHBNEB@?$AAa?$AAp?$AAi?$AA?9?$AAm?$AAs?$AA?9?$AAw?$AAi?$AAn?$AA?9?$AAc?$AAo?$AAr?$AAe@ 000000018003f3b0     libvcruntime:winapi_downlevel.obj
 0002:000013f0       ??_C@_1DK@LPPGFMPP@?$AAa?$AAp?$AAi?$AA?9?$AAm?$AAs?$AA?9?$AAw?$AAi?$AAn?$AA?9?$AAc?$AAo?$AAr?$AAe@ 000000018003f3f0     libvcruntime:winapi_downlevel.obj
 0002:00001430       ??_C@_1BC@GDMECMAK@?$AAk?$AAe?$AAr?$AAn?$AAe?$AAl?$AA3?$AA2@ 000000018003f430     libvcruntime:winapi_downlevel.obj
 0002:00001448       ??_C@_1BA@PFFKHIOG@?$AAa?$AAp?$AAi?$AA?9?$AAm?$AAs?$AA?9@ 000000018003f448     libvcruntime:winapi_downlevel.obj
 0002:00001460       ??_C@_08KNHFBNJ@FlsAlloc@  000000018003f460     libvcruntime:winapi_downlevel.obj
 0002:00001478       ??_C@_07PEJMOBNF@FlsFree@  000000018003f478     libvcruntime:winapi_downlevel.obj
 0002:00001488       ??_C@_0M@GDNOONDI@FlsGetValue@ 000000018003f488     libvcruntime:winapi_downlevel.obj
 0002:000014a0       ??_C@_0M@JCPCPOEF@FlsSetValue@ 000000018003f4a0     libvcruntime:winapi_downlevel.obj
 0002:000014b8       ??_C@_0BM@HCFOFFN@InitializeCriticalSectionEx@ 000000018003f4b8     libvcruntime:winapi_downlevel.obj
 0002:000014e0       ??_C@_1FE@LHBLIKM@?$AAA?$AAs?$AAs?$AAe?$AAr?$AAt?$AAi?$AAo?$AAn?$AA?5?$AAf?$AAa?$AAi?$AAl?$AAe@ 000000018003f4e0     libucrt:assert.obj
 0002:00001540       ??_C@_1EK@MBDPDCGA@?$AAM?$AAi?$AAc?$AAr?$AAo?$AAs?$AAo?$AAf?$AAt?$AA?5?$AAV?$AAi?$AAs?$AAu?$AAa@ 000000018003f540     libucrt:assert.obj
 0002:00001590       ??_C@_1CE@OJBNHDMO@?$AAA?$AAs?$AAs?$AAe?$AAr?$AAt?$AAi?$AAo?$AAn?$AA?5?$AAf?$AAa?$AAi?$AAl?$AAe@ 000000018003f590     libucrt:assert.obj
 0002:000015b8       ??_C@_1BE@PHKBBGE@?$AAP?$AAr?$AAo?$AAg?$AAr?$AAa?$AAm?$AA?3?$AA?5@ 000000018003f5b8     libucrt:assert.obj
 0002:000015d0       ??_C@_1O@HEMHKNDC@?$AAF?$AAi?$AAl?$AAe?$AA?3?$AA?5@ 000000018003f5d0     libucrt:assert.obj
 0002:000015e0       ??_C@_1O@KCAFKHJE@?$AAL?$AAi?$AAn?$AAe?$AA?3?$AA?5@ 000000018003f5e0     libucrt:assert.obj
 0002:000015f0       ??_C@_1BK@PEDCIPMA@?$AAE?$AAx?$AAp?$AAr?$AAe?$AAs?$AAs?$AAi?$AAo?$AAn?$AA?3?$AA?5@ 000000018003f5f0     libucrt:assert.obj
 0002:00001610       ??_C@_1OA@EGMLFBHJ@?$AAF?$AAo?$AAr?$AA?5?$AAi?$AAn?$AAf?$AAo?$AAr?$AAm?$AAa?$AAt?$AAi?$AAo?$AAn@ 000000018003f610     libucrt:assert.obj
 0002:000016f0       ??_C@_1HK@POCJMFGK@?$AA?$CI?$AAP?$AAr?$AAe?$AAs?$AAs?$AA?5?$AAR?$AAe?$AAt?$AAr?$AAy?$AA?5?$AAt?$AAo@ 000000018003f6f0     libucrt:assert.obj
 0002:00001770       ??_C@_17LGKOMLJ@?$AA?4?$AA?4?$AA?4@ 000000018003f770     libucrt:assert.obj
 0002:00001778       ??_C@_13LBAGMAIH@?$AA?6@   000000018003f778     libucrt:assert.obj
 0002:0000177c       ??_C@_15IABLJNFO@?$AA?6?$AA?6@ 000000018003f77c     libucrt:assert.obj
 0002:00001788       ??_C@_1CO@EAEJAADC@?$AA?$DM?$AAp?$AAr?$AAo?$AAg?$AAr?$AAa?$AAm?$AA?5?$AAn?$AAa?$AAm?$AAe?$AA?5?$AAu@ 000000018003f788     libucrt:assert.obj
 0002:000017c0       standard_lookup_table      000000018003f7c0     libucrt:output.obj
 0002:00001820       ??_C@_1O@CEDCILHN@?$AA?$CI?$AAn?$AAu?$AAl?$AAl?$AA?$CJ@ 000000018003f820     libucrt:output.obj
 0002:00001830       ??_C@_06OJHGLDPL@?$CInull?$CJ@ 000000018003f830     libucrt:output.obj
 0002:00001c58       ??_C@_04KGLCPMCP@log2@     000000018003fc58     libucrt:log2.obj
 0002:00001c60       __real@03d0000000000000    000000018003fc60     libucrt:log2.obj
 0002:00001c68       __real@3ecb295c17f0bbbe    000000018003fc68     libucrt:log2.obj
 0002:00001c70       __real@3f3c8034c85dfff0    000000018003fc70     libucrt:log2.obj
 0002:00001c78       __real@3f62492307f1519f    000000018003fc78     libucrt:log2.obj
 0002:00001c80       __real@3f6249423bd94741    000000018003fc80     libucrt:log2.obj
 0002:00001c88       __real@3f80000000000000    000000018003fc88     libucrt:log2.obj
 0002:00001c90       __real@3f89999999865ede    000000018003fc90     libucrt:log2.obj
 0002:00001c98       __real@3f89999999bac6d4    000000018003fc98     libucrt:log2.obj
 0002:00001ca0       __real@3fb55555555554e6    000000018003fca0     libucrt:log2.obj
 0002:00001ca8       __real@3fb5555555555557    000000018003fca8     libucrt:log2.obj
 0002:00001cb0       __real@3ff0000000000000    000000018003fcb0     libucrt:log2.obj
 0002:00001cb8       __real@3ff7154400000000    000000018003fcb8     libucrt:log2.obj
 0002:00001cc0       __acrt_exception_action_table 000000018003fcc0     libucrt:exception_filter.obj
 0002:00001d80       __acrt_signal_action_table_count 000000018003fd80     libucrt:exception_filter.obj
 0002:00001d88       __acrt_signal_action_first_fpe_index 000000018003fd88     libucrt:exception_filter.obj
 0002:00001d90       __acrt_signal_action_fpe_count 000000018003fd90     libucrt:exception_filter.obj
 0002:00001d98       ??_C@_1BI@BGOHAHKC@?$AAm?$AAs?$AAc?$AAo?$AAr?$AAe?$AAe?$AA?4?$AAd?$AAl?$AAl@ 000000018003fd98     libucrt:exit.obj
 0002:00001db0       ??_C@_0P@MIGLKIOC@CorExitProcess@ 000000018003fdb0     libucrt:exit.obj
 0002:000020d0       ??_C@_1EA@JGEFHKEI@?$AAa?$AAp?$AAi?$AA?9?$AAm?$AAs?$AA?9?$AAw?$AAi?$AAn?$AA?9?$AAc?$AAo?$AAr?$AAe@ 00000001800400d0     libucrt:winapi_thunks.obj
 0002:00002110       ??_C@_1DI@IJCEHOCB@?$AAa?$AAp?$AAi?$AA?9?$AAm?$AAs?$AA?9?$AAw?$AAi?$AAn?$AA?9?$AAc?$AAo?$AAr?$AAe@ 0000000180040110     libucrt:winapi_thunks.obj
 0002:00002150       ??_C@_1EI@MPIAOHOC@?$AAa?$AAp?$AAi?$AA?9?$AAm?$AAs?$AA?9?$AAw?$AAi?$AAn?$AA?9?$AAc?$AAo?$AAr?$AAe@ 0000000180040150     libucrt:winapi_thunks.obj
 0002:000021a0       ??_C@_1FK@FPHCKFIE@?$AAa?$AAp?$AAi?$AA?9?$AAm?$AAs?$AA?9?$AAw?$AAi?$AAn?$AA?9?$AAc?$AAo?$AAr?$AAe@ 00000001800401a0     libucrt:winapi_thunks.obj
 0002:00002200       ??_C@_1EM@DILCGIIO@?$AAa?$AAp?$AAi?$AA?9?$AAm?$AAs?$AA?9?$AAw?$AAi?$AAn?$AA?9?$AAc?$AAo?$AAr?$AAe@ 0000000180040200     libucrt:winapi_thunks.obj
 0002:00002250       ??_C@_1DM@LNCGDDPN@?$AAa?$AAp?$AAi?$AA?9?$AAm?$AAs?$AA?9?$AAw?$AAi?$AAn?$AA?9?$AAc?$AAo?$AAr?$AAe@ 0000000180040250     libucrt:winapi_thunks.obj
 0002:00002290       ??_C@_1DO@FPAPJEMD@?$AAa?$AAp?$AAi?$AA?9?$AAm?$AAs?$AA?9?$AAw?$AAi?$AAn?$AA?9?$AAc?$AAo?$AAr?$AAe@ 0000000180040290     libucrt:winapi_thunks.obj
 0002:000022d0       ??_C@_1DK@NDHNAHIO@?$AAa?$AAp?$AAi?$AA?9?$AAm?$AAs?$AA?9?$AAw?$AAi?$AAn?$AA?9?$AAc?$AAo?$AAr?$AAe@ 00000001800402d0     libucrt:winapi_thunks.obj
 0002:00002310       ??_C@_1DM@KGHDGBCM@?$AAa?$AAp?$AAi?$AA?9?$AAm?$AAs?$AA?9?$AAw?$AAi?$AAn?$AA?9?$AAc?$AAo?$AAr?$AAe@ 0000000180040310     libucrt:winapi_thunks.obj
 0002:00002350       ??_C@_1EO@IJIOEFOH@?$AAa?$AAp?$AAi?$AA?9?$AAm?$AAs?$AA?9?$AAw?$AAi?$AAn?$AA?9?$AAr?$AAt?$AAc?$AAo@ 0000000180040350     libucrt:winapi_thunks.obj
 0002:000023a0       ??_C@_1FG@HHGEKANL@?$AAa?$AAp?$AAi?$AA?9?$AAm?$AAs?$AA?9?$AAw?$AAi?$AAn?$AA?9?$AAs?$AAe?$AAc?$AAu@ 00000001800403a0     libucrt:winapi_thunks.obj
 0002:00002400       ??_C@_1EG@DBIOJECG@?$AAe?$AAx?$AAt?$AA?9?$AAm?$AAs?$AA?9?$AAw?$AAi?$AAn?$AA?9?$AAn?$AAt?$AAu?$AAs@ 0000000180040400     libucrt:winapi_thunks.obj
 0002:00002450       ??_C@_1EO@FIHMJCLF@?$AAe?$AAx?$AAt?$AA?9?$AAm?$AAs?$AA?9?$AAw?$AAi?$AAn?$AA?9?$AAn?$AAt?$AAu?$AAs@ 0000000180040450     libucrt:winapi_thunks.obj
 0002:000024a0       ??_C@_1BC@DNHGCMLG@?$AAa?$AAd?$AAv?$AAa?$AAp?$AAi?$AA3?$AA2@ 00000001800404a0     libucrt:winapi_thunks.obj
 0002:000024b8       ??_C@_1M@OAIMIKLP@?$AAn?$AAt?$AAd?$AAl?$AAl@ 00000001800404b8     libucrt:winapi_thunks.obj
 0002:000024d0       ??_C@_1EG@DPGNFKGC@?$AAa?$AAp?$AAi?$AA?9?$AAm?$AAs?$AA?9?$AAw?$AAi?$AAn?$AA?9?$AAa?$AAp?$AAp?$AAm@ 00000001800404d0     libucrt:winapi_thunks.obj
 0002:00002518       ??_C@_1O@BCCLBEOE@?$AAu?$AAs?$AAe?$AAr?$AA3?$AA2@ 0000000180040518     libucrt:winapi_thunks.obj
 0002:00002528       ??_C@_1BA@IAIFMGEF@?$AAe?$AAx?$AAt?$AA?9?$AAm?$AAs?$AA?9@ 0000000180040528     libucrt:winapi_thunks.obj
 0002:00002540       ??_C@_0BA@FHFNEAED@AreFileApisANSI@ 0000000180040540     libucrt:winapi_thunks.obj
 0002:00002578       ??_C@_0BA@HNOPNCHB@GetActiveWindow@ 0000000180040578     libucrt:winapi_thunks.obj
 0002:00002590       ??_C@_0BD@HHGDFDBJ@GetLastActivePopup@ 0000000180040590     libucrt:winapi_thunks.obj
 0002:000025b0       ??_C@_0BI@DFKBFLJE@GetProcessWindowStation@ 00000001800405b0     libucrt:winapi_thunks.obj
 0002:000025d0       ??_C@_0BK@DEKFELLI@GetUserObjectInformationW@ 00000001800405d0     libucrt:winapi_thunks.obj
 0002:00002600       ??_C@_0O@KKBNKAPF@LCMapStringEx@ 0000000180040600     libucrt:winapi_thunks.obj
 0002:00002618       ??_C@_0BB@HBDEELFH@LocaleNameToLCID@ 0000000180040618     libucrt:winapi_thunks.obj
 0002:00002638       ??_C@_0M@CHKKJDAI@MessageBoxA@ 0000000180040638     libucrt:winapi_thunks.obj
 0002:00002650       ??_C@_0M@DLDCCGNP@MessageBoxW@ 0000000180040650     libucrt:winapi_thunks.obj
 0002:00002660       ??_C@_0CF@OJOFEIGO@AppPolicyGetProcessTerminationM@ 0000000180040660     libucrt:winapi_thunks.obj
 0002:00002690       ??_C@_0CE@OICFMIKE@AppPolicyGetShowDeveloperDiagno@ 0000000180040690     libucrt:winapi_thunks.obj
 0002:000026b8       ??_C@_0BL@ODDJNEDA@AppPolicyGetWindowingModel@ 00000001800406b8     libucrt:winapi_thunks.obj
 0002:00002760       ??_C@_03OEIAHPBN@INF@      0000000180040760     libucrt:cvt.obj
 0002:00002764       ??_C@_03OJHLLCGB@inf@      0000000180040764     libucrt:cvt.obj
 0002:00002768       ??_C@_03LKNCIKJB@NAN@      0000000180040768     libucrt:cvt.obj
 0002:0000276c       ??_C@_03LHCJEHON@nan@      000000018004076c     libucrt:cvt.obj
 0002:00002770       ??_C@_09OFJJIMPC@NAN?$CISNAN?$CJ@ 0000000180040770     libucrt:cvt.obj
 0002:00002780       ??_C@_09IPFBKMDL@nan?$CIsnan?$CJ@ 0000000180040780     libucrt:cvt.obj
 0002:00002790       ??_C@_08IKHNHAJ@NAN?$CIIND?$CJ@ 0000000180040790     libucrt:cvt.obj
 0002:000027a0       ??_C@_08OFCDMILK@nan?$CIind?$CJ@ 00000001800407a0     libucrt:cvt.obj
 0002:000027ac       ??_C@_05KLBDPFGC@e?$CL000@ 00000001800407ac     libucrt:cvt.obj
 0002:000027c0       __lc_time_c                00000001800407c0     libucrt:nlsdata.obj
 0002:00002a80       ??_C@_03KOEHGMDN@Sun@      0000000180040a80     libucrt:nlsdata.obj
 0002:00002a84       ??_C@_03PDAGKDH@Mon@       0000000180040a84     libucrt:nlsdata.obj
 0002:00002a88       ??_C@_03NAGEINEP@Tue@      0000000180040a88     libucrt:nlsdata.obj
 0002:00002a8c       ??_C@_03MHOMLAJA@Wed@      0000000180040a8c     libucrt:nlsdata.obj
 0002:00002a90       ??_C@_03IOFIKPDN@Thu@      0000000180040a90     libucrt:nlsdata.obj
 0002:00002a94       ??_C@_03IDIOELNC@Fri@      0000000180040a94     libucrt:nlsdata.obj
 0002:00002a98       ??_C@_03FEFJNEK@Sat@       0000000180040a98     libucrt:nlsdata.obj
 0002:00002a9c       ??_C@_06OOPIFAJ@Sunday@    0000000180040a9c     libucrt:nlsdata.obj
 0002:00002aa4       ??_C@_06JLEDEDGH@Monday@   0000000180040aa4     libucrt:nlsdata.obj
 0002:00002ab0       ??_C@_07BAAGCFCM@Tuesday@  0000000180040ab0     libucrt:nlsdata.obj
 0002:00002ab8       ??_C@_09DLIGFAKA@Wednesday@ 0000000180040ab8     libucrt:nlsdata.obj
 0002:00002ac8       ??_C@_08HACCIKIA@Thursday@ 0000000180040ac8     libucrt:nlsdata.obj
 0002:00002ad4       ??_C@_06JECMNKMI@Friday@   0000000180040ad4     libucrt:nlsdata.obj
 0002:00002ae0       ??_C@_08INBOOONO@Saturday@ 0000000180040ae0     libucrt:nlsdata.obj
 0002:00002aec       ??_C@_03JIHJHPIE@Jan@      0000000180040aec     libucrt:nlsdata.obj
 0002:00002af0       ??_C@_03HJBDCHOM@Feb@      0000000180040af0     libucrt:nlsdata.obj
 0002:00002af4       ??_C@_03ODNJBKGA@Mar@      0000000180040af4     libucrt:nlsdata.obj
 0002:00002af8       ??_C@_03LEOLGMJP@Apr@      0000000180040af8     libucrt:nlsdata.obj
 0002:00002afc       ??_C@_03CNMDKL@May@        0000000180040afc     libucrt:nlsdata.obj
 0002:00002b00       ??_C@_03IDFGHECI@Jun@      0000000180040b00     libucrt:nlsdata.obj
 0002:00002b04       ??_C@_03LBGABGKK@Jul@      0000000180040b04     libucrt:nlsdata.obj
 0002:00002b08       ??_C@_03IFJFEIGA@Aug@      0000000180040b08     libucrt:nlsdata.obj
 0002:00002b0c       ??_C@_03GGCAPAJC@Sep@      0000000180040b0c     libucrt:nlsdata.obj
 0002:00002b10       ??_C@_03BMAOKBAD@Oct@      0000000180040b10     libucrt:nlsdata.obj
 0002:00002b14       ??_C@_03JPJOFNIA@Nov@      0000000180040b14     libucrt:nlsdata.obj
 0002:00002b18       ??_C@_03MKABNOCG@Dec@      0000000180040b18     libucrt:nlsdata.obj
 0002:00002b20       ??_C@_07CGJPFGJA@January@  0000000180040b20     libucrt:nlsdata.obj
 0002:00002b28       ??_C@_08GNJGEPFN@February@ 0000000180040b28     libucrt:nlsdata.obj
 0002:00002b34       ??_C@_05HPCKOFNC@March@    0000000180040b34     libucrt:nlsdata.obj
 0002:00002b3c       ??_C@_05DMJDNLEJ@April@    0000000180040b3c     libucrt:nlsdata.obj
 0002:00002b44       ??_C@_04CNLMGBGM@June@     0000000180040b44     libucrt:nlsdata.obj
 0002:00002b4c       ??_C@_04MIEPOIFP@July@     0000000180040b4c     libucrt:nlsdata.obj
 0002:00002b54       ??_C@_06LBBHFDDG@August@   0000000180040b54     libucrt:nlsdata.obj
 0002:00002b60       ??_C@_09BHHEALKD@September@ 0000000180040b60     libucrt:nlsdata.obj
 0002:00002b70       ??_C@_07JJNFCEND@October@  0000000180040b70     libucrt:nlsdata.obj
 0002:00002b78       ??_C@_08HCHEGEOA@November@ 0000000180040b78     libucrt:nlsdata.obj
 0002:00002b88       ??_C@_08EDHMEBNP@December@ 0000000180040b88     libucrt:nlsdata.obj
 0002:00002b94       ??_C@_02DEDBPAFC@AM@       0000000180040b94     libucrt:nlsdata.obj
 0002:00002b98       ??_C@_02CJNFDJBF@PM@       0000000180040b98     libucrt:nlsdata.obj
 0002:00002ba0       ??_C@_08BPBNCDIB@MM?1dd?1yy@ 0000000180040ba0     libucrt:nlsdata.obj
 0002:00002bb0       ??_C@_0BE@CKGJFCPC@dddd?0?5MMMM?5dd?0?5yyyy@ 0000000180040bb0     libucrt:nlsdata.obj
 0002:00002bc8       ??_C@_08JCCMCCIL@HH?3mm?3ss@ 0000000180040bc8     libucrt:nlsdata.obj
 0002:00002bd8       ??_C@_17MBGCMIPB@?$AAS?$AAu?$AAn@ 0000000180040bd8     libucrt:nlsdata.obj
 0002:00002be0       ??_C@_17KBOMKBF@?$AAM?$AAo?$AAn@ 0000000180040be0     libucrt:nlsdata.obj
 0002:00002be8       ??_C@_17BMKGEGOJ@?$AAT?$AAu?$AAe@ 0000000180040be8     libucrt:nlsdata.obj
 0002:00002bf0       ??_C@_17CJEDCEPE@?$AAW?$AAe?$AAd@ 0000000180040bf0     libucrt:nlsdata.obj
 0002:00002bf8       ??_C@_17PDPHAADD@?$AAT?$AAh?$AAu@ 0000000180040bf8     libucrt:nlsdata.obj
 0002:00002c00       ??_C@_17HFOLPPLP@?$AAF?$AAr?$AAi@ 0000000180040c00     libucrt:nlsdata.obj
 0002:00002c08       ??_C@_17GGIBDPIH@?$AAS?$AAa?$AAt@ 0000000180040c08     libucrt:nlsdata.obj
 0002:00002c10       ??_C@_1O@IHNHDHPB@?$AAS?$AAu?$AAn?$AAd?$AAa?$AAy@ 0000000180040c10     libucrt:nlsdata.obj
 0002:00002c20       ??_C@_1O@MMNBFLIA@?$AAM?$AAo?$AAn?$AAd?$AAa?$AAy@ 0000000180040c20     libucrt:nlsdata.obj
 0002:00002c30       ??_C@_1BA@ENFBFFEK@?$AAT?$AAu?$AAe?$AAs?$AAd?$AAa?$AAy@ 0000000180040c30     libucrt:nlsdata.obj
 0002:00002c40       ??_C@_1BE@EBOGMDOH@?$AAW?$AAe?$AAd?$AAn?$AAe?$AAs?$AAd?$AAa?$AAy@ 0000000180040c40     libucrt:nlsdata.obj
 0002:00002c58       ??_C@_1BC@HHMNLIHE@?$AAT?$AAh?$AAu?$AAr?$AAs?$AAd?$AAa?$AAy@ 0000000180040c58     libucrt:nlsdata.obj
 0002:00002c70       ??_C@_1O@PDICJHAG@?$AAF?$AAr?$AAi?$AAd?$AAa?$AAy@ 0000000180040c70     libucrt:nlsdata.obj
 0002:00002c80       ??_C@_1BC@ENMNNPAJ@?$AAS?$AAa?$AAt?$AAu?$AAr?$AAd?$AAa?$AAy@ 0000000180040c80     libucrt:nlsdata.obj
 0002:00002c98       ??_C@_17DKNBKCHM@?$AAJ?$AAa?$AAn@ 0000000180040c98     libucrt:nlsdata.obj
 0002:00002ca0       ??_C@_17LMDJEKJN@?$AAF?$AAe?$AAb@ 0000000180040ca0     libucrt:nlsdata.obj
 0002:00002ca8       ??_C@_17CKNLEDEC@?$AAM?$AAa?$AAr@ 0000000180040ca8     libucrt:nlsdata.obj
 0002:00002cb0       ??_C@_17LFPOIHDD@?$AAA?$AAp?$AAr@ 0000000180040cb0     libucrt:nlsdata.obj
 0002:00002cb8       ??_C@_17PNNKMEED@?$AAM?$AAa?$AAy@ 0000000180040cb8     libucrt:nlsdata.obj
 0002:00002cc0       ??_C@_17KCJGOCPB@?$AAJ?$AAu?$AAn@ 0000000180040cc0     libucrt:nlsdata.obj
 0002:00002cc8       ??_C@_17IJPCKHK@?$AAJ?$AAu?$AAl@ 0000000180040cc8     libucrt:nlsdata.obj
 0002:00002cd0       ??_C@_17ICPELBCN@?$AAA?$AAu?$AAg@ 0000000180040cd0     libucrt:nlsdata.obj
 0002:00002cd8       ??_C@_17HCHCOKMG@?$AAS?$AAe?$AAp@ 0000000180040cd8     libucrt:nlsdata.obj
 0002:00002ce0       ??_C@_17FNLKOI@?$AAO?$AAc?$AAt@ 0000000180040ce0     libucrt:nlsdata.obj
 0002:00002ce8       ??_C@_17BBDMLCIG@?$AAN?$AAo?$AAv@ 0000000180040ce8     libucrt:nlsdata.obj
 0002:00002cf0       ??_C@_17EGKACKIF@?$AAD?$AAe?$AAc@ 0000000180040cf0     libucrt:nlsdata.obj
 0002:00002cf8       ??_C@_1BA@EFMEIEBA@?$AAJ?$AAa?$AAn?$AAu?$AAa?$AAr?$AAy@ 0000000180040cf8     libucrt:nlsdata.obj
 0002:00002d08       ??_C@_1BC@JGDDFFAM@?$AAF?$AAe?$AAb?$AAr?$AAu?$AAa?$AAr?$AAy@ 0000000180040d08     libucrt:nlsdata.obj
 0002:00002d20       ??_C@_1M@IKEENEDF@?$AAM?$AAa?$AAr?$AAc?$AAh@ 0000000180040d20     libucrt:nlsdata.obj
 0002:00002d30       ??_C@_1M@GJNLMHFD@?$AAA?$AAp?$AAr?$AAi?$AAl@ 0000000180040d30     libucrt:nlsdata.obj
 0002:00002d40       ??_C@_19EPFLPGAP@?$AAJ?$AAu?$AAn?$AAe@ 0000000180040d40     libucrt:nlsdata.obj
 0002:00002d50       ??_C@_19BIFMLPCD@?$AAJ?$AAu?$AAl?$AAy@ 0000000180040d50     libucrt:nlsdata.obj
 0002:00002d60       ??_C@_1O@PAHLKOAC@?$AAA?$AAu?$AAg?$AAu?$AAs?$AAt@ 0000000180040d60     libucrt:nlsdata.obj
 0002:00002d70       ??_C@_1BE@DKAAMBJL@?$AAS?$AAe?$AAp?$AAt?$AAe?$AAm?$AAb?$AAe?$AAr@ 0000000180040d70     libucrt:nlsdata.obj
 0002:00002d88       ??_C@_1BA@EPANDLNG@?$AAO?$AAc?$AAt?$AAo?$AAb?$AAe?$AAr@ 0000000180040d88     libucrt:nlsdata.obj
 0002:00002d98       ??_C@_1BC@BGLIFPF@?$AAN?$AAo?$AAv?$AAe?$AAm?$AAb?$AAe?$AAr@ 0000000180040d98     libucrt:nlsdata.obj
 0002:00002db0       ??_C@_1BC@FEMKIFH@?$AAD?$AAe?$AAc?$AAe?$AAm?$AAb?$AAe?$AAr@ 0000000180040db0     libucrt:nlsdata.obj
 0002:00002dc4       ??_C@_15ODEHAHHF@?$AAA?$AAM@ 0000000180040dc4     libucrt:nlsdata.obj
 0002:00002dcc       ??_C@_15CLMNNGEL@?$AAP?$AAM@ 0000000180040dcc     libucrt:nlsdata.obj
 0002:00002dd8       ??_C@_1BC@IEBCMHCM@?$AAM?$AAM?$AA?1?$AAd?$AAd?$AA?1?$AAy?$AAy@ 0000000180040dd8     libucrt:nlsdata.obj
 0002:00002df0       ??_C@_1CI@KNAKOEBC@?$AAd?$AAd?$AAd?$AAd?$AA?0?$AA?5?$AAM?$AAM?$AAM?$AAM?$AA?5?$AAd?$AAd?$AA?0?$AA?5@ 0000000180040df0     libucrt:nlsdata.obj
 0002:00002e18       ??_C@_1BC@GDGBMEMK@?$AAH?$AAH?$AA?3?$AAm?$AAm?$AA?3?$AAs?$AAs@ 0000000180040e18     libucrt:nlsdata.obj
 0002:00002e30       ??_C@_1M@BMHNFIME@?$AAe?$AAn?$AA?9?$AAU?$AAS@ 0000000180040e30     libucrt:nlsdata.obj
 0002:00002e60       ??_C@_1M@HPNHIDJI@?$AAj?$AAa?$AA?9?$AAJ?$AAP@ 0000000180040e60     libucrt:mbctype.obj
 0002:00002e70       ??_C@_1M@BIBDDEMK@?$AAz?$AAh?$AA?9?$AAC?$AAN@ 0000000180040e70     libucrt:mbctype.obj
 0002:00002e80       ??_C@_1M@JLOOOEGK@?$AAk?$AAo?$AA?9?$AAK?$AAR@ 0000000180040e80     libucrt:mbctype.obj
 0002:00002e90       ??_C@_1M@CLNBBOPM@?$AAz?$AAh?$AA?9?$AAT?$AAW@ 0000000180040e90     libucrt:mbctype.obj
 0002:00002ea0       __newctype                 0000000180040ea0     libucrt:ctype.obj
 0002:000031a0       __newclmap                 00000001800411a0     libucrt:ctype.obj
 0002:00003320       __newcumap                 0000000180041320     libucrt:ctype.obj
 0002:000034a0       _wctype                    00000001800414a0     libucrt:ctype.obj
 0002:000044f0       ??_C@_15EMKDOKLE@?$AAa?$AAr@ 00000001800424f0     libucrt:lcidtoname_downlevel.obj
 0002:000044f8       ??_C@_15KNPADPLH@?$AAb?$AAg@ 00000001800424f8     libucrt:lcidtoname_downlevel.obj
 0002:00004500       ??_C@_15EDMHLDMO@?$AAc?$AAa@ 0000000180042500     libucrt:lcidtoname_downlevel.obj
 0002:00004508       ??_C@_1O@BPEAJADD@?$AAz?$AAh?$AA?9?$AAC?$AAH?$AAS@ 0000000180042508     libucrt:lcidtoname_downlevel.obj
 0002:00004518       ??_C@_15LJNHCMNK@?$AAc?$AAs@ 0000000180042518     libucrt:lcidtoname_downlevel.obj
 0002:00004520       ??_C@_15FOMCIDHG@?$AAd?$AAa@ 0000000180042520     libucrt:lcidtoname_downlevel.obj
 0002:00004528       ??_C@_15NBKABECB@?$AAd?$AAe@ 0000000180042528     libucrt:lcidtoname_downlevel.obj
 0002:00004530       ??_C@_15GHPEIIAO@?$AAe?$AAl@ 0000000180042530     libucrt:lcidtoname_downlevel.obj
 0002:00004538       ??_C@_15MNPNEAIF@?$AAe?$AAn@ 0000000180042538     libucrt:lcidtoname_downlevel.obj
 0002:00004540       ??_C@_15GPIOMPMH@?$AAe?$AAs@ 0000000180042540     libucrt:lcidtoname_downlevel.obj
 0002:00004548       ??_C@_15NGLOAKJC@?$AAf?$AAi@ 0000000180042548     libucrt:lcidtoname_downlevel.obj
 0002:00004550       ??_C@_15FBKGNKAM@?$AAf?$AAr@ 0000000180042550     libucrt:lcidtoname_downlevel.obj
 0002:00004558       ??_C@_15KGGCNEFK@?$AAh?$AAe@ 0000000180042558     libucrt:lcidtoname_downlevel.obj
 0002:00004560       ??_C@_15PGHLIDMF@?$AAh?$AAu@ 0000000180042560     libucrt:lcidtoname_downlevel.obj
 0002:00004568       ??_C@_15BIEMAPLM@?$AAi?$AAs@ 0000000180042568     libucrt:lcidtoname_downlevel.obj
 0002:00004570       ??_C@_15IFJLDHAF@?$AAi?$AAt@ 0000000180042570     libucrt:lcidtoname_downlevel.obj
 0002:00004578       ??_C@_15GEMIOCAG@?$AAj?$AAa@ 0000000180042578     libucrt:lcidtoname_downlevel.obj
 0002:00004580       ??_C@_15EPELEGJA@?$AAk?$AAo@ 0000000180042580     libucrt:lcidtoname_downlevel.obj
 0002:00004588       ??_C@_15NDDHIMN@?$AAn?$AAl@ 0000000180042588     libucrt:lcidtoname_downlevel.obj
 0002:00004590       ??_C@_15BPIGNHCD@?$AAn?$AAo@ 0000000180042590     libucrt:lcidtoname_downlevel.obj
 0002:00004598       ??_C@_15DEOPBLCG@?$AAp?$AAl@ 0000000180042598     libucrt:lcidtoname_downlevel.obj
 0002:000045a0       ??_C@_15KBECGEFG@?$AAp?$AAt@ 00000001800425a0     libucrt:lcidtoname_downlevel.obj
 0002:000045a8       ??_C@_15GLJCBFMD@?$AAr?$AAo@ 00000001800425a8     libucrt:lcidtoname_downlevel.obj
 0002:000045b0       ??_C@_15FEDGKCDI@?$AAr?$AAu@ 00000001800425b0     libucrt:lcidtoname_downlevel.obj
 0002:000045b8       ??_C@_15GLKMLLHM@?$AAh?$AAr@ 00000001800425b8     libucrt:lcidtoname_downlevel.obj
 0002:000045c0       ??_C@_15CPKMFBDB@?$AAs?$AAk@ 00000001800425c0     libucrt:lcidtoname_downlevel.obj
 0002:000045c8       ??_C@_15BAAIOGMK@?$AAs?$AAq@ 00000001800425c8     libucrt:lcidtoname_downlevel.obj
 0002:000045d0       ??_C@_15INNPNOHD@?$AAs?$AAv@ 00000001800425d0     libucrt:lcidtoname_downlevel.obj
 0002:000045d8       ??_C@_15CABMMOGH@?$AAt?$AAh@ 00000001800425d8     libucrt:lcidtoname_downlevel.obj
 0002:000045e0       ??_C@_15BPLIHJJM@?$AAt?$AAr@ 00000001800425e0     libucrt:lcidtoname_downlevel.obj
 0002:000045e8       ??_C@_15NEOEKKDJ@?$AAu?$AAr@ 00000001800425e8     libucrt:lcidtoname_downlevel.obj
 0002:000045f0       ??_C@_15NFICGAJK@?$AAi?$AAd@ 00000001800425f0     libucrt:lcidtoname_downlevel.obj
 0002:000045f8       ??_C@_15PJPFLCCM@?$AAu?$AAk@ 00000001800425f8     libucrt:lcidtoname_downlevel.obj
 0002:00004600       ??_C@_15HPJPHDM@?$AAb?$AAe@ 0000000180042600     libucrt:lcidtoname_downlevel.obj
 0002:00004608       ??_C@_15LCHLGJII@?$AAs?$AAl@ 0000000180042608     libucrt:lcidtoname_downlevel.obj
 0002:00004610       ??_C@_15PCFJPHHO@?$AAe?$AAt@ 0000000180042610     libucrt:lcidtoname_downlevel.obj
 0002:00004618       ??_C@_15HPFPGODN@?$AAl?$AAv@ 0000000180042618     libucrt:lcidtoname_downlevel.obj
 0002:00004620       ??_C@_15NFFGKGLG@?$AAl?$AAt@ 0000000180042620     libucrt:lcidtoname_downlevel.obj
 0002:00004628       ??_C@_15BDAKCCHN@?$AAf?$AAa@ 0000000180042628     libucrt:lcidtoname_downlevel.obj
 0002:00004630       ??_C@_15NFGIAIAJ@?$AAv?$AAi@ 0000000180042630     libucrt:lcidtoname_downlevel.obj
 0002:00004638       ??_C@_15LMKNDMHN@?$AAh?$AAy@ 0000000180042638     libucrt:lcidtoname_downlevel.obj
 0002:00004640       ??_C@_15IJBHMCFL@?$AAa?$AAz@ 0000000180042640     libucrt:lcidtoname_downlevel.obj
 0002:00004648       ??_C@_15EKOFJABL@?$AAe?$AAu@ 0000000180042648     libucrt:lcidtoname_downlevel.obj
 0002:00004650       ??_C@_15BGHADCNK@?$AAm?$AAk@ 0000000180042650     libucrt:lcidtoname_downlevel.obj
 0002:00004658       ??_C@_15JDNICKHM@?$AAa?$AAf@ 0000000180042658     libucrt:lcidtoname_downlevel.obj
 0002:00004660       ??_C@_15KPJEDBKD@?$AAk?$AAa@ 0000000180042660     libucrt:lcidtoname_downlevel.obj
 0002:00004668       ??_C@_15PDNFFFEO@?$AAf?$AAo@ 0000000180042668     libucrt:lcidtoname_downlevel.obj
 0002:00004670       ??_C@_15OMLEGLOC@?$AAh?$AAi@ 0000000180042670     libucrt:lcidtoname_downlevel.obj
 0002:00004678       ??_C@_15IDNNENKK@?$AAm?$AAs@ 0000000180042678     libucrt:lcidtoname_downlevel.obj
 0002:00004680       ??_C@_15MACJNBMH@?$AAk?$AAk@ 0000000180042680     libucrt:lcidtoname_downlevel.obj
 0002:00004688       ??_C@_15DKDJEOND@?$AAk?$AAy@ 0000000180042688     libucrt:lcidtoname_downlevel.obj
 0002:00004690       ??_C@_15DFGDLJBG@?$AAs?$AAw@ 0000000180042690     libucrt:lcidtoname_downlevel.obj
 0002:00004698       ??_C@_15BBFAICNG@?$AAu?$AAz@ 0000000180042698     libucrt:lcidtoname_downlevel.obj
 0002:000046a0       ??_C@_15DKNDCGEA@?$AAt?$AAt@ 00000001800426a0     libucrt:lcidtoname_downlevel.obj
 0002:000046a8       ??_C@_15MGIFMDPL@?$AAp?$AAa@ 00000001800426a8     libucrt:lcidtoname_downlevel.obj
 0002:000046b0       ??_C@_15HCNDBBA@?$AAg?$AAu@ 00000001800426b0     libucrt:lcidtoname_downlevel.obj
 0002:000046b8       ??_C@_15FNBEIBON@?$AAt?$AAa@ 00000001800426b8     libucrt:lcidtoname_downlevel.obj
 0002:000046c0       ??_C@_15NCHGBGLK@?$AAt?$AAe@ 00000001800426c0     libucrt:lcidtoname_downlevel.obj
 0002:000046c8       ??_C@_15PHPHCBPF@?$AAk?$AAn@ 00000001800426c8     libucrt:lcidtoname_downlevel.obj
 0002:000046d0       ??_C@_15DLGBCKMP@?$AAm?$AAr@ 00000001800426d0     libucrt:lcidtoname_downlevel.obj
 0002:000046d8       ??_C@_15EABBLBFF@?$AAs?$AAa@ 00000001800426d8     libucrt:lcidtoname_downlevel.obj
 0002:000046e0       ??_C@_15CBKOMCOI@?$AAm?$AAn@ 00000001800426e0     libucrt:lcidtoname_downlevel.obj
 0002:000046e8       ??_C@_15CKDMCJAF@?$AAg?$AAl@ 00000001800426e8     libucrt:lcidtoname_downlevel.obj
 0002:000046f0       ??_C@_17CNJFBPG@?$AAk?$AAo?$AAk@ 00000001800426f0     libucrt:lcidtoname_downlevel.obj
 0002:000046f8       ??_C@_17FFBJICPL@?$AAs?$AAy?$AAr@ 00000001800426f8     libucrt:lcidtoname_downlevel.obj
 0002:00004700       ??_C@_17KPNDCPAF@?$AAd?$AAi?$AAv@ 0000000180042700     libucrt:lcidtoname_downlevel.obj
 0002:00004708       ??_C@_11LOCGONAA@@         0000000180042708     libucrt:lcidtoname_downlevel.obj
 0002:00004710       ??_C@_1M@OKAHONE@?$AAa?$AAr?$AA?9?$AAS?$AAA@ 0000000180042710     libucrt:lcidtoname_downlevel.obj
 0002:00004720       ??_C@_1M@FFFIGIGK@?$AAb?$AAg?$AA?9?$AAB?$AAG@ 0000000180042720     libucrt:lcidtoname_downlevel.obj
 0002:00004730       ??_C@_1M@BJNKEDC@?$AAc?$AAa?$AA?9?$AAE?$AAS@ 0000000180042730     libucrt:lcidtoname_downlevel.obj
 0002:00004740       ??_C@_1M@IJJHFJHA@?$AAc?$AAs?$AA?9?$AAC?$AAZ@ 0000000180042740     libucrt:lcidtoname_downlevel.obj
 0002:00004750       ??_C@_1M@CLPEOBGI@?$AAd?$AAa?$AA?9?$AAD?$AAK@ 0000000180042750     libucrt:lcidtoname_downlevel.obj
 0002:00004760       ??_C@_1M@MCMADGCB@?$AAd?$AAe?$AA?9?$AAD?$AAE@ 0000000180042760     libucrt:lcidtoname_downlevel.obj
 0002:00004770       ??_C@_1M@OOCKEMAM@?$AAe?$AAl?$AA?9?$AAG?$AAR@ 0000000180042770     libucrt:lcidtoname_downlevel.obj
 0002:00004780       ??_C@_1M@DDNJFGID@?$AAf?$AAi?$AA?9?$AAF?$AAI@ 0000000180042780     libucrt:lcidtoname_downlevel.obj
 0002:00004790       ??_C@_1M@GLIPPMAC@?$AAf?$AAr?$AA?9?$AAF?$AAR@ 0000000180042790     libucrt:lcidtoname_downlevel.obj
 0002:000047a0       ??_C@_1M@GFMCHPE@?$AAh?$AAe?$AA?9?$AAI?$AAL@ 00000001800427a0     libucrt:lcidtoname_downlevel.obj
 0002:000047b0       ??_C@_1M@MHLPGNKM@?$AAh?$AAu?$AA?9?$AAH?$AAU@ 00000001800427b0     libucrt:lcidtoname_downlevel.obj
 0002:000047c0       ??_C@_1M@LPDDNNPN@?$AAi?$AAs?$AA?9?$AAI?$AAS@ 00000001800427c0     libucrt:lcidtoname_downlevel.obj
 0002:000047d0       ??_C@_1M@MADIPODN@?$AAi?$AAt?$AA?9?$AAI?$AAT@ 00000001800427d0     libucrt:lcidtoname_downlevel.obj
 0002:000047e0       ??_C@_1M@IHBJJGG@?$AAn?$AAl?$AA?9?$AAN?$AAL@ 00000001800427e0     libucrt:lcidtoname_downlevel.obj
 0002:000047f0       ??_C@_1M@EANAGDL@?$AAn?$AAb?$AA?9?$AAN?$AAO@ 00000001800427f0     libucrt:lcidtoname_downlevel.obj
 0002:00004800       ??_C@_1M@NEIEMEGP@?$AAp?$AAl?$AA?9?$AAP?$AAL@ 0000000180042800     libucrt:lcidtoname_downlevel.obj
 0002:00004810       ??_C@_1M@BOCFIGEP@?$AAp?$AAt?$AA?9?$AAB?$AAR@ 0000000180042810     libucrt:lcidtoname_downlevel.obj
 0002:00004820       ??_C@_1M@IMPFOPBG@?$AAr?$AAo?$AA?9?$AAR?$AAO@ 0000000180042820     libucrt:lcidtoname_downlevel.obj
 0002:00004830       ??_C@_1M@IDNNEJMM@?$AAr?$AAu?$AA?9?$AAR?$AAU@ 0000000180042830     libucrt:lcidtoname_downlevel.obj
 0002:00004840       ??_C@_1M@LILEEOGM@?$AAh?$AAr?$AA?9?$AAH?$AAR@ 0000000180042840     libucrt:lcidtoname_downlevel.obj
 0002:00004850       ??_C@_1M@FKIFEHPB@?$AAs?$AAk?$AA?9?$AAS?$AAK@ 0000000180042850     libucrt:lcidtoname_downlevel.obj
 0002:00004860       ??_C@_1M@LJMAMNPJ@?$AAs?$AAq?$AA?9?$AAA?$AAL@ 0000000180042860     libucrt:lcidtoname_downlevel.obj
 0002:00004870       ??_C@_1M@GIAKDKJK@?$AAs?$AAv?$AA?9?$AAS?$AAE@ 0000000180042870     libucrt:lcidtoname_downlevel.obj
 0002:00004880       ??_C@_1M@MKJKIKCL@?$AAt?$AAh?$AA?9?$AAT?$AAH@ 0000000180042880     libucrt:lcidtoname_downlevel.obj
 0002:00004890       ??_C@_1M@MFLCCMPB@?$AAt?$AAr?$AA?9?$AAT?$AAR@ 0000000180042890     libucrt:lcidtoname_downlevel.obj
 0002:000048a0       ??_C@_1M@OIJHDKJN@?$AAu?$AAr?$AA?9?$AAP?$AAK@ 00000001800428a0     libucrt:lcidtoname_downlevel.obj
 0002:000048b0       ??_C@_1M@LHIPCIEK@?$AAi?$AAd?$AA?9?$AAI?$AAD@ 00000001800428b0     libucrt:lcidtoname_downlevel.obj
 0002:000048c0       ??_C@_1M@MFMOBGI@?$AAu?$AAk?$AA?9?$AAU?$AAA@ 00000001800428c0     libucrt:lcidtoname_downlevel.obj
 0002:000048d0       ??_C@_1M@OBGLJIPL@?$AAb?$AAe?$AA?9?$AAB?$AAY@ 00000001800428d0     libucrt:lcidtoname_downlevel.obj
 0002:000048e0       ??_C@_1M@BCFAJEAD@?$AAs?$AAl?$AA?9?$AAS?$AAI@ 00000001800428e0     libucrt:lcidtoname_downlevel.obj
 0002:000048f0       ??_C@_1M@FKFFEDDN@?$AAe?$AAt?$AA?9?$AAE?$AAE@ 00000001800428f0     libucrt:lcidtoname_downlevel.obj
 0002:00004900       ??_C@_1M@KGKKAACI@?$AAl?$AAv?$AA?9?$AAL?$AAV@ 0000000180042900     libucrt:lcidtoname_downlevel.obj
 0002:00004910       ??_C@_1M@IFGBIJO@?$AAl?$AAt?$AA?9?$AAL?$AAT@ 0000000180042910     libucrt:lcidtoname_downlevel.obj
 0002:00004920       ??_C@_1M@FGEAHEDM@?$AAf?$AAa?$AA?9?$AAI?$AAR@ 0000000180042920     libucrt:lcidtoname_downlevel.obj
 0002:00004930       ??_C@_1M@KBMAIBFN@?$AAv?$AAi?$AA?9?$AAV?$AAN@ 0000000180042930     libucrt:lcidtoname_downlevel.obj
 0002:00004940       ??_C@_1M@GPCBKDJK@?$AAh?$AAy?$AA?9?$AAA?$AAM@ 0000000180042940     libucrt:lcidtoname_downlevel.obj
 0002:00004950       ??_C@_1BG@BECMDDJB@?$AAa?$AAz?$AA?9?$AAA?$AAZ?$AA?9?$AAL?$AAa?$AAt?$AAn@ 0000000180042950     libucrt:lcidtoname_downlevel.obj
 0002:00004968       ??_C@_1M@MAOFCAEA@?$AAe?$AAu?$AA?9?$AAE?$AAS@ 0000000180042968     libucrt:lcidtoname_downlevel.obj
 0002:00004978       ??_C@_1M@IGHABKPI@?$AAm?$AAk?$AA?9?$AAM?$AAK@ 0000000180042978     libucrt:lcidtoname_downlevel.obj
 0002:00004988       ??_C@_1M@IAIGNEJG@?$AAt?$AAn?$AA?9?$AAZ?$AAA@ 0000000180042988     libucrt:lcidtoname_downlevel.obj
 0002:00004998       ??_C@_1M@IIJCOJFA@?$AAx?$AAh?$AA?9?$AAZ?$AAA@ 0000000180042998     libucrt:lcidtoname_downlevel.obj
 0002:000049a8       ??_C@_1M@LGPJHNJH@?$AAz?$AAu?$AA?9?$AAZ?$AAA@ 00000001800429a8     libucrt:lcidtoname_downlevel.obj
 0002:000049b8       ??_C@_1M@HOKAOIO@?$AAa?$AAf?$AA?9?$AAZ?$AAA@ 00000001800429b8     libucrt:lcidtoname_downlevel.obj
 0002:000049c8       ??_C@_1M@DPCLHLIE@?$AAk?$AAa?$AA?9?$AAG?$AAE@ 00000001800429c8     libucrt:lcidtoname_downlevel.obj
 0002:000049d8       ??_C@_1M@BLKMHJBI@?$AAf?$AAo?$AA?9?$AAF?$AAO@ 00000001800429d8     libucrt:lcidtoname_downlevel.obj
 0002:000049e8       ??_C@_1M@LGGJAPPB@?$AAh?$AAi?$AA?9?$AAI?$AAN@ 00000001800429e8     libucrt:lcidtoname_downlevel.obj
 0002:000049f8       ??_C@_1M@FIKPIHFE@?$AAm?$AAt?$AA?9?$AAM?$AAT@ 00000001800429f8     libucrt:lcidtoname_downlevel.obj
 0002:00004a08       ??_C@_1M@HEGGPBFA@?$AAs?$AAe?$AA?9?$AAN?$AAO@ 0000000180042a08     libucrt:lcidtoname_downlevel.obj
 0002:00004a18       ??_C@_1M@EIBJEEPA@?$AAm?$AAs?$AA?9?$AAM?$AAY@ 0000000180042a18     libucrt:lcidtoname_downlevel.obj
 0002:00004a28       ??_C@_1M@FHLBGMPP@?$AAk?$AAk?$AA?9?$AAK?$AAZ@ 0000000180042a28     libucrt:lcidtoname_downlevel.obj
 0002:00004a38       ??_C@_1M@NGJJLCGI@?$AAk?$AAy?$AA?9?$AAK?$AAG@ 0000000180042a38     libucrt:lcidtoname_downlevel.obj
 0002:00004a48       ??_C@_1M@GIENNBFC@?$AAs?$AAw?$AA?9?$AAK?$AAE@ 0000000180042a48     libucrt:lcidtoname_downlevel.obj
 0002:00004a58       ??_C@_1BG@NDGMJIMJ@?$AAu?$AAz?$AA?9?$AAU?$AAZ?$AA?9?$AAL?$AAa?$AAt?$AAn@ 0000000180042a58     libucrt:lcidtoname_downlevel.obj
 0002:00004a70       ??_C@_1M@IDCCIHBC@?$AAt?$AAt?$AA?9?$AAR?$AAU@ 0000000180042a70     libucrt:lcidtoname_downlevel.obj
 0002:00004a80       ??_C@_1M@LOICPMOJ@?$AAb?$AAn?$AA?9?$AAI?$AAN@ 0000000180042a80     libucrt:lcidtoname_downlevel.obj
 0002:00004a90       ??_C@_1M@KPKKNEAH@?$AAp?$AAa?$AA?9?$AAI?$AAN@ 0000000180042a90     libucrt:lcidtoname_downlevel.obj
 0002:00004aa0       ??_C@_1M@PJGPPBOG@?$AAg?$AAu?$AA?9?$AAI?$AAN@ 0000000180042aa0     libucrt:lcidtoname_downlevel.obj
 0002:00004ab0       ??_C@_1M@KMKMOPHI@?$AAt?$AAa?$AA?9?$AAI?$AAN@ 0000000180042ab0     libucrt:lcidtoname_downlevel.obj
 0002:00004ac0       ??_C@_1M@KFEHEPAC@?$AAt?$AAe?$AA?9?$AAI?$AAN@ 0000000180042ac0     libucrt:lcidtoname_downlevel.obj
 0002:00004ad0       ??_C@_1M@CDCLMGHI@?$AAk?$AAn?$AA?9?$AAI?$AAN@ 0000000180042ad0     libucrt:lcidtoname_downlevel.obj
 0002:00004ae0       ??_C@_1M@MIODLDKF@?$AAm?$AAl?$AA?9?$AAI?$AAN@ 0000000180042ae0     libucrt:lcidtoname_downlevel.obj
 0002:00004af0       ??_C@_1M@PBIEACPO@?$AAm?$AAr?$AA?9?$AAI?$AAN@ 0000000180042af0     libucrt:lcidtoname_downlevel.obj
 0002:00004b00       ??_C@_1M@NIDEAGPH@?$AAs?$AAa?$AA?9?$AAI?$AAN@ 0000000180042b00     libucrt:lcidtoname_downlevel.obj
 0002:00004b10       ??_C@_1M@FHIHCBIO@?$AAm?$AAn?$AA?9?$AAM?$AAN@ 0000000180042b10     libucrt:lcidtoname_downlevel.obj
 0002:00004b20       ??_C@_1M@JAIJPENP@?$AAc?$AAy?$AA?9?$AAG?$AAB@ 0000000180042b20     libucrt:lcidtoname_downlevel.obj
 0002:00004b30       ??_C@_1M@PHGFBEPN@?$AAg?$AAl?$AA?9?$AAE?$AAS@ 0000000180042b30     libucrt:lcidtoname_downlevel.obj
 0002:00004b40       ??_C@_1O@KPIPDNCP@?$AAk?$AAo?$AAk?$AA?9?$AAI?$AAN@ 0000000180042b40     libucrt:lcidtoname_downlevel.obj
 0002:00004b50       ??_C@_1O@KNHJLDJA@?$AAs?$AAy?$AAr?$AA?9?$AAS?$AAY@ 0000000180042b50     libucrt:lcidtoname_downlevel.obj
 0002:00004b60       ??_C@_1O@MKEKBLAH@?$AAd?$AAi?$AAv?$AA?9?$AAM?$AAV@ 0000000180042b60     libucrt:lcidtoname_downlevel.obj
 0002:00004b70       ??_C@_1O@OHDCKDDF@?$AAq?$AAu?$AAz?$AA?9?$AAB?$AAO@ 0000000180042b70     libucrt:lcidtoname_downlevel.obj
 0002:00004b80       ??_C@_1M@LEPJNLFD@?$AAn?$AAs?$AA?9?$AAZ?$AAA@ 0000000180042b80     libucrt:lcidtoname_downlevel.obj
 0002:00004b90       ??_C@_1M@OMLEIIJB@?$AAm?$AAi?$AA?9?$AAN?$AAZ@ 0000000180042b90     libucrt:lcidtoname_downlevel.obj
 0002:00004ba0       ??_C@_1M@PMPEAILG@?$AAa?$AAr?$AA?9?$AAI?$AAQ@ 0000000180042ba0     libucrt:lcidtoname_downlevel.obj
 0002:00004bb0       ??_C@_1M@CNKPNOEE@?$AAd?$AAe?$AA?9?$AAC?$AAH@ 0000000180042bb0     libucrt:lcidtoname_downlevel.obj
 0002:00004bc0       ??_C@_1M@LKMGMLKO@?$AAe?$AAn?$AA?9?$AAG?$AAB@ 0000000180042bc0     libucrt:lcidtoname_downlevel.obj
 0002:00004bd0       ??_C@_1M@PGKJFFGL@?$AAe?$AAs?$AA?9?$AAM?$AAX@ 0000000180042bd0     libucrt:lcidtoname_downlevel.obj
 0002:00004be0       ??_C@_1M@DNNANBDC@?$AAf?$AAr?$AA?9?$AAB?$AAE@ 0000000180042be0     libucrt:lcidtoname_downlevel.obj
 0002:00004bf0       ??_C@_1M@HLGMDFHM@?$AAi?$AAt?$AA?9?$AAC?$AAH@ 0000000180042bf0     libucrt:lcidtoname_downlevel.obj
 0002:00004c00       ??_C@_1M@CLLBGJH@?$AAn?$AAl?$AA?9?$AAB?$AAE@ 0000000180042c00     libucrt:lcidtoname_downlevel.obj
 0002:00004c10       ??_C@_1M@BODBOGLF@?$AAn?$AAn?$AA?9?$AAN?$AAO@ 0000000180042c10     libucrt:lcidtoname_downlevel.obj
 0002:00004c20       ??_C@_1M@HFFAHKAD@?$AAp?$AAt?$AA?9?$AAP?$AAT@ 0000000180042c20     libucrt:lcidtoname_downlevel.obj
 0002:00004c30       ??_C@_1BG@LNOAKHIE@?$AAs?$AAr?$AA?9?$AAS?$AAP?$AA?9?$AAL?$AAa?$AAt?$AAn@ 0000000180042c30     libucrt:lcidtoname_downlevel.obj
 0002:00004c48       ??_C@_1M@HBMHBGAK@?$AAs?$AAv?$AA?9?$AAF?$AAI@ 0000000180042c48     libucrt:lcidtoname_downlevel.obj
 0002:00004c58       ??_C@_1BG@DGCJGJBE@?$AAa?$AAz?$AA?9?$AAA?$AAZ?$AA?9?$AAC?$AAy?$AAr?$AAl@ 0000000180042c58     libucrt:lcidtoname_downlevel.obj
 0002:00004c70       ??_C@_1M@KEJDAAHB@?$AAs?$AAe?$AA?9?$AAS?$AAE@ 0000000180042c70     libucrt:lcidtoname_downlevel.obj
 0002:00004c80       ??_C@_1M@HEIBJJAD@?$AAm?$AAs?$AA?9?$AAB?$AAN@ 0000000180042c80     libucrt:lcidtoname_downlevel.obj
 0002:00004c90       ??_C@_1BG@PBGJMCEM@?$AAu?$AAz?$AA?9?$AAU?$AAZ?$AA?9?$AAC?$AAy?$AAr?$AAl@ 0000000180042c90     libucrt:lcidtoname_downlevel.obj
 0002:00004ca8       ??_C@_1O@LAOBCMDF@?$AAq?$AAu?$AAz?$AA?9?$AAE?$AAC@ 0000000180042ca8     libucrt:lcidtoname_downlevel.obj
 0002:00004cb8       ??_C@_1M@POEEMAIO@?$AAa?$AAr?$AA?9?$AAE?$AAG@ 0000000180042cb8     libucrt:lcidtoname_downlevel.obj
 0002:00004cc8       ??_C@_1M@EFAKDEDL@?$AAz?$AAh?$AA?9?$AAH?$AAK@ 0000000180042cc8     libucrt:lcidtoname_downlevel.obj
 0002:00004cd8       ??_C@_1M@HKKIJHGI@?$AAd?$AAe?$AA?9?$AAA?$AAT@ 0000000180042cd8     libucrt:lcidtoname_downlevel.obj
 0002:00004ce8       ??_C@_1M@KBFBEHJF@?$AAe?$AAn?$AA?9?$AAA?$AAU@ 0000000180042ce8     libucrt:lcidtoname_downlevel.obj
 0002:00004cf8       ??_C@_1M@MNPLFAAH@?$AAe?$AAs?$AA?9?$AAE?$AAS@ 0000000180042cf8     libucrt:lcidtoname_downlevel.obj
 0002:00004d08       ??_C@_1M@HJOOJFMA@?$AAf?$AAr?$AA?9?$AAC?$AAA@ 0000000180042d08     libucrt:lcidtoname_downlevel.obj
 0002:00004d18       ??_C@_1BG@JPOFPNAB@?$AAs?$AAr?$AA?9?$AAS?$AAP?$AA?9?$AAC?$AAy?$AAr?$AAl@ 0000000180042d18     libucrt:lcidtoname_downlevel.obj
 0002:00004d30       ??_C@_1M@LNFOCMOB@?$AAs?$AAe?$AA?9?$AAF?$AAI@ 0000000180042d30     libucrt:lcidtoname_downlevel.obj
 0002:00004d40       ??_C@_1O@MGJBOAMB@?$AAq?$AAu?$AAz?$AA?9?$AAP?$AAE@ 0000000180042d40     libucrt:lcidtoname_downlevel.obj
 0002:00004d50       ??_C@_1M@GJINLBOK@?$AAa?$AAr?$AA?9?$AAL?$AAY@ 0000000180042d50     libucrt:lcidtoname_downlevel.obj
 0002:00004d60       ??_C@_1M@GGMNHJNL@?$AAz?$AAh?$AA?9?$AAS?$AAG@ 0000000180042d60     libucrt:lcidtoname_downlevel.obj
 0002:00004d70       ??_C@_1M@HOIKODND@?$AAd?$AAe?$AA?9?$AAL?$AAU@ 0000000180042d70     libucrt:lcidtoname_downlevel.obj
 0002:00004d80       ??_C@_1M@DDOCCGFG@?$AAe?$AAn?$AA?9?$AAC?$AAA@ 0000000180042d80     libucrt:lcidtoname_downlevel.obj
 0002:00004d90       ??_C@_1M@BNOEMJLF@?$AAe?$AAs?$AA?9?$AAG?$AAT@ 0000000180042d90     libucrt:lcidtoname_downlevel.obj
 0002:00004da0       ??_C@_1M@EOGNKEK@?$AAf?$AAr?$AA?9?$AAC?$AAH@ 0000000180042da0     libucrt:lcidtoname_downlevel.obj
 0002:00004db0       ??_C@_1M@FLIDJFHL@?$AAh?$AAr?$AA?9?$AAB?$AAA@ 0000000180042db0     libucrt:lcidtoname_downlevel.obj
 0002:00004dc0       ??_C@_1O@FMCELNAJ@?$AAs?$AAm?$AAj?$AA?9?$AAN?$AAO@ 0000000180042dc0     libucrt:lcidtoname_downlevel.obj
 0002:00004dd0       ??_C@_1M@JHGLJMGJ@?$AAa?$AAr?$AA?9?$AAD?$AAZ@ 0000000180042dd0     libucrt:lcidtoname_downlevel.obj
 0002:00004de0       ??_C@_1M@JKKFDCNP@?$AAz?$AAh?$AA?9?$AAM?$AAO@ 0000000180042de0     libucrt:lcidtoname_downlevel.obj
 0002:00004df0       ??_C@_1M@GEEFALPE@?$AAd?$AAe?$AA?9?$AAL?$AAI@ 0000000180042df0     libucrt:lcidtoname_downlevel.obj
 0002:00004e00       ??_C@_1M@IGEOFBG@?$AAe?$AAn?$AA?9?$AAN?$AAZ@ 0000000180042e00     libucrt:lcidtoname_downlevel.obj
 0002:00004e10       ??_C@_1M@KDBONEHP@?$AAe?$AAs?$AA?9?$AAC?$AAR@ 0000000180042e10     libucrt:lcidtoname_downlevel.obj
 0002:00004e20       ??_C@_1M@FHMDOHNN@?$AAf?$AAr?$AA?9?$AAL?$AAU@ 0000000180042e20     libucrt:lcidtoname_downlevel.obj
 0002:00004e30       ??_C@_1BG@NFKKMAFG@?$AAb?$AAs?$AA?9?$AAB?$AAA?$AA?9?$AAL?$AAa?$AAt?$AAn@ 0000000180042e30     libucrt:lcidtoname_downlevel.obj
 0002:00004e48       ??_C@_1O@IMNBEMCI@?$AAs?$AAm?$AAj?$AA?9?$AAS?$AAE@ 0000000180042e48     libucrt:lcidtoname_downlevel.obj
 0002:00004e58       ??_C@_1M@DHHMBNDP@?$AAa?$AAr?$AA?9?$AAM?$AAA@ 0000000180042e58     libucrt:lcidtoname_downlevel.obj
 0002:00004e68       ??_C@_1M@BNBLJCGH@?$AAe?$AAn?$AA?9?$AAI?$AAE@ 0000000180042e68     libucrt:lcidtoname_downlevel.obj
 0002:00004e78       ??_C@_1M@GEPAFMDL@?$AAe?$AAs?$AA?9?$AAP?$AAA@ 0000000180042e78     libucrt:lcidtoname_downlevel.obj
 0002:00004e88       ??_C@_1M@OJONDMDL@?$AAf?$AAr?$AA?9?$AAM?$AAC@ 0000000180042e88     libucrt:lcidtoname_downlevel.obj
 0002:00004e98       ??_C@_1BG@OBCNFJB@?$AAs?$AAr?$AA?9?$AAB?$AAA?$AA?9?$AAL?$AAa?$AAt?$AAn@ 0000000180042e98     libucrt:lcidtoname_downlevel.obj
 0002:00004eb0       ??_C@_1O@KEMEEGPO@?$AAs?$AAm?$AAa?$AA?9?$AAN?$AAO@ 0000000180042eb0     libucrt:lcidtoname_downlevel.obj
 0002:00004ec0       ??_C@_1M@ELMGFODK@?$AAa?$AAr?$AA?9?$AAT?$AAN@ 0000000180042ec0     libucrt:lcidtoname_downlevel.obj
 0002:00004ed0       ??_C@_1M@BHDLHFAF@?$AAe?$AAn?$AA?9?$AAZ?$AAA@ 0000000180042ed0     libucrt:lcidtoname_downlevel.obj
 0002:00004ee0       ??_C@_1M@BMGIGLIF@?$AAe?$AAs?$AA?9?$AAD?$AAO@ 0000000180042ee0     libucrt:lcidtoname_downlevel.obj
 0002:00004ef0       ??_C@_1BG@CMBHIPBE@?$AAs?$AAr?$AA?9?$AAB?$AAA?$AA?9?$AAC?$AAy?$AAr?$AAl@ 0000000180042ef0     libucrt:lcidtoname_downlevel.obj
 0002:00004f08       ??_C@_1O@HEDBLHNP@?$AAs?$AAm?$AAa?$AA?9?$AAS?$AAE@ 0000000180042f08     libucrt:lcidtoname_downlevel.obj
 0002:00004f18       ??_C@_1M@DAGCADIM@?$AAa?$AAr?$AA?9?$AAO?$AAM@ 0000000180042f18     libucrt:lcidtoname_downlevel.obj
 0002:00004f28       ??_C@_1M@FODLMICG@?$AAe?$AAn?$AA?9?$AAJ?$AAM@ 0000000180042f28     libucrt:lcidtoname_downlevel.obj
 0002:00004f38       ??_C@_1M@DNMLCIHB@?$AAe?$AAs?$AA?9?$AAV?$AAE@ 0000000180042f38     libucrt:lcidtoname_downlevel.obj
 0002:00004f48       ??_C@_1O@EOKHMKJK@?$AAs?$AAm?$AAs?$AA?9?$AAF?$AAI@ 0000000180042f48     libucrt:lcidtoname_downlevel.obj
 0002:00004f58       ??_C@_1M@CAFJMKOF@?$AAa?$AAr?$AA?9?$AAY?$AAE@ 0000000180042f58     libucrt:lcidtoname_downlevel.obj
 0002:00004f68       ??_C@_1M@CBFHIJLI@?$AAe?$AAn?$AA?9?$AAC?$AAB@ 0000000180042f68     libucrt:lcidtoname_downlevel.obj
 0002:00004f78       ??_C@_1M@BGNFLDN@?$AAe?$AAs?$AA?9?$AAC?$AAO@ 0000000180042f78     libucrt:lcidtoname_downlevel.obj
 0002:00004f88       ??_C@_1O@JMPHMAMC@?$AAs?$AAm?$AAn?$AA?9?$AAF?$AAI@ 0000000180042f88     libucrt:lcidtoname_downlevel.obj
 0002:00004f98       ??_C@_1M@JLANABKE@?$AAa?$AAr?$AA?9?$AAS?$AAY@ 0000000180042f98     libucrt:lcidtoname_downlevel.obj
 0002:00004fa8       ??_C@_1M@HPKGCFGN@?$AAe?$AAn?$AA?9?$AAB?$AAZ@ 0000000180042fa8     libucrt:lcidtoname_downlevel.obj
 0002:00004fb8       ??_C@_1M@OLJCMLGM@?$AAe?$AAs?$AA?9?$AAP?$AAE@ 0000000180042fb8     libucrt:lcidtoname_downlevel.obj
 0002:00004fc8       ??_C@_1M@MKKGFKLE@?$AAa?$AAr?$AA?9?$AAJ?$AAO@ 0000000180042fc8     libucrt:lcidtoname_downlevel.obj
 0002:00004fd8       ??_C@_1M@EKPGLDNI@?$AAe?$AAn?$AA?9?$AAT?$AAT@ 0000000180042fd8     libucrt:lcidtoname_downlevel.obj
 0002:00004fe8       ??_C@_1M@OONGHFHE@?$AAe?$AAs?$AA?9?$AAA?$AAR@ 0000000180042fe8     libucrt:lcidtoname_downlevel.obj
 0002:00004ff8       ??_C@_1M@OOJFGBHE@?$AAa?$AAr?$AA?9?$AAL?$AAB@ 0000000180042ff8     libucrt:lcidtoname_downlevel.obj
 0002:00005008       ??_C@_1M@GCEJHNEG@?$AAe?$AAn?$AA?9?$AAZ?$AAW@ 0000000180043008     libucrt:lcidtoname_downlevel.obj
 0002:00005018       ??_C@_1M@JNOCAHJI@?$AAe?$AAs?$AA?9?$AAE?$AAC@ 0000000180043018     libucrt:lcidtoname_downlevel.obj
 0002:00005028       ??_C@_1M@JEFHPGGB@?$AAa?$AAr?$AA?9?$AAK?$AAW@ 0000000180043028     libucrt:lcidtoname_downlevel.obj
 0002:00005038       ??_C@_1M@MLKIBJOJ@?$AAe?$AAn?$AA?9?$AAP?$AAH@ 0000000180043038     libucrt:lcidtoname_downlevel.obj
 0002:00005048       ??_C@_1M@BDNIPEND@?$AAe?$AAs?$AA?9?$AAC?$AAL@ 0000000180043048     libucrt:lcidtoname_downlevel.obj
 0002:00005058       ??_C@_1M@MPNMEKBD@?$AAa?$AAr?$AA?9?$AAA?$AAE@ 0000000180043058     libucrt:lcidtoname_downlevel.obj
 0002:00005068       ??_C@_1M@KBJALCPI@?$AAe?$AAs?$AA?9?$AAU?$AAY@ 0000000180043068     libucrt:lcidtoname_downlevel.obj
 0002:00005078       ??_C@_1M@LLCCOAGA@?$AAa?$AAr?$AA?9?$AAB?$AAH@ 0000000180043078     libucrt:lcidtoname_downlevel.obj
 0002:00005088       ??_C@_1M@PBFNCDEL@?$AAe?$AAs?$AA?9?$AAP?$AAY@ 0000000180043088     libucrt:lcidtoname_downlevel.obj
 0002:00005098       ??_C@_1M@EDGINPNP@?$AAa?$AAr?$AA?9?$AAQ?$AAA@ 0000000180043098     libucrt:lcidtoname_downlevel.obj
 0002:000050a8       ??_C@_1M@MKDBIIJI@?$AAe?$AAs?$AA?9?$AAB?$AAO@ 00000001800430a8     libucrt:lcidtoname_downlevel.obj
 0002:000050b8       ??_C@_1M@CPKKEBLD@?$AAe?$AAs?$AA?9?$AAS?$AAV@ 00000001800430b8     libucrt:lcidtoname_downlevel.obj
 0002:000050c8       ??_C@_1M@NDBGMMJL@?$AAe?$AAs?$AA?9?$AAH?$AAN@ 00000001800430c8     libucrt:lcidtoname_downlevel.obj
 0002:000050d8       ??_C@_1M@JIJIBHDP@?$AAe?$AAs?$AA?9?$AAN?$AAI@ 00000001800430d8     libucrt:lcidtoname_downlevel.obj
 0002:000050e8       ??_C@_1M@CGFMKEEK@?$AAe?$AAs?$AA?9?$AAP?$AAR@ 00000001800430e8     libucrt:lcidtoname_downlevel.obj
 0002:000050f8       ??_C@_1O@ICJHKIIK@?$AAz?$AAh?$AA?9?$AAC?$AAH?$AAT@ 00000001800430f8     libucrt:lcidtoname_downlevel.obj
 0002:00005108       ??_C@_15CLNEJCE@?$AAs?$AAr@ 0000000180043108     libucrt:lcidtoname_downlevel.obj
 0002:00005f50       ??_C@_1M@KAHEKEIG@?$AAa?$AAf?$AA?9?$AAz?$AAa@ 0000000180043f50     libucrt:lcidtoname_downlevel.obj
 0002:00005f60       ??_C@_1M@GIECOABL@?$AAa?$AAr?$AA?9?$AAa?$AAe@ 0000000180043f60     libucrt:lcidtoname_downlevel.obj
 0002:00005f70       ??_C@_1M@BMLMEKGI@?$AAa?$AAr?$AA?9?$AAb?$AAh@ 0000000180043f70     libucrt:lcidtoname_downlevel.obj
 0002:00005f80       ??_C@_1M@DAPFDGGB@?$AAa?$AAr?$AA?9?$AAd?$AAz@ 0000000180043f80     libucrt:lcidtoname_downlevel.obj
 0002:00005f90       ??_C@_1M@FJNKGKIG@?$AAa?$AAr?$AA?9?$AAe?$AAg@ 0000000180043f90     libucrt:lcidtoname_downlevel.obj
 0002:00005fa0       ??_C@_1M@FLGKKCLO@?$AAa?$AAr?$AA?9?$AAi?$AAq@ 0000000180043fa0     libucrt:lcidtoname_downlevel.obj
 0002:00005fb0       ??_C@_1M@GNDIPALM@?$AAa?$AAr?$AA?9?$AAj?$AAo@ 0000000180043fb0     libucrt:lcidtoname_downlevel.obj
 0002:00005fc0       ??_C@_1M@DDMJFMGJ@?$AAa?$AAr?$AA?9?$AAk?$AAw@ 0000000180043fc0     libucrt:lcidtoname_downlevel.obj
 0002:00005fd0       ??_C@_1M@EJALMLHM@?$AAa?$AAr?$AA?9?$AAl?$AAb@ 0000000180043fd0     libucrt:lcidtoname_downlevel.obj
 0002:00005fe0       ??_C@_1M@MOBDBLOC@?$AAa?$AAr?$AA?9?$AAl?$AAy@ 0000000180043fe0     libucrt:lcidtoname_downlevel.obj
 0002:00005ff0       ??_C@_1M@JAOCLHDH@?$AAa?$AAr?$AA?9?$AAm?$AAa@ 0000000180043ff0     libucrt:lcidtoname_downlevel.obj
 0002:00006000       ??_C@_1M@JHPMKJIE@?$AAa?$AAr?$AA?9?$AAo?$AAm@ 0000000180044000     libucrt:lcidtoname_downlevel.obj
 0002:00006010       ??_C@_1M@OEPGHFNH@?$AAa?$AAr?$AA?9?$AAq?$AAa@ 0000000180044010     libucrt:lcidtoname_downlevel.obj
 0002:00006020       ??_C@_1M@KJDONENM@?$AAa?$AAr?$AA?9?$AAs?$AAa@ 0000000180044020     libucrt:lcidtoname_downlevel.obj
 0002:00006030       ??_C@_1M@DMJDKLKM@?$AAa?$AAr?$AA?9?$AAs?$AAy@ 0000000180044030     libucrt:lcidtoname_downlevel.obj
 0002:00006040       ??_C@_1M@OMFIPEDC@?$AAa?$AAr?$AA?9?$AAt?$AAn@ 0000000180044040     libucrt:lcidtoname_downlevel.obj
 0002:00006050       ??_C@_1M@IHMHGAON@?$AAa?$AAr?$AA?9?$AAy?$AAe@ 0000000180044050     libucrt:lcidtoname_downlevel.obj
 0002:00006060       ??_C@_1BG@KDCPGJGB@?$AAa?$AAz?$AA?9?$AAa?$AAz?$AA?9?$AAc?$AAy?$AAr?$AAl@ 0000000180044060     libucrt:lcidtoname_downlevel.obj
 0002:00006078       ??_C@_1BG@IBCKDDOE@?$AAa?$AAz?$AA?9?$AAa?$AAz?$AA?9?$AAl?$AAa?$AAt?$AAn@ 0000000180044078     libucrt:lcidtoname_downlevel.obj
 0002:00006090       ??_C@_1M@EGPFDCPD@?$AAb?$AAe?$AA?9?$AAb?$AAy@ 0000000180044090     libucrt:lcidtoname_downlevel.obj
 0002:000060a0       ??_C@_1M@PCMGMCGC@?$AAb?$AAg?$AA?9?$AAb?$AAg@ 00000001800440a0     libucrt:lcidtoname_downlevel.obj
 0002:000060b0       ??_C@_1M@BJBMFGOB@?$AAb?$AAn?$AA?9?$AAi?$AAn@ 00000001800440b0     libucrt:lcidtoname_downlevel.obj
 0002:000060c0       ??_C@_1BG@EAKMMACD@?$AAb?$AAs?$AA?9?$AAb?$AAa?$AA?9?$AAl?$AAa?$AAt?$AAn@ 00000001800440c0     libucrt:lcidtoname_downlevel.obj
 0002:000060d8       ??_C@_1M@KGADAODK@?$AAc?$AAa?$AA?9?$AAe?$AAs@ 00000001800440d8     libucrt:lcidtoname_downlevel.obj
 0002:000060e8       ??_C@_1M@COAJPDHI@?$AAc?$AAs?$AA?9?$AAc?$AAz@ 00000001800440e8     libucrt:lcidtoname_downlevel.obj
 0002:000060f8       ??_C@_1M@DHBHFONH@?$AAc?$AAy?$AA?9?$AAg?$AAb@ 00000001800440f8     libucrt:lcidtoname_downlevel.obj
 0002:00006108       ??_C@_1M@IMGKELGA@?$AAd?$AAa?$AA?9?$AAd?$AAk@ 0000000180044108     libucrt:lcidtoname_downlevel.obj
 0002:00006118       ??_C@_1M@NNDGDNGA@?$AAd?$AAe?$AA?9?$AAa?$AAt@ 0000000180044118     libucrt:lcidtoname_downlevel.obj
 0002:00006128       ??_C@_1M@IKDBHEEM@?$AAd?$AAe?$AA?9?$AAc?$AAh@ 0000000180044128     libucrt:lcidtoname_downlevel.obj
 0002:00006138       ??_C@_1M@GFFOJMCJ@?$AAd?$AAe?$AA?9?$AAd?$AAe@ 0000000180044138     libucrt:lcidtoname_downlevel.obj
 0002:00006148       ??_C@_1M@MDNLKBPM@?$AAd?$AAe?$AA?9?$AAl?$AAi@ 0000000180044148     libucrt:lcidtoname_downlevel.obj
 0002:00006158       ??_C@_1M@NJBEEJNL@?$AAd?$AAe?$AA?9?$AAl?$AAu@ 0000000180044158     libucrt:lcidtoname_downlevel.obj
 0002:00006168       ??_C@_1O@GNNELBAP@?$AAd?$AAi?$AAv?$AA?9?$AAm?$AAv@ 0000000180044168     libucrt:lcidtoname_downlevel.obj
 0002:00006178       ??_C@_1M@EJLEOGAE@?$AAe?$AAl?$AA?9?$AAg?$AAr@ 0000000180044178     libucrt:lcidtoname_downlevel.obj
 0002:00006188       ??_C@_1M@GMPONJN@?$AAe?$AAn?$AA?9?$AAa?$AAu@ 0000000180044188     libucrt:lcidtoname_downlevel.obj
 0002:00006198       ??_C@_1M@NIDIIPGF@?$AAe?$AAn?$AA?9?$AAb?$AAz@ 0000000180044198     libucrt:lcidtoname_downlevel.obj
 0002:000061a8       ??_C@_1M@JEHMIMFO@?$AAe?$AAn?$AA?9?$AAc?$AAa@ 00000001800441a8     libucrt:lcidtoname_downlevel.obj
 0002:000061b8       ??_C@_1M@IGMJCDLA@?$AAe?$AAn?$AA?9?$AAc?$AAb@ 00000001800441b8     libucrt:lcidtoname_downlevel.obj
 0002:000061c8       ??_C@_1M@BNFIGBKG@?$AAe?$AAn?$AA?9?$AAg?$AAb@ 00000001800441c8     libucrt:lcidtoname_downlevel.obj
 0002:000061d8       ??_C@_1M@LKIFDIGP@?$AAe?$AAn?$AA?9?$AAi?$AAe@ 00000001800441d8     libucrt:lcidtoname_downlevel.obj
 0002:000061e8       ??_C@_1M@PJKFGCCO@?$AAe?$AAn?$AA?9?$AAj?$AAm@ 00000001800441e8     libucrt:lcidtoname_downlevel.obj
 0002:000061f8       ??_C@_1M@KPPKEPBO@?$AAe?$AAn?$AA?9?$AAn?$AAz@ 00000001800441f8     libucrt:lcidtoname_downlevel.obj
 0002:00006208       ??_C@_1M@GMDGLDOB@?$AAe?$AAn?$AA?9?$AAp?$AAh@ 0000000180044208     libucrt:lcidtoname_downlevel.obj
 0002:00006218       ??_C@_1M@ONGIBJNA@?$AAe?$AAn?$AA?9?$AAt?$AAt@ 0000000180044218     libucrt:lcidtoname_downlevel.obj
 0002:00006228       ??_C@_1M@LLODPCMM@?$AAe?$AAn?$AA?9?$AAu?$AAs@ 0000000180044228     libucrt:lcidtoname_downlevel.obj
 0002:00006238       ??_C@_1M@LAKFNPAN@?$AAe?$AAn?$AA?9?$AAz?$AAa@ 0000000180044238     libucrt:lcidtoname_downlevel.obj
 0002:00006248       ??_C@_1M@MFNHNHEO@?$AAe?$AAn?$AA?9?$AAz?$AAw@ 0000000180044248     libucrt:lcidtoname_downlevel.obj
 0002:00006258       ??_C@_1M@EJEINPHM@?$AAe?$AAs?$AA?9?$AAa?$AAr@ 0000000180044258     libucrt:lcidtoname_downlevel.obj
 0002:00006268       ??_C@_1M@GNKPCCJA@?$AAe?$AAs?$AA?9?$AAb?$AAo@ 0000000180044268     libucrt:lcidtoname_downlevel.obj
 0002:00006278       ??_C@_1M@LEEGFONL@?$AAe?$AAs?$AA?9?$AAc?$AAl@ 0000000180044278     libucrt:lcidtoname_downlevel.obj
 0002:00006288       ??_C@_1M@KGPDPBDF@?$AAe?$AAs?$AA?9?$AAc?$AAo@ 0000000180044288     libucrt:lcidtoname_downlevel.obj
 0002:00006298       ??_C@_1M@EIAHOHH@?$AAe?$AAs?$AA?9?$AAc?$AAr@ 0000000180044298     libucrt:lcidtoname_downlevel.obj
 0002:000062a8       ??_C@_1M@LLPGMBIN@?$AAe?$AAs?$AA?9?$AAd?$AAo@ 00000001800442a8     libucrt:lcidtoname_downlevel.obj
 0002:000062b8       ??_C@_1M@DKHMKNJA@?$AAe?$AAs?$AA?9?$AAe?$AAc@ 00000001800442b8     libucrt:lcidtoname_downlevel.obj
 0002:000062c8       ??_C@_1M@GKGFPKAP@?$AAe?$AAs?$AA?9?$AAe?$AAs@ 00000001800442c8     libucrt:lcidtoname_downlevel.obj
 0002:000062d8       ??_C@_1M@LKHKGDLN@?$AAe?$AAs?$AA?9?$AAg?$AAt@ 00000001800442d8     libucrt:lcidtoname_downlevel.obj
 0002:000062e8       ??_C@_1M@HEIIGGJD@?$AAe?$AAs?$AA?9?$AAh?$AAn@ 00000001800442e8     libucrt:lcidtoname_downlevel.obj
 0002:000062f8       ??_C@_1M@FBDHPPGD@?$AAe?$AAs?$AA?9?$AAm?$AAx@ 00000001800442f8     libucrt:lcidtoname_downlevel.obj
 0002:00006308       ??_C@_1M@DPAGLNDH@?$AAe?$AAs?$AA?9?$AAn?$AAi@ 0000000180044308     libucrt:lcidtoname_downlevel.obj
 0002:00006318       ??_C@_1M@MDGOPGDD@?$AAe?$AAs?$AA?9?$AAp?$AAa@ 0000000180044318     libucrt:lcidtoname_downlevel.obj
 0002:00006328       ??_C@_1M@EMAMGBGE@?$AAe?$AAs?$AA?9?$AAp?$AAe@ 0000000180044328     libucrt:lcidtoname_downlevel.obj
 0002:00006338       ??_C@_1M@IBMCAOEC@?$AAe?$AAs?$AA?9?$AAp?$AAr@ 0000000180044338     libucrt:lcidtoname_downlevel.obj
 0002:00006348       ??_C@_1M@FGMDIJED@?$AAe?$AAs?$AA?9?$AAp?$AAy@ 0000000180044348     libucrt:lcidtoname_downlevel.obj
 0002:00006358       ??_C@_1M@IIDEOLLL@?$AAe?$AAs?$AA?9?$AAs?$AAv@ 0000000180044358     libucrt:lcidtoname_downlevel.obj
 0002:00006368       ??_C@_1M@GAOBIPA@?$AAe?$AAs?$AA?9?$AAu?$AAy@ 0000000180044368     libucrt:lcidtoname_downlevel.obj
 0002:00006378       ??_C@_1M@JKFFICHJ@?$AAe?$AAs?$AA?9?$AAv?$AAe@ 0000000180044378     libucrt:lcidtoname_downlevel.obj
 0002:00006388       ??_C@_1M@PNMLOJDF@?$AAe?$AAt?$AA?9?$AAe?$AAe@ 0000000180044388     libucrt:lcidtoname_downlevel.obj
 0002:00006398       ??_C@_1M@GHHLIKEI@?$AAe?$AAu?$AA?9?$AAe?$AAs@ 0000000180044398     libucrt:lcidtoname_downlevel.obj
 0002:000063a8       ??_C@_1M@PBNONODE@?$AAf?$AAa?$AA?9?$AAi?$AAr@ 00000001800443a8     libucrt:lcidtoname_downlevel.obj
 0002:000063b8       ??_C@_1M@JEEHPMIL@?$AAf?$AAi?$AA?9?$AAf?$AAi@ 00000001800443b8     libucrt:lcidtoname_downlevel.obj
 0002:000063c8       ??_C@_1M@LMDCNDBA@?$AAf?$AAo?$AA?9?$AAf?$AAo@ 00000001800443c8     libucrt:lcidtoname_downlevel.obj
 0002:000063d8       ??_C@_1M@JKEOHLDK@?$AAf?$AAr?$AA?9?$AAb?$AAe@ 00000001800443d8     libucrt:lcidtoname_downlevel.obj
 0002:000063e8       ??_C@_1M@NOHADPMI@?$AAf?$AAr?$AA?9?$AAc?$AAa@ 00000001800443e8     libucrt:lcidtoname_downlevel.obj
 0002:000063f8       ??_C@_1M@KDHIHAEC@?$AAf?$AAr?$AA?9?$AAc?$AAh@ 00000001800443f8     libucrt:lcidtoname_downlevel.obj
 0002:00006408       ??_C@_1M@MMBBFGAK@?$AAf?$AAr?$AA?9?$AAf?$AAr@ 0000000180044408     libucrt:lcidtoname_downlevel.obj
 0002:00006418       ??_C@_1M@PAFNENNF@?$AAf?$AAr?$AA?9?$AAl?$AAu@ 0000000180044418     libucrt:lcidtoname_downlevel.obj
 0002:00006428       ??_C@_1M@EOHDJGDD@?$AAf?$AAr?$AA?9?$AAm?$AAc@ 0000000180044428     libucrt:lcidtoname_downlevel.obj
 0002:00006438       ??_C@_1M@FAPLLOPF@?$AAg?$AAl?$AA?9?$AAe?$AAs@ 0000000180044438     libucrt:lcidtoname_downlevel.obj
 0002:00006448       ??_C@_1M@FOPBFLOO@?$AAg?$AAu?$AA?9?$AAi?$AAn@ 0000000180044448     libucrt:lcidtoname_downlevel.obj
 0002:00006458       ??_C@_1M@KBMCINPM@?$AAh?$AAe?$AA?9?$AAi?$AAl@ 0000000180044458     libucrt:lcidtoname_downlevel.obj
 0002:00006468       ??_C@_1M@BBPHKFPJ@?$AAh?$AAi?$AA?9?$AAi?$AAn@ 0000000180044468     libucrt:lcidtoname_downlevel.obj
 0002:00006478       ??_C@_1M@PMBNDPHD@?$AAh?$AAr?$AA?9?$AAb?$AAa@ 0000000180044478     libucrt:lcidtoname_downlevel.obj
 0002:00006488       ??_C@_1M@BPCKOEGE@?$AAh?$AAr?$AA?9?$AAh?$AAr@ 0000000180044488     libucrt:lcidtoname_downlevel.obj
 0002:00006498       ??_C@_1M@GACBMHKE@?$AAh?$AAu?$AA?9?$AAh?$AAu@ 0000000180044498     libucrt:lcidtoname_downlevel.obj
 0002:000064a8       ??_C@_1M@MILPAJJC@?$AAh?$AAy?$AA?9?$AAa?$AAm@ 00000001800444a8     libucrt:lcidtoname_downlevel.obj
 0002:000064b8       ??_C@_1M@BABBICEC@?$AAi?$AAd?$AA?9?$AAi?$AAd@ 00000001800444b8     libucrt:lcidtoname_downlevel.obj
 0002:000064c8       ??_C@_1M@BIKNHHPF@?$AAi?$AAs?$AA?9?$AAi?$AAs@ 00000001800444c8     libucrt:lcidtoname_downlevel.obj
 0002:000064d8       ??_C@_1M@NMPCJPHE@?$AAi?$AAt?$AA?9?$AAc?$AAh@ 00000001800444d8     libucrt:lcidtoname_downlevel.obj
 0002:000064e8       ??_C@_1M@GHKGFEDF@?$AAi?$AAt?$AA?9?$AAi?$AAt@ 00000001800444e8     libucrt:lcidtoname_downlevel.obj
 0002:000064f8       ??_C@_1M@NIEJCJJA@?$AAj?$AAa?$AA?9?$AAj?$AAp@ 00000001800444f8     libucrt:lcidtoname_downlevel.obj
 0002:00006508       ??_C@_1M@JILFNBIM@?$AAk?$AAa?$AA?9?$AAg?$AAe@ 0000000180044508     libucrt:lcidtoname_downlevel.obj
 0002:00006518       ??_C@_1M@PACPMGPH@?$AAk?$AAk?$AA?9?$AAk?$AAz@ 0000000180044518     libucrt:lcidtoname_downlevel.obj
 0002:00006528       ??_C@_1M@IELFGMHA@?$AAk?$AAn?$AA?9?$AAi?$AAn@ 0000000180044528     libucrt:lcidtoname_downlevel.obj
 0002:00006538       ??_C@_1O@IBBJHCH@?$AAk?$AAo?$AAk?$AA?9?$AAi?$AAn@ 0000000180044538     libucrt:lcidtoname_downlevel.obj
 0002:00006548       ??_C@_1M@DMHAEOGC@?$AAk?$AAo?$AA?9?$AAk?$AAr@ 0000000180044548     libucrt:lcidtoname_downlevel.obj
 0002:00006558       ??_C@_1M@HBAHBIGA@?$AAk?$AAy?$AA?9?$AAk?$AAg@ 0000000180044558     libucrt:lcidtoname_downlevel.obj
 0002:00006568       ??_C@_1M@KPMILCJG@?$AAl?$AAt?$AA?9?$AAl?$AAt@ 0000000180044568     libucrt:lcidtoname_downlevel.obj
 0002:00006578       ??_C@_1M@BDEKKCA@?$AAl?$AAv?$AA?9?$AAl?$AAv@ 0000000180044578     libucrt:lcidtoname_downlevel.obj
 0002:00006588       ??_C@_1M@ELCKCCJJ@?$AAm?$AAi?$AA?9?$AAn?$AAz@ 0000000180044588     libucrt:lcidtoname_downlevel.obj
 0002:00006598       ??_C@_1M@CBOOLAPA@?$AAm?$AAk?$AA?9?$AAm?$AAk@ 0000000180044598     libucrt:lcidtoname_downlevel.obj
 0002:000065a8       ??_C@_1M@GPHNBJKN@?$AAm?$AAl?$AA?9?$AAi?$AAn@ 00000001800445a8     libucrt:lcidtoname_downlevel.obj
 0002:000065b8       ??_C@_1M@PABJILIG@?$AAm?$AAn?$AA?9?$AAm?$AAn@ 00000001800445b8     libucrt:lcidtoname_downlevel.obj
 0002:000065c8       ??_C@_1M@FGBKKIPG@?$AAm?$AAr?$AA?9?$AAi?$AAn@ 00000001800445c8     libucrt:lcidtoname_downlevel.obj
 0002:000065d8       ??_C@_1M@NDBPDDAL@?$AAm?$AAs?$AA?9?$AAb?$AAn@ 00000001800445d8     libucrt:lcidtoname_downlevel.obj
 0002:000065e8       ??_C@_1M@OPIHOOPI@?$AAm?$AAs?$AA?9?$AAm?$AAy@ 00000001800445e8     libucrt:lcidtoname_downlevel.obj
 0002:000065f8       ??_C@_1M@PPDBCNFM@?$AAm?$AAt?$AA?9?$AAm?$AAt@ 00000001800445f8     libucrt:lcidtoname_downlevel.obj
 0002:00006608       ??_C@_1M@KDJDKMDD@?$AAn?$AAb?$AA?9?$AAn?$AAo@ 0000000180044608     libucrt:lcidtoname_downlevel.obj
 0002:00006618       ??_C@_1M@KFCFLMJP@?$AAn?$AAl?$AA?9?$AAb?$AAe@ 0000000180044618     libucrt:lcidtoname_downlevel.obj
 0002:00006628       ??_C@_1M@KPOPDDGO@?$AAn?$AAl?$AA?9?$AAn?$AAl@ 0000000180044628     libucrt:lcidtoname_downlevel.obj
 0002:00006638       ??_C@_1M@LJKPEMLN@?$AAn?$AAn?$AA?9?$AAn?$AAo@ 0000000180044638     libucrt:lcidtoname_downlevel.obj
 0002:00006648       ??_C@_1M@BDGHHBFL@?$AAn?$AAs?$AA?9?$AAz?$AAa@ 0000000180044648     libucrt:lcidtoname_downlevel.obj
 0002:00006658       ??_C@_1M@IDEHOAP@?$AAp?$AAa?$AA?9?$AAi?$AAn@ 0000000180044658     libucrt:lcidtoname_downlevel.obj
 0002:00006668       ??_C@_1M@HDBKGOGH@?$AAp?$AAl?$AA?9?$AAp?$AAl@ 0000000180044668     libucrt:lcidtoname_downlevel.obj
 0002:00006678       ??_C@_1M@LJLLCMEH@?$AAp?$AAt?$AA?9?$AAb?$AAr@ 0000000180044678     libucrt:lcidtoname_downlevel.obj
 0002:00006688       ??_C@_1M@NCMONAAL@?$AAp?$AAt?$AA?9?$AAp?$AAt@ 0000000180044688     libucrt:lcidtoname_downlevel.obj
 0002:00006698       ??_C@_1O@EAKMAJDN@?$AAq?$AAu?$AAz?$AA?9?$AAb?$AAo@ 0000000180044698     libucrt:lcidtoname_downlevel.obj
 0002:000066a8       ??_C@_1O@BHHPIGDN@?$AAq?$AAu?$AAz?$AA?9?$AAe?$AAc@ 00000001800446a8     libucrt:lcidtoname_downlevel.obj
 0002:000066b8       ??_C@_1O@GBAPEKMJ@?$AAq?$AAu?$AAz?$AA?9?$AAp?$AAe@ 00000001800446b8     libucrt:lcidtoname_downlevel.obj
 0002:000066c8       ??_C@_1M@CLGLEFBO@?$AAr?$AAo?$AA?9?$AAr?$AAo@ 00000001800446c8     libucrt:lcidtoname_downlevel.obj
 0002:000066d8       ??_C@_1M@CEEDODME@?$AAr?$AAu?$AA?9?$AAr?$AAu@ 00000001800446d8     libucrt:lcidtoname_downlevel.obj
 0002:000066e8       ??_C@_1M@HPKKKMPP@?$AAs?$AAa?$AA?9?$AAi?$AAn@ 00000001800446e8     libucrt:lcidtoname_downlevel.obj
 0002:000066f8       ??_C@_1M@BKMAIGOJ@?$AAs?$AAe?$AA?9?$AAf?$AAi@ 00000001800446f8     libucrt:lcidtoname_downlevel.obj
 0002:00006708       ??_C@_1M@NDPIFLFI@?$AAs?$AAe?$AA?9?$AAn?$AAo@ 0000000180044708     libucrt:lcidtoname_downlevel.obj
 0002:00006718       ??_C@_1M@DANKKHJ@?$AAs?$AAe?$AA?9?$AAs?$AAe@ 0000000180044718     libucrt:lcidtoname_downlevel.obj
 0002:00006728       ??_C@_1M@PNBLONPJ@?$AAs?$AAk?$AA?9?$AAs?$AAk@ 0000000180044728     libucrt:lcidtoname_downlevel.obj
 0002:00006738       ??_C@_1M@LFMODOAL@?$AAs?$AAl?$AA?9?$AAs?$AAi@ 0000000180044738     libucrt:lcidtoname_downlevel.obj
 0002:00006748       ??_C@_1O@DFKOMPG@?$AAs?$AAm?$AAa?$AA?9?$AAn?$AAo@ 0000000180044748     libucrt:lcidtoname_downlevel.obj
 0002:00006758       ??_C@_1O@NDKPBNNH@?$AAs?$AAm?$AAa?$AA?9?$AAs?$AAe@ 0000000180044758     libucrt:lcidtoname_downlevel.obj
 0002:00006768       ??_C@_1O@PLLKBHAB@?$AAs?$AAm?$AAj?$AA?9?$AAn?$AAo@ 0000000180044768     libucrt:lcidtoname_downlevel.obj
 0002:00006778       ??_C@_1O@CLEPOGCA@?$AAs?$AAm?$AAj?$AA?9?$AAs?$AAe@ 0000000180044778     libucrt:lcidtoname_downlevel.obj
 0002:00006788       ??_C@_1O@DLGJGKMK@?$AAs?$AAm?$AAn?$AA?9?$AAf?$AAi@ 0000000180044788     libucrt:lcidtoname_downlevel.obj
 0002:00006798       ??_C@_1O@OJDJGAJC@?$AAs?$AAm?$AAs?$AA?9?$AAf?$AAi@ 0000000180044798     libucrt:lcidtoname_downlevel.obj
 0002:000067a8       ??_C@_1M@BOFOGHPB@?$AAs?$AAq?$AA?9?$AAa?$AAl@ 00000001800447a8     libucrt:lcidtoname_downlevel.obj
 0002:000067b8       ??_C@_1BG@LJBBIPGB@?$AAs?$AAr?$AA?9?$AAb?$AAa?$AA?9?$AAc?$AAy?$AAr?$AAl@ 00000001800447b8     libucrt:lcidtoname_downlevel.obj
 0002:000067d0       ??_C@_1BG@JLBENFOE@?$AAs?$AAr?$AA?9?$AAb?$AAa?$AA?9?$AAl?$AAa?$AAt?$AAn@ 00000001800447d0     libucrt:lcidtoname_downlevel.obj
 0002:000067e8       ??_C@_1BG@KODPNHE@?$AAs?$AAr?$AA?9?$AAs?$AAp?$AA?9?$AAc?$AAy?$AAr?$AAl@ 00000001800447e8     libucrt:lcidtoname_downlevel.obj
 0002:00006800       ??_C@_1BG@CIOGKHPB@?$AAs?$AAr?$AA?9?$AAs?$AAp?$AA?9?$AAl?$AAa?$AAt?$AAn@ 0000000180044800     libucrt:lcidtoname_downlevel.obj
 0002:00006818       ??_C@_1M@NGFJLMAC@?$AAs?$AAv?$AA?9?$AAf?$AAi@ 0000000180044818     libucrt:lcidtoname_downlevel.obj
 0002:00006828       ??_C@_1M@MPJEJAJC@?$AAs?$AAv?$AA?9?$AAs?$AAe@ 0000000180044828     libucrt:lcidtoname_downlevel.obj
 0002:00006838       ??_C@_1M@MPNDHLFK@?$AAs?$AAw?$AA?9?$AAk?$AAe@ 0000000180044838     libucrt:lcidtoname_downlevel.obj
 0002:00006848       ??_C@_1O@KOHBJJI@?$AAs?$AAy?$AAr?$AA?9?$AAs?$AAy@ 0000000180044848     libucrt:lcidtoname_downlevel.obj
 0002:00006858       ??_C@_1M@LDCEFHA@?$AAt?$AAa?$AA?9?$AAi?$AAn@ 0000000180044858     libucrt:lcidtoname_downlevel.obj
 0002:00006868       ??_C@_1M@CNJOFAK@?$AAt?$AAe?$AA?9?$AAi?$AAn@ 0000000180044868     libucrt:lcidtoname_downlevel.obj
 0002:00006878       ??_C@_1M@GNAECACD@?$AAt?$AAh?$AA?9?$AAt?$AAh@ 0000000180044878     libucrt:lcidtoname_downlevel.obj
 0002:00006888       ??_C@_1M@CHBIHOJO@?$AAt?$AAn?$AA?9?$AAz?$AAa@ 0000000180044888     libucrt:lcidtoname_downlevel.obj
 0002:00006898       ??_C@_1M@GCCMIGPJ@?$AAt?$AAr?$AA?9?$AAt?$AAr@ 0000000180044898     libucrt:lcidtoname_downlevel.obj
 0002:000068a8       ??_C@_1M@CELMCNBK@?$AAt?$AAt?$AA?9?$AAr?$AAu@ 00000001800448a8     libucrt:lcidtoname_downlevel.obj
 0002:000068b8       ??_C@_1M@KLMCELGA@?$AAu?$AAk?$AA?9?$AAu?$AAa@ 00000001800448b8     libucrt:lcidtoname_downlevel.obj
 0002:000068c8       ??_C@_1M@EPAJJAJF@?$AAu?$AAr?$AA?9?$AAp?$AAk@ 00000001800448c8     libucrt:lcidtoname_downlevel.obj
 0002:000068d8       ??_C@_1BG@GEGPMCDJ@?$AAu?$AAz?$AA?9?$AAu?$AAz?$AA?9?$AAc?$AAy?$AAr?$AAl@ 00000001800448d8     libucrt:lcidtoname_downlevel.obj
 0002:000068f0       ??_C@_1BG@EGGKJILM@?$AAu?$AAz?$AA?9?$AAu?$AAz?$AA?9?$AAl?$AAa?$AAt?$AAn@ 00000001800448f0     libucrt:lcidtoname_downlevel.obj
 0002:00006908       ??_C@_1M@GFOCLFF@?$AAv?$AAi?$AA?9?$AAv?$AAn@ 0000000180044908     libucrt:lcidtoname_downlevel.obj
 0002:00006918       ??_C@_1M@CPAMEDFI@?$AAx?$AAh?$AA?9?$AAz?$AAa@ 0000000180044918     libucrt:lcidtoname_downlevel.obj
 0002:00006928       ??_C@_1O@EBKIFIGN@?$AAz?$AAh?$AA?9?$AAc?$AAh?$AAs@ 0000000180044928     libucrt:lcidtoname_downlevel.obj
 0002:00006938       ??_C@_1O@NMHPGANE@?$AAz?$AAh?$AA?9?$AAc?$AAh?$AAt@ 0000000180044938     libucrt:lcidtoname_downlevel.obj
 0002:00006948       ??_C@_1M@LPINJOMC@?$AAz?$AAh?$AA?9?$AAc?$AAn@ 0000000180044948     libucrt:lcidtoname_downlevel.obj
 0002:00006958       ??_C@_1M@OCJEJODD@?$AAz?$AAh?$AA?9?$AAh?$AAk@ 0000000180044958     libucrt:lcidtoname_downlevel.obj
 0002:00006968       ??_C@_1M@DNDLJINH@?$AAz?$AAh?$AA?9?$AAm?$AAo@ 0000000180044968     libucrt:lcidtoname_downlevel.obj
 0002:00006978       ??_C@_1M@MBFDNDND@?$AAz?$AAh?$AA?9?$AAs?$AAg@ 0000000180044978     libucrt:lcidtoname_downlevel.obj
 0002:00006988       ??_C@_1M@IMEPLEPE@?$AAz?$AAh?$AA?9?$AAt?$AAw@ 0000000180044988     libucrt:lcidtoname_downlevel.obj
 0002:00006998       ??_C@_1M@BBGHNHJP@?$AAz?$AAu?$AA?9?$AAz?$AAa@ 0000000180044998     libucrt:lcidtoname_downlevel.obj
 0002:000069b0       ?large_power_data@?1??multiply_by_power_of_ten@__crt_strtox@@YA_NAEAUbig_integer@2@I@Z@4QBIB 00000001800449b0     libucrt:cfout.obj
 0002:00007358       ?small_powers_of_ten@?1??multiply_by_power_of_ten@__crt_strtox@@YA_NAEAUbig_integer@2@I@Z@4QBIB 0000000180045358     libucrt:cfout.obj
 0002:0000737c       ??_C@_01GBGANLPD@0@        000000018004537c     libucrt:cfout.obj
 0002:00007380       ??_C@_05DNEBIAHO@1?$CDINF@ 0000000180045380     libucrt:cfout.obj
 0002:00007388       ??_C@_06IMKFLFPG@1?$CDQNAN@ 0000000180045388     libucrt:cfout.obj
 0002:00007390       ??_C@_06PGGFOGJG@1?$CDSNAN@ 0000000180045390     libucrt:cfout.obj
 0002:00007398       ??_C@_05PHHOCPM@1?$CDIND@  0000000180045398     libucrt:cfout.obj
 0002:000073a0       ??_C@_05HGHHAHAP@log10@    00000001800453a0     libucrt:fpexcept.obj
 0002:00007610       ??_C@_1BA@BALFACEM@?$AAC?$AAO?$AAN?$AAO?$AAU?$AAT?$AA$@ 0000000180045610     libucrt:initcon.obj
 0002:00007620       __log10_256_lead           0000000180045620     libucrt:log10_256_lead_tail_table.obj
 0002:00007e30       __log10_256_tail           0000000180045e30     libucrt:log10_256_lead_tail_table.obj
 0002:00008640       __log_F_inv_qword          0000000180046640     libucrt:log_f_inv_qword_table.obj
 0002:00008e50       ??_C@_1BK@DBDEIDLH@?$AAK?$AAE?$AAR?$AAN?$AAE?$AAL?$AA3?$AA2?$AA?4?$AAD?$AAL?$AAL@ 0000000180046e50     DelayImp:delayhlp.obj
 0002:00008e70       ??_C@_0BI@OMNLIJDB@AcquireSRWLockExclusive@ 0000000180046e70     DelayImp:delayhlp.obj
 0002:00008e88       ??_C@_0BI@HMIEPCNJ@ReleaseSRWLockExclusive@ 0000000180046e88     DelayImp:delayhlp.obj
 0002:00008ea0       __pfnDliFailureHook2       0000000180046ea0     DelayImp:delayhk1.obj
 0002:00008eb0       _load_config_used          0000000180046eb0     LIBCMT:loadcfg.obj
 0002:00008ff0       ??_C@_1LE@BLLCLMNC@?$AAD?$AA?3?$AA?2?$AAw?$AAo?$AAr?$AAk?$AAs?$AAp?$AAa?$AAc?$AAe?$AA?2?$AAp?$AAl@ 0000000180046ff0     addon.obj
 0002:000090b0       ??_C@_1FM@LOELJOFK@?$AAs?$AAi?$AAz?$AAe?$AA?5?$AA?$DM?$AA?$DN?$AA?5?$AAi?$AAm?$AAp?$AA?3?$AA?3?$AAk?$AAM@ 00000001800470b0     addon.obj
 0002:00009110       ??_C@_0BN@EPMABAF@First?5arg?5should?5be?5a?5Buffer@ 0000000180047110     addon.obj
 0002:00009130       ??_C@_0CC@NHECKMAN@Could?5not?5convert?5the?5given?5fon@ 0000000180047130     addon.obj
 0002:00009158       ??_C@_07ONPFMHHK@convert@  0000000180047158     addon.obj
 0002:00009160       ??_C@_0GI@JAELBODH@D?3?2workspace?2plugin?2mini_font?2p@ 0000000180047160     addon.obj
 0002:000091c8       ??_C@_05ONJGPJEO@addon@    00000001800471c8     addon.obj
 0002:000091d0       ??_C@_0BC@BDKFLDHL@unknown?5exception@ 00000001800471d0     glyph.obj
 0002:000091e8       ??_C@_0BF@KINCDENJ@bad?5array?5new?5length@ 00000001800471e8     glyph.obj
 0002:00009200       ??_C@_0BA@FOIKENOD@vector?5too?5long@ 0000000180047200     glyph.obj
 0002:00009210       ??_7exception@stdext@@6B@  0000000180047210     glyph.obj
 0002:00009228       ??_7bad_array_new_length@stdext@@6B@ 0000000180047228     glyph.obj
 0002:00009240       ??_C@_0BB@GCADKGJO@map?1set?5too?5long@ 0000000180047240     font.obj
 0002:00009260       ??_C@_1NI@JFKOIKCH@?$AAD?$AA?3?$AA?2?$AAw?$AAo?$AAr?$AAk?$AAs?$AAp?$AAa?$AAc?$AAe?$AA?2?$AAp?$AAl@ 0000000180047260     font.obj
 0002:00009338       ??_C@_1BG@GNOBELO@?$AAv?$AAa?$AAl?$AAu?$AAe?$AA?5?$AA?$DN?$AA?$DN?$AA?5?$AA1@ 0000000180047338     font.obj
 0002:00009360       ?kKnownTags@woff2@@3QBIB   0000000180047360     table_tags.obj
 0002:00046038       __pfnDliNotifyHook2        0000000180084038     win_delay_load_hook.obj
 0002:000964e0       ??_C@_0BM@NIJEAGPP@Font?5normalization?5failed?4?6@ 00000001800d44e0     normalize.obj
 0002:00096500       ??_C@_0BJ@MEPOFKNI@Failed?5to?5fix?5checksums?6@ 00000001800d4500     normalize.obj
 0002:00096520       ??_C@_0BA@JFNIOLAK@string?5too?5long@ 00000001800d4520     woff2_enc.obj
 0002:00096530       ??_C@_00CNPNBAHC@@         00000001800d4530     woff2_enc.obj
 0002:00096534       ??_C@_01CLKCMJKC@?5@       00000001800d4534     woff2_enc.obj
 0002:00096538       ??_C@_05GAMJOPOA@?5the?5@  00000001800d4538     woff2_enc.obj
 0002:00096540       ??_C@_02MDINNEEG@s?5@      00000001800d4540     woff2_enc.obj
 0002:00096544       ??_C@_04ECIHFDID@?5of?5@   00000001800d4544     woff2_enc.obj
 0002:0009654c       ??_C@_05OMGAMCPJ@?5and?5@  00000001800d454c     woff2_enc.obj
 0002:00096554       ??_C@_02KEGNLNML@?0?5@     00000001800d4554     woff2_enc.obj
 0002:00096558       ??_C@_04GJPPFNOH@?5in?5@   00000001800d4558     woff2_enc.obj
 0002:00096560       ??_C@_04MKEOLIJC@?5to?5@   00000001800d4560     woff2_enc.obj
 0002:00096568       ??_C@_02NLCGALIE@e?5@      00000001800d4568     woff2_enc.obj
 0002:0009656c       ??_C@_01BJJEKLCA@?$CC@     00000001800d456c     woff2_enc.obj
 0002:00096570       ??_C@_01LFCBOECM@?4@       00000001800d4570     woff2_enc.obj
 0002:00096574       ??_C@_02HKLCKPBO@?$CC?$DO@ 00000001800d4574     woff2_enc.obj
 0002:00096578       ??_C@_01EEMJAFIK@?6@       00000001800d4578     woff2_enc.obj
 0002:0009657c       ??_C@_01LBDDMOBJ@?$FN@     00000001800d457c     woff2_enc.obj
 0002:00096580       ??_C@_05POFHKGEO@?5for?5@  00000001800d4580     woff2_enc.obj
 0002:00096588       ??_C@_03KCBIAKGI@?5a?5@    00000001800d4588     woff2_enc.obj
 0002:0009658c       ??_C@_06NBDJBOAO@?5that?5@ 00000001800d458c     woff2_enc.obj
 0002:00096594       ??_C@_02KHOJGJKF@?4?5@     00000001800d4594     woff2_enc.obj
 0002:00096598       ??_C@_06BIDGLIKJ@?5with?5@ 00000001800d4598     woff2_enc.obj
 0002:000965a0       ??_C@_01GEODFPGF@?8@       00000001800d45a0     woff2_enc.obj
 0002:000965a4       ??_C@_06EGFPNNHB@?5from?5@ 00000001800d45a4     woff2_enc.obj
 0002:000965ac       ??_C@_04KHJHGPBD@?5by?5@   00000001800d45ac     woff2_enc.obj
 0002:000965b4       ??_C@_06BCCEPMPI@?4?5The?5@ 00000001800d45b4     woff2_enc.obj
 0002:000965bc       ??_C@_04EMJEACDL@?5on?5@   00000001800d45bc     woff2_enc.obj
 0002:000965c4       ??_C@_04LILFEFCL@?5as?5@   00000001800d45c4     woff2_enc.obj
 0002:000965cc       ??_C@_04HNABGNME@?5is?5@   00000001800d45cc     woff2_enc.obj
 0002:000965d4       ??_C@_04KOBKGEOJ@ing?5@    00000001800d45d4     woff2_enc.obj
 0002:000965dc       ??_C@_02NMOLBIHC@?6?7@     00000001800d45dc     woff2_enc.obj
 0002:000965e0       ??_C@_01JLIPDDHJ@?3@       00000001800d45e0     woff2_enc.obj
 0002:000965e4       ??_C@_03IBJGAIM@ed?5@      00000001800d45e4     woff2_enc.obj
 0002:000965e8       ??_C@_01ODHLEDKK@?$CI@     00000001800d45e8     woff2_enc.obj
 0002:000965ec       ??_C@_04LNPKFDKO@?5at?5@   00000001800d45ec     woff2_enc.obj
 0002:000965f4       ??_C@_03GBOPBPCF@ly?5@     00000001800d45f4     woff2_enc.obj
 0002:000965f8       ??_C@_02ILLPBGAO@?$DN?$CC@ 00000001800d45f8     woff2_enc.obj
 0002:000965fc       ??_C@_05JMFPLAMM@?4com?1@  00000001800d45fc     woff2_enc.obj
 0002:00096608       ??_C@_08FEFOBDIG@?5of?5the?5@ 00000001800d4608     woff2_enc.obj
 0002:00096618       ??_C@_07CNMFFCB@?4?5This?5@ 00000001800d4618     woff2_enc.obj
 0002:00096620       ??_C@_01IHBHIGKO@?0@       00000001800d4620     woff2_enc.obj
 0002:00096624       ??_C@_05MKKKJBDN@?5not?5@  00000001800d4624     woff2_enc.obj
 0002:0009662c       ??_C@_03BALCLPEO@er?5@     00000001800d462c     woff2_enc.obj
 0002:00096630       ??_C@_03IJGIKGGD@al?5@     00000001800d4630     woff2_enc.obj
 0002:00096634       ??_C@_02PGMIOCEL@?$DN?8@   00000001800d4634     woff2_enc.obj
 0002:00096638       ??_C@_04KHAHMMEH@ful?5@    00000001800d4638     woff2_enc.obj
 0002:00096640       ??_C@_04DIDDMPPH@ive?5@    00000001800d4640     woff2_enc.obj
 0002:00096648       ??_C@_05NKGAJEJJ@less?5@   00000001800d4648     woff2_enc.obj
 0002:00096650       ??_C@_04NHPJBLID@est?5@    00000001800d4650     woff2_enc.obj
 0002:00096658       ??_C@_04HCOFHAEP@ize?5@    00000001800d4658     woff2_enc.obj
 0002:00096660       ??_C@_02DMJCNICK@?B?$KA@   00000001800d4660     woff2_enc.obj
 0002:00096664       ??_C@_04LNGNEKHL@ous?5@    00000001800d4664     woff2_enc.obj
 0002:00096670       ??_C@_0BN@HEAHNNMF@Font?5transformation?5failed?4?6@ 00000001800d4670     woff2_enc.obj
 0002:00096690       ??_C@_0CD@OCNFMKNP@Parsing?5of?5the?5input?5font?5faile@ 00000001800d4690     woff2_enc.obj
 0002:000966b8       ??_C@_0CH@EOJHPIKI@Compression?5of?5combined?5table?5f@ 00000001800d46b8     woff2_enc.obj
 0002:000966e0       ??_C@_0CK@GMDJIFKF@Compression?5of?5extended?5metadat@ 00000001800d46e0     woff2_enc.obj
 0002:00096710       ??_C@_0DF@MEPEAJOB@Result?5allocation?5was?5too?5small@ 00000001800d4710     woff2_enc.obj
 0002:00096748       ??_C@_0CH@JJNHMEMJ@Missing?5table?5index?5for?5offset?5@ 00000001800d4748     woff2_enc.obj
 0002:00096770       ??_C@_0DK@GDAEJMMO@Mismatch?5between?5computed?5and?5a@ 00000001800d4770     woff2_enc.obj
 0002:000967b0       ??_C@_0BG@BBKNOMOH@invalid?5map?$DMK?0?5T?$DO?5key@ 00000001800d47b0     woff2_enc.obj
 0002:000967d0       ??_C@_1NM@BBNDCAJA@?$AAD?$AA?3?$AA?2?$AAw?$AAo?$AAr?$AAk?$AAs?$AAp?$AAa?$AAc?$AAe?$AA?2?$AAp?$AAl@ 00000001800d47d0     backward_references.obj
 0002:000968b0       ?kDistanceShortCodeBitCost@?1??BackwardReferenceScoreUsingLastDistance@brotli@@YANNHH@Z@4QBNB 00000001800d48b0     backward_references.obj
 0002:00096930       ?kLimits@?EG@???$CreateBackwardReferences@V?$HashLongestMatch@$0P@$07$03$0BA@$00$00@brotli@@$00$00@brotli@@YAX_K0PEBE0PEBM0_KNHPEAV?$HashLongestMatch@$0P@$07$03$0BA@$00$00@1@PEAH5PEAUCommand@1@5@Z@4QBHB 00000001800d4930     backward_references.obj
 0002:00096930       ?kLimits@?EG@???$CreateBackwardReferences@V?$HashLongestMatchQuickly@$0BB@$03@brotli@@$0A@$0A@@brotli@@YAX_K0PEBE0PEBM0_KNHPEAV?$HashLongestMatchQuickly@$0BB@$03@1@PEAH5PEAUCommand@1@5@Z@4QBHB 00000001800d4930     backward_references.obj
 0002:00096930       ?kLimits@?EG@???$CreateBackwardReferences@V?$HashLongestMatch@$0O@$04$03$03$0A@$0A@@brotli@@$0A@$0A@@brotli@@YAX_K0PEBE0PEBM0_KNHPEAV?$HashLongestMatch@$0O@$04$03$03$0A@$0A@@1@PEAH5PEAUCommand@1@5@Z@4QBHB 00000001800d4930     backward_references.obj
 0002:00096930       ?kLimits@?EG@???$CreateBackwardReferences@V?$HashLongestMatch@$0P@$07$01$0BA@$00$0A@@brotli@@$00$0A@@brotli@@YAX_K0PEBE0PEBM0_KNHPEAV?$HashLongestMatch@$0P@$07$01$0BA@$00$0A@@1@PEAH5PEAUCommand@1@5@Z@4QBHB 00000001800d4930     backward_references.obj
 0002:00096930       ?kLimits@?EG@???$CreateBackwardReferences@V?$HashLongestMatch@$0O@$03$03$03$0A@$0A@@brotli@@$0A@$0A@@brotli@@YAX_K0PEBE0PEBM0_KNHPEAV?$HashLongestMatch@$0O@$03$03$03$0A@$0A@@1@PEAH5PEAUCommand@1@5@Z@4QBHB 00000001800d4930     backward_references.obj
 0002:00096930       ?kLimits@?EG@???$CreateBackwardReferences@V?$HashLongestMatch@$0P@$07$03$0BA@$0A@$0A@@brotli@@$0A@$0A@@brotli@@YAX_K0PEBE0PEBM0_KNHPEAV?$HashLongestMatch@$0P@$07$03$0BA@$0A@$0A@@1@PEAH5PEAUCommand@1@5@Z@4QBHB 00000001800d4930     backward_references.obj
 0002:00096930       ?kLimits@?EG@???$CreateBackwardReferences@V?$HashLongestMatchQuickly@$0BA@$00@brotli@@$0A@$0A@@brotli@@YAX_K0PEBE0PEBM0_KNHPEAV?$HashLongestMatchQuickly@$0BA@$00@1@PEAH5PEAUCommand@1@5@Z@4QBHB 00000001800d4930     backward_references.obj
 0002:00096930       ?kLimits@?EG@???$CreateBackwardReferences@V?$HashLongestMatch@$0P@$06$03$09$0A@$0A@@brotli@@$0A@$0A@@brotli@@YAX_K0PEBE0PEBM0_KNHPEAV?$HashLongestMatch@$0P@$06$03$09$0A@$0A@@1@PEAH5PEAUCommand@1@5@Z@4QBHB 00000001800d4930     backward_references.obj
 0002:00096930       ?kLimits@?EG@???$CreateBackwardReferences@V?$HashLongestMatch@$0P@$05$03$09$0A@$0A@@brotli@@$0A@$0A@@brotli@@YAX_K0PEBE0PEBM0_KNHPEAV?$HashLongestMatch@$0P@$05$03$09$0A@$0A@@1@PEAH5PEAUCommand@1@5@Z@4QBHB 00000001800d4930     backward_references.obj
 0002:000969a0       ??_C@_1OA@LKNOGMPE@?$AAD?$AA?3?$AA?2?$AAw?$AAo?$AAr?$AAk?$AAs?$AAp?$AAa?$AAc?$AAe?$AA?2?$AAp?$AAl@ 00000001800d49a0     brotli_bit_stream.obj
 0002:00096a80       ??_C@_1CM@FMBMFIGD@?$AAb?$AAi?$AAt?$AAs?$AA?5?$AA?$DM?$AA?5?$AA1?$AAU?$AAL?$AAL?$AA?5?$AA?$DM?$AA?$DM?$AA?5@ 00000001800d4a80     brotli_bit_stream.obj
 0002:00096ad8       ??_C@_0BL@GOIGLPKN@unordered_map?1set?5too?5long@ 00000001800d4ad8     encode.obj
 0002:00096af8       ??_C@_0BK@OGNNAFAB@invalid?5hash?5bucket?5count@ 00000001800d4af8     encode.obj
 0002:00096b18       ??_7BrotliIn@brotli@@6B@   00000001800d4b18     encode.obj
 0002:00096b18       ??_7BrotliOut@brotli@@6B@  00000001800d4b18     encode.obj
 0002:00096bb0       ??_7BrotliMemOut@brotli@@6B@ 00000001800d4bb0     streams.obj
 0002:00096bc0       ??_7BrotliMemIn@brotli@@6B@ 00000001800d4bc0     streams.obj
 0002:00096bd0       ??_C@_08JDDNMFDB@node?4exe@ 00000001800d4bd0     win_delay_load_hook.obj
 0002:00096bdc       __real@3f800000            00000001800d4bdc     literal_cost.obj
 0002:00096be0       __real@3f9db22d0e560419    00000001800d4be0     literal_cost.obj
 0002:00096be8       __real@3f9dbf487fcb923a    00000001800d4be8     literal_cost.obj
 0002:00096bf0       __real@3fa47ae147ae147b    00000001800d4bf0     backward_references.obj
 0002:00096bf8       __real@3fb1eb851eb851ec    00000001800d4bf8     block_splitter.obj
 0002:00096c00       __real@3fc999999999999a    00000001800d4c00     backward_references.obj
 0002:00096c08       __real@3fd3333333333333    00000001800d4c08     backward_references.obj
 0002:00096c10       __real@3fd6666666666666    00000001800d4c10     literal_cost.obj
 0002:00096c18       __real@3fe0000000000000    00000001800d4c18     literal_cost.obj
 0002:00096c20       __real@3fe6666666666666    00000001800d4c20     literal_cost.obj
 0002:00096c28       __real@3fe8000000000000    00000001800d4c28     encode.obj
 0002:00096c30       __real@3fe8a3d70a3d70a4    00000001800d4c30     block_splitter.obj
 0002:00096c38       __real@3fee666666666666    00000001800d4c38     backward_references.obj
 0002:00096c40       __real@3fef0a3d70a3d70a    00000001800d4c40     backward_references.obj
 0002:00096c48       __real@3fefae147ae147ae    00000001800d4c48     encode.obj
 0002:00096c50       __real@3ff199999999999a    00000001800d4c50     normalize.obj
 0002:00096c58       __real@3ff2b851eb851eb8    00000001800d4c58     backward_references.obj
 0002:00096c60       __real@3ff3333333333333    00000001800d4c60     woff2_enc.obj
 0002:00096c68       __real@3ff451eb851eb852    00000001800d4c68     backward_references.obj
 0002:00096c70       __real@4000000000000000    00000001800d4c70     block_splitter.obj
 0002:00096c78       __real@4002666666666666    00000001800d4c78     backward_references.obj
 0002:00096c80       __real@4008000000000000    00000001800d4c80     backward_references.obj
 0002:00096c88       __real@400e000000000000    00000001800d4c88     backward_references.obj
 0002:00096c90       __real@4010000000000000    00000001800d4c90     backward_references.obj
 0002:00096c98       __real@401599999999999a    00000001800d4c98     backward_references.obj
 0002:00096ca0       __real@401c000000000000    00000001800d4ca0     backward_references.obj
 0002:00096ca8       __real@401fae147ae147ae    00000001800d4ca8     encode.obj
 0002:00096cb0       __real@40203ae147ae147b    00000001800d4cb0     encode.obj
 0002:00096cb8       __real@4028000000000000    00000001800d4cb8     brotli_bit_stream.obj
 0002:00096cc0       __real@402a000000000000    00000001800d4cc0     encode.obj
 0002:00096cc8       __real@402b000000000000    00000001800d4cc8     block_splitter.obj
 0002:00096cd0       __real@402d333333333333    00000001800d4cd0     block_splitter.obj
 0002:00096cd8       __real@4034000000000000    00000001800d4cd8     metablock.obj
 0002:00096ce0       __real@403c19999999999a    00000001800d4ce0     block_splitter.obj
 0002:00096ce8       __real@4059000000000000    00000001800d4ce8     metablock.obj
 0002:00096cf0       __real@4079000000000000    00000001800d4cf0     metablock.obj
 0002:00096cf8       __real@407f400000000000    00000001800d4cf8     metablock.obj
 0002:00096d00       __real@409f400000000000    00000001800d4d00     block_splitter.obj
 0002:00096d08       __real@40c4000000000000    00000001800d4d08     woff2_enc.obj
 0002:00096d10       __real@43e0000000000000    00000001800d4d10     normalize.obj
 0002:00096d18       __real@547d42aea2879f2e    00000001800d4d18     block_splitter.obj
 0002:00096d20       __real@5f000000            00000001800d4d20     encode.obj
 0002:00096d28       __real@bfe3333333333333    00000001800d4d28     backward_references.obj
 0002:00096d30       __real@bff0000000000000    00000001800d4d30     backward_references.obj
 0002:00096d40       __xmm@00000001000000010000000100000001 00000001800d4d40     entropy_encode.obj
 0002:00096d50       __xmm@00000003000000020000000100000000 00000001800d4d50     brotli_bit_stream.obj
 0002:00096d60       __xmm@3f50624dd2f1a9fc3f50624dd2f1a9fc 00000001800d4d60     backward_references.obj
 0002:00096d70       __xmm@3f8a9fbe76c8b4393f9374bc6a7ef9db 00000001800d4d70     backward_references.obj
 0002:00096d80       __xmm@3fa374bc6a7ef9db3fb999999999999a 00000001800d4d80     backward_references.obj
 0002:00096d90       __xmm@40000000400000004000000040000000 00000001800d4d90     entropy_encode.obj
 0002:00096da0       __xmm@ffffffffffffffffffffffffffffffff 00000001800d4da0     entropy_encode.obj
 0002:00096e80       _tls_used                  00000001800d4e80     LIBCMT:tlssup.obj
 0002:00096ea8       ??_R4exception@std@@6B@    00000001800d4ea8     libcpmt:xthrow.obj
 0002:00096ed0       ??_R3exception@std@@8      00000001800d4ed0     libcpmt:xthrow.obj
 0002:00096ee8       ??_R2exception@std@@8      00000001800d4ee8     libcpmt:xthrow.obj
 0002:00096ef8       ??_R1A@?0A@EA@exception@std@@8 00000001800d4ef8     libcpmt:xthrow.obj
 0002:00096f20       ??_R4bad_alloc@std@@6B@    00000001800d4f20     libcpmt:xthrow.obj
 0002:00096f48       ??_R3bad_alloc@std@@8      00000001800d4f48     libcpmt:xthrow.obj
 0002:00096f60       ??_R2bad_alloc@std@@8      00000001800d4f60     libcpmt:xthrow.obj
 0002:00096f78       ??_R1A@?0A@EA@bad_alloc@std@@8 00000001800d4f78     libcpmt:xthrow.obj
 0002:00096fa0       ??_R4logic_error@std@@6B@  00000001800d4fa0     libcpmt:xthrow.obj
 0002:00096fc8       ??_R3logic_error@std@@8    00000001800d4fc8     libcpmt:xthrow.obj
 0002:00096fe0       ??_R2logic_error@std@@8    00000001800d4fe0     libcpmt:xthrow.obj
 0002:00096ff8       ??_R1A@?0A@EA@logic_error@std@@8 00000001800d4ff8     libcpmt:xthrow.obj
 0002:00097020       ??_R4length_error@std@@6B@ 00000001800d5020     libcpmt:xthrow.obj
 0002:00097048       ??_R3length_error@std@@8   00000001800d5048     libcpmt:xthrow.obj
 0002:00097060       ??_R2length_error@std@@8   00000001800d5060     libcpmt:xthrow.obj
 0002:00097080       ??_R1A@?0A@EA@length_error@std@@8 00000001800d5080     libcpmt:xthrow.obj
 0002:000970a8       ??_R4out_of_range@std@@6B@ 00000001800d50a8     libcpmt:xthrow.obj
 0002:000970d0       ??_R3out_of_range@std@@8   00000001800d50d0     libcpmt:xthrow.obj
 0002:000970e8       ??_R2out_of_range@std@@8   00000001800d50e8     libcpmt:xthrow.obj
 0002:00097108       ??_R1A@?0A@EA@out_of_range@std@@8 00000001800d5108     libcpmt:xthrow.obj
 0002:00097130       ??_R4type_info@@6B@        00000001800d5130     LIBCMT:std_type_info_static.obj
 0002:00097158       ??_R3type_info@@8          00000001800d5158     LIBCMT:std_type_info_static.obj
 0002:00097170       ??_R2type_info@@8          00000001800d5170     LIBCMT:std_type_info_static.obj
 0002:00097180       ??_R1A@?0A@EA@type_info@@8 00000001800d5180     LIBCMT:std_type_info_static.obj
 0002:000971a8       ??_R4bad_array_new_length@std@@6B@ 00000001800d51a8     LIBCMT:throw_bad_alloc.obj
 0002:000971d0       ??_R3bad_array_new_length@std@@8 00000001800d51d0     LIBCMT:throw_bad_alloc.obj
 0002:000971e8       ??_R2bad_array_new_length@std@@8 00000001800d51e8     LIBCMT:throw_bad_alloc.obj
 0002:00097208       ??_R1A@?0A@EA@bad_array_new_length@std@@8 00000001800d5208     LIBCMT:throw_bad_alloc.obj
 0002:00097230       ??_R4bad_exception@std@@6B@ 00000001800d5230     libvcruntime:frame.obj
 0002:00097258       ??_R3bad_exception@std@@8  00000001800d5258     libvcruntime:frame.obj
 0002:00097270       ??_R2bad_exception@std@@8  00000001800d5270     libvcruntime:frame.obj
 0002:00097288       ??_R1A@?0A@EA@bad_exception@std@@8 00000001800d5288     libvcruntime:frame.obj
 0002:00097710       __rtc_iaa                  00000001800d5710     LIBCMT:initsect.obj
 0002:00097718       __rtc_izz                  00000001800d5718     LIBCMT:initsect.obj
 0002:00097720       __rtc_taa                  00000001800d5720     LIBCMT:initsect.obj
 0002:00097728       __rtc_tzz                  00000001800d5728     LIBCMT:initsect.obj
 0002:00097730       _tls_start                 00000001800d5730     LIBCMT:tlssup.obj
 0002:00097734       _Init_thread_epoch         00000001800d5734     LIBCMT:thread_safe_statics.obj
 0002:00097738       _tls_end                   00000001800d5738     LIBCMT:tlssup.obj
 0002:0009b5e0       _CT??_R0?AVbad_alloc@std@@@8??0bad_alloc@std@@QEAA@AEBV01@@Z24 00000001800d95e0     libcpmt:xthrow.obj
 0002:0009b608       _CT??_R0?AVexception@std@@@8??0exception@std@@QEAA@AEBV01@@Z24 00000001800d9608     libcpmt:xthrow.obj
 0002:0009b630       _TI2?AVbad_alloc@std@@     00000001800d9630     libcpmt:xthrow.obj
 0002:0009b650       _CTA2?AVbad_alloc@std@@    00000001800d9650     libcpmt:xthrow.obj
 0002:0009b668       _CT??_R0?AVlogic_error@std@@@8??0logic_error@std@@QEAA@AEBV01@@Z24 00000001800d9668     libcpmt:xthrow.obj
 0002:0009b690       _TI3?AVlength_error@std@@  00000001800d9690     libcpmt:xthrow.obj
 0002:0009b6b0       _CTA3?AVlength_error@std@@ 00000001800d96b0     libcpmt:xthrow.obj
 0002:0009b6d0       _CT??_R0?AVlength_error@std@@@8??0length_error@std@@QEAA@AEBV01@@Z24 00000001800d96d0     libcpmt:xthrow.obj
 0002:0009b6f8       _TI3?AVout_of_range@std@@  00000001800d96f8     libcpmt:xthrow.obj
 0002:0009b718       _CTA3?AVout_of_range@std@@ 00000001800d9718     libcpmt:xthrow.obj
 0002:0009b738       _CT??_R0?AVout_of_range@std@@@8??0out_of_range@std@@QEAA@AEBV01@@Z24 00000001800d9738     libcpmt:xthrow.obj
 0002:0009b760       _TI3?AVbad_array_new_length@std@@ 00000001800d9760     LIBCMT:throw_bad_alloc.obj
 0002:0009b780       _CTA3?AVbad_array_new_length@std@@ 00000001800d9780     LIBCMT:throw_bad_alloc.obj
 0002:0009b7a0       _CT??_R0?AVbad_array_new_length@std@@@8??0bad_array_new_length@std@@QEAA@AEBV01@@Z24 00000001800d97a0     LIBCMT:throw_bad_alloc.obj
 0002:0009b7c8       _TI2?AVbad_exception@std@@ 00000001800d97c8     libvcruntime:frame.obj
 0002:0009b7e8       _CTA2?AVbad_exception@std@@ 00000001800d97e8     libvcruntime:frame.obj
 0002:0009b800       _CT??_R0?AVbad_exception@std@@@8??0bad_exception@std@@QEAA@AEBV01@@Z24 00000001800d9800     libvcruntime:frame.obj
 0002:0009b824       __DELAY_IMPORT_DESCRIPTOR_node_exe 00000001800d9824     node:node.exe
 0002:0009b844       __NULL_DELAY_IMPORT_DESCRIPTOR 00000001800d9844     node:node.exe
 0002:0009b948       \177node_NULL_THUNK_DATA_DLN 00000001800d9948     node:node.exe
 0002:0009c150       \177node_NULL_THUNK_DATA_DLB 00000001800da150     node:node.exe
 0002:0009c280       __IMPORT_DESCRIPTOR_KERNEL32 00000001800da280     kernel32:KERNEL32.dll
 0002:0009c294       __NULL_IMPORT_DESCRIPTOR   00000001800da294     kernel32:KERNEL32.dll
 0003:00000000       _Init_global_epoch         00000001800db000     LIBCMT:thread_safe_statics.obj
 0003:00000008       __isa_available            00000001800db008     LIBCMT:cpu_disp.obj
 0003:0000000c       __isa_enabled              00000001800db00c     LIBCMT:cpu_disp.obj
 0003:00000010       __memcpy_nt_iters          00000001800db010     LIBCMT:cpu_disp.obj
 0003:00000018       __memset_nt_iters          00000001800db018     LIBCMT:cpu_disp.obj
 0003:00000020       __security_cookie_complement 00000001800db020     LIBCMT:gs_cookie.obj
 0003:00000028       __security_cookie          00000001800db028     LIBCMT:gs_cookie.obj
 0003:00000030       __scrt_native_dllmain_reason 00000001800db030     LIBCMT:utility.obj
 0003:00000050       _iob                       00000001800db050     libucrt:_file.obj
 0003:00000158       __abort_behavior           00000001800db158     libucrt:abort.obj
 0003:00000170       __badioinfo                00000001800db170     libucrt:ioinit.obj
 0003:000001c0       __acrt_initial_locale_data 00000001800db1c0     libucrt:nlsdata.obj
 0003:00000318       __acrt_initial_locale_pointers 00000001800db318     libucrt:nlsdata.obj
 0003:00000328       __acrt_wide_c_locale_string 00000001800db328     libucrt:nlsdata.obj
 0003:00000330       _lookuptrailbytes          00000001800db330     libucrt:read.obj
 0003:00000430       __acrt_initial_multibyte_data 00000001800db430     libucrt:mbctype.obj
 0003:00000970       _pwctype                   00000001800db970     libucrt:ctype.obj
 0003:00000978       __globallocalestatus       00000001800db978     libucrt:glstatus.obj
 0003:00000980       __acrt_lconv_c             00000001800db980     libucrt:localeconv.obj
 0003:00000a18       __acrt_lconv_static_decimal 00000001800dba18     libucrt:localeconv.obj
 0003:00000a1c       __acrt_lconv_static_W_decimal 00000001800dba1c     libucrt:localeconv.obj
 0003:00000a40       _fltused                   00000001800dba40     LIBCMT:fltused.obj
 0003:00000a90       ??_R0?AVbad_alloc@std@@@8  00000001800dba90     libcpmt:xthrow.obj
 0003:00000ab8       ??_R0?AVexception@std@@@8  00000001800dbab8     libcpmt:xthrow.obj
 0003:00000ae0       ??_R0?AVlogic_error@std@@@8 00000001800dbae0     libcpmt:xthrow.obj
 0003:00000b08       ??_R0?AVlength_error@std@@@8 00000001800dbb08     libcpmt:xthrow.obj
 0003:00000b30       ??_R0?AVout_of_range@std@@@8 00000001800dbb30     libcpmt:xthrow.obj
 0003:00000b58       ??_R0?AVtype_info@@@8      00000001800dbb58     LIBCMT:std_type_info_static.obj
 0003:00000b78       ??_R0?AVbad_array_new_length@std@@@8 00000001800dbb78     LIBCMT:throw_bad_alloc.obj
 0003:00000ba8       ??_R0?AVbad_exception@std@@@8 00000001800dbba8     libvcruntime:frame.obj
 0003:00000bd0       __imp_?Value@External@v8@@QEBAPEAXXZ 00000001800dbbd0     node:node.exe
 0003:00000bd8       __imp_?New@External@v8@@SA?AV?$Local@VExternal@v8@@@2@PEAVIsolate@2@PEAX@Z 00000001800dbbd8     node:node.exe
 0003:00000be0       __imp_?ThrowException@Isolate@v8@@QEAA?AV?$Local@VValue@v8@@@2@V32@@Z 00000001800dbbe0     node:node.exe
 0003:00000be8       __imp_?GetCurrentContext@Isolate@v8@@QEAA?AV?$Local@VContext@v8@@@2@XZ 00000001800dbbe8     node:node.exe
 0003:00000bf0       __imp_?GetCurrent@Isolate@v8@@SAPEAV12@XZ 00000001800dbbf0     node:node.exe
 0003:00000bf8       __imp_?CreateHandle@HandleScope@v8@@CAPEAPEAVObject@internal@2@PEAVHeapObject@42@PEAV342@@Z 00000001800dbbf8     node:node.exe
 0003:00000c00       __imp_??1HandleScope@v8@@QEAA@XZ 00000001800dbc00     node:node.exe
 0003:00000c08       __imp_??0HandleScope@v8@@QEAA@PEAVIsolate@1@@Z 00000001800dbc08     node:node.exe
 0003:00000c10       __imp_?Error@Exception@v8@@SA?AV?$Local@VValue@v8@@@2@V?$Local@VString@v8@@@2@@Z 00000001800dbc10     node:node.exe
 0003:00000c18       __imp_?TypeError@Exception@v8@@SA?AV?$Local@VValue@v8@@@2@V?$Local@VString@v8@@@2@@Z 00000001800dbc18     node:node.exe
 0003:00000c20       __imp_?GetFunction@FunctionTemplate@v8@@QEAA?AV?$MaybeLocal@VFunction@v8@@@2@V?$Local@VContext@v8@@@2@@Z 00000001800dbc20     node:node.exe
 0003:00000c28       __imp_?New@FunctionTemplate@v8@@SA?AV?$Local@VFunctionTemplate@v8@@@2@PEAVIsolate@2@P6AXAEBV?$FunctionCallbackInfo@VValue@v8@@@2@@ZV?$Local@VValue@v8@@@2@V?$Local@VSignature@v8@@@2@HW4ConstructorBehavior@2@W4SideEffectType@2@@Z 00000001800dbc28     node:node.exe
 0003:00000c30       __imp_?ToLocalEmpty@V8@v8@@CAXXZ 00000001800dbc30     node:node.exe
 0003:00000c38       __imp_?ToObject@Value@v8@@QEBA?AV?$MaybeLocal@VObject@v8@@@2@V?$Local@VContext@v8@@@2@@Z 00000001800dbc38     node:node.exe
 0003:00000c40       __imp_?Escape@EscapableHandleScope@v8@@AEAAPEAPEAVObject@internal@2@PEAPEAV342@@Z 00000001800dbc40     node:node.exe
 0003:00000c48       __imp_??0EscapableHandleScope@v8@@QEAA@PEAVIsolate@1@@Z 00000001800dbc48     node:node.exe
 0003:00000c50       __imp_?NewFromUtf8@String@v8@@SA?AV?$MaybeLocal@VString@v8@@@2@PEAVIsolate@2@PEBDW4NewStringType@2@H@Z 00000001800dbc50     node:node.exe
 0003:00000c58       __imp_?SlowGetInternalField@Object@v8@@AEAA?AV?$Local@VValue@v8@@@2@H@Z 00000001800dbc58     node:node.exe
 0003:00000c60       __imp_?SetInternalField@Object@v8@@QEAAXHV?$Local@VValue@v8@@@2@@Z 00000001800dbc60     node:node.exe
 0003:00000c68       __imp_?Set@Object@v8@@QEAA?AV?$Maybe@_N@2@V?$Local@VContext@v8@@@2@V?$Local@VValue@v8@@@2@1@Z 00000001800dbc68     node:node.exe
 0003:00000c70       __imp_?SetInternalFieldCount@ObjectTemplate@v8@@QEAAXH@Z 00000001800dbc70     node:node.exe
 0003:00000c78       __imp_?NewInstance@ObjectTemplate@v8@@QEAA?AV?$MaybeLocal@VObject@v8@@@2@V?$Local@VContext@v8@@@2@@Z 00000001800dbc78     node:node.exe
 0003:00000c80       __imp_?New@ObjectTemplate@v8@@SA?AV?$Local@VObjectTemplate@v8@@@2@PEAVIsolate@2@V?$Local@VFunctionTemplate@v8@@@2@@Z 00000001800dbc80     node:node.exe
 0003:00000c88       __imp_node_module_register 00000001800dbc88     node:node.exe
 0003:00000c90       __imp_?HasInstance@Buffer@node@@YA_NV?$Local@VObject@v8@@@v8@@@Z 00000001800dbc90     node:node.exe
 0003:00000c98       __imp_?New@Buffer@node@@YA?AV?$MaybeLocal@VObject@v8@@@v8@@PEAVIsolate@4@PEAD_K@Z 00000001800dbc98     node:node.exe
 0003:00000ca0       __imp_?Data@Buffer@node@@YAPEADV?$Local@VObject@v8@@@v8@@@Z 00000001800dbca0     node:node.exe
 0003:00000ca8       __imp_?Length@Buffer@node@@YA_KV?$Local@VObject@v8@@@v8@@@Z 00000001800dbca8     node:node.exe
 0003:00000cb0       \177node_NULL_THUNK_DATA_DLA 00000001800dbcb0     node:node.exe
 0003:00000cc0       __hmod__node_exe           00000001800dbcc0     node:node.exe
 0003:00000cc8       ?_Raise_handler@std@@3P6AXAEBVexception@stdext@@@ZEA 00000001800dbcc8     libcpmt:raisehan.obj
 0003:0000128c       __favor                    00000001800dc28c     LIBCMT:cpu_disp.obj
 0003:00001290       __scrt_current_native_startup_state 00000001800dc290     LIBCMT:utility.obj
 0003:00001298       __scrt_native_startup_lock 00000001800dc298     LIBCMT:utility.obj
 0003:000012d8       __scrt_debugger_hook_flag  00000001800dc2d8     LIBCMT:utility_desktop.obj
 0003:000012e0       __castguard_check_failure_os_handled_fptr 00000001800dc2e0     LIBCMT:guard_support.obj
 0003:000012e8       _tls_index                 00000001800dc2e8     LIBCMT:tlssup.obj
 0003:000012f0       ?__type_info_root_node@@3U__type_info_node@@A 00000001800dc2f0     LIBCMT:tncleanup.obj
 0003:00001300       ?_OptionsStorage@?1??__local_stdio_scanf_options@@9@4_KA 00000001800dc300     LIBCMT:default_local_stdio_options.obj
 0003:00001308       ?__WinRTOutOfMemoryExceptionCallback@@3P6APEAXXZEA 00000001800dc308     libvcruntime:ehhelpers.obj
 0003:00001310       __pPurecall                00000001800dc310     libvcruntime:purevirt_data.obj
 0003:000013d0       ?pArgList@UnDecorator@@0PEAVReplicator@@EA 00000001800dc3d0     libvcruntime:undname.obj
 0003:000013d8       ?pZNameList@UnDecorator@@0PEAVReplicator@@EA 00000001800dc3d8     libvcruntime:undname.obj
 0003:000013e0       ?pTemplateArgList@UnDecorator@@0PEAVReplicator@@EA 00000001800dc3e0     libvcruntime:undname.obj
 0003:000013e8       ?gName@UnDecorator@@0PEBDEB 00000001800dc3e8     libvcruntime:undname.obj
 0003:000013f0       ?name@UnDecorator@@0PEBDEB 00000001800dc3f0     libvcruntime:undname.obj
 0003:000013f8       ?disableFlags@UnDecorator@@0KA 00000001800dc3f8     libvcruntime:undname.obj
 0003:000013fc       ?fExplicitTemplateParams@UnDecorator@@0_NA 00000001800dc3fc     libvcruntime:undname.obj
 0003:000013fd       ?fGetTemplateArgumentList@UnDecorator@@0_NA 00000001800dc3fd     libvcruntime:undname.obj
 0003:00001400       ?m_pGetParameter@UnDecorator@@0P6APEADJ@ZEA 00000001800dc400     libvcruntime:undname.obj
 0003:00001408       ?m_CHPENameOffset@UnDecorator@@0KA 00000001800dc408     libvcruntime:undname.obj
 0003:0000140c       ?m_recursionLevel@UnDecorator@@0KA 00000001800dc40c     libvcruntime:undname.obj
 0003:00001480       _nstream                   00000001800dc480     libucrt:_file.obj
 0003:00001488       __piob                     00000001800dc488     libucrt:_file.obj
 0003:00001490       _cflush                    00000001800dc490     libucrt:_file.obj
 0003:000014b0       ?c_exit_complete@?1???R<lambda_6e4b09c48022b2350581041d5f6b0c4c>@@QEBA@XZ@4_NA 00000001800dc4b0     libucrt:exit.obj
 0003:000015c8       _environ_table             00000001800dc5c8     libucrt:environment_initialization.obj
 0003:000015d0       _wenviron_table            00000001800dc5d0     libucrt:environment_initialization.obj
 0003:000015d8       __dcrt_initial_wide_environment 00000001800dc5d8     libucrt:environment_initialization.obj
 0003:000015e0       __dcrt_initial_narrow_environment 00000001800dc5e0     libucrt:environment_initialization.obj
 0003:000015e8       __acrt_atexit_table        00000001800dc5e8     libucrt:onexit.obj
 0003:00001600       __acrt_at_quick_exit_table 00000001800dc600     libucrt:onexit.obj
 0003:000017f0       __pioinfo                  00000001800dc7f0     libucrt:ioinit.obj
 0003:00001bf0       _nhandle                   00000001800dcbf0     libucrt:ioinit.obj
 0003:00001c08       __acrt_stdout_buffer       00000001800dcc08     libucrt:_sftbuf.obj
 0003:00001c10       __acrt_stderr_buffer       00000001800dcc10     libucrt:_sftbuf.obj
 0003:00001c18       __acrt_locale_changed_data 00000001800dcc18     libucrt:wsetlocale.obj
 0003:00001c20       __acrt_current_locale_data 00000001800dcc20     libucrt:nlsdata.obj
 0003:00001e70       _mbctype                   00000001800dce70     libucrt:mbctype.obj
 0003:00001e78       _mbcasemap                 00000001800dce78     libucrt:mbctype.obj
 0003:00001e80       __acrt_current_multibyte_data 00000001800dce80     libucrt:mbctype.obj
 0003:00001e90       _pgmptr                    00000001800dce90     libucrt:argv_data.obj
 0003:00001e98       __argc                     00000001800dce98     libucrt:argv_data.obj
 0003:00001ea0       __argv                     00000001800dcea0     libucrt:argv_data.obj
 0003:00001ea8       __wargv                    00000001800dcea8     libucrt:argv_data.obj
 0003:00001eb0       _acmdln                    00000001800dceb0     libucrt:argv_data.obj
 0003:00001eb8       _wcmdln                    00000001800dceb8     libucrt:argv_data.obj
 0003:00001ec0       __acrt_heap                00000001800dcec0     libucrt:heap_handle.obj
 0003:00001ed4       __acrt_lconv_static_null   00000001800dced4     libucrt:localeconv.obj
 0003:00001ed8       __acrt_lconv_static_W_null 00000001800dced8     libucrt:localeconv.obj
 0003:00001ee8       __fma3_is_available        00000001800dcee8     libucrt:fma3_available.obj
 0003:00001eec       __use_fma3_lib             00000001800dceec     libucrt:fma3_available.obj
 0003:00001ef0       ?DloadKernel32@@3PEAUHINSTANCE__@@EA 00000001800dcef0     DelayImp:delayhlp.obj
 0003:00001ef8       ?DloadAcquireSRWLockExclusive@@3P6AXPEA_K@ZEA 00000001800dcef8     DelayImp:delayhlp.obj
 0003:00001f00       ?DloadReleaseSRWLockExclusive@@3P6AXPEA_K@ZEA 00000001800dcf00     DelayImp:delayhlp.obj
 0003:00001f08       ?DloadSrwLock@@3_KA        00000001800dcf08     DelayImp:delayhlp.obj
 0003:00001f10       ?DloadSectionLockCount@@3KA 00000001800dcf10     DelayImp:delayhlp.obj
 0003:00001f14       ?DloadSectionOldProtection@@3KA 00000001800dcf14     DelayImp:delayhlp.obj
 0003:00001f18       ?DloadSectionCommitPermanent@@3KA 00000001800dcf18     DelayImp:delayhlp.obj
 0003:00001f20       ?_OptionsStorage@?1??__local_stdio_printf_options@@9@4_KA 00000001800dcf20     normalize.obj
 0003:00001f28       ?static_dictionary_@BrotliCompressor@brotli@@0PEAVStaticDictionary@2@EA 00000001800dcf28     encode.obj
 0003:00001f40       __scrt_ucrt_dll_is_in_use  00000001800dcf40     <common>
 0003:00001f48       __dyn_tls_init_callback    00000001800dcf48     <common>

 entry point at        0001:00026340

 Static symbols

 0000:fff1b000       .debug$S                   0000000180000000     addon.exp
 0000:fff1b000       .debug$S                   0000000180000000     kernel32:KERNEL32.dll
 0000:fff1b000       .debug$S                   0000000180000000     kernel32:KERNEL32.dll
 0000:fff1b000       .debug$S                   0000000180000000     kernel32:KERNEL32.dll
 0000:fff1b000       .debug$S                   0000000180000000     kernel32:KERNEL32.dll
 0000:fff1b000       .debug$S                   0000000180000000     kernel32:KERNEL32.dll
 0000:fff1b000       .debug$S                   0000000180000000     kernel32:KERNEL32.dll
 0000:fff1b000       .debug$S                   0000000180000000     kernel32:KERNEL32.dll
 0000:fff1b000       .debug$S                   0000000180000000     kernel32:KERNEL32.dll
 0000:fff1b000       .debug$S                   0000000180000000     kernel32:KERNEL32.dll
 0000:fff1b000       .debug$S                   0000000180000000     kernel32:KERNEL32.dll
 0000:fff1b000       .debug$S                   0000000180000000     kernel32:KERNEL32.dll
 0000:fff1b000       .debug$S                   0000000180000000     kernel32:KERNEL32.dll
 0000:fff1b000       .debug$S                   0000000180000000     kernel32:KERNEL32.dll
 0000:fff1b000       .debug$S                   0000000180000000     kernel32:KERNEL32.dll
 0000:fff1b000       .debug$S                   0000000180000000     kernel32:KERNEL32.dll
 0000:fff1b000       .debug$S                   0000000180000000     kernel32:KERNEL32.dll
 0000:fff1b000       .debug$S                   0000000180000000     kernel32:KERNEL32.dll
 0000:fff1b000       .debug$S                   0000000180000000     kernel32:KERNEL32.dll
 0000:fff1b000       .debug$S                   0000000180000000     kernel32:KERNEL32.dll
 0000:fff1b000       .debug$S                   0000000180000000     kernel32:KERNEL32.dll
 0000:fff1b000       .debug$S                   0000000180000000     kernel32:KERNEL32.dll
 0000:fff1b000       .debug$S                   0000000180000000     kernel32:KERNEL32.dll
 0000:fff1b000       .debug$S                   0000000180000000     kernel32:KERNEL32.dll
 0000:fff1b000       .debug$S                   0000000180000000     kernel32:KERNEL32.dll
 0000:fff1b000       .debug$S                   0000000180000000     kernel32:KERNEL32.dll
 0000:fff1b000       .debug$S                   0000000180000000     kernel32:KERNEL32.dll
 0000:fff1b000       .debug$S                   0000000180000000     kernel32:KERNEL32.dll
 0000:fff1b000       .debug$S                   0000000180000000     kernel32:KERNEL32.dll
 0000:fff1b000       .debug$S                   0000000180000000     kernel32:KERNEL32.dll
 0000:fff1b000       .debug$S                   0000000180000000     kernel32:KERNEL32.dll
 0000:fff1b000       .debug$S                   0000000180000000     kernel32:KERNEL32.dll
 0000:fff1b000       .debug$S                   0000000180000000     kernel32:KERNEL32.dll
 0000:fff1b000       .debug$S                   0000000180000000     kernel32:KERNEL32.dll
 0000:fff1b000       .debug$S                   0000000180000000     kernel32:KERNEL32.dll
 0000:fff1b000       .debug$S                   0000000180000000     kernel32:KERNEL32.dll
 0000:fff1b000       .debug$S                   0000000180000000     kernel32:KERNEL32.dll
 0000:fff1b000       .debug$S                   0000000180000000     kernel32:KERNEL32.dll
 0000:fff1b000       .debug$S                   0000000180000000     kernel32:KERNEL32.dll
 0000:fff1b000       .debug$S                   0000000180000000     kernel32:KERNEL32.dll
 0000:fff1b000       .debug$S                   0000000180000000     kernel32:KERNEL32.dll
 0000:fff1b000       .debug$S                   0000000180000000     kernel32:KERNEL32.dll
 0000:fff1b000       .debug$S                   0000000180000000     kernel32:KERNEL32.dll
 0000:fff1b000       .debug$S                   0000000180000000     kernel32:KERNEL32.dll
 0000:fff1b000       .debug$S                   0000000180000000     kernel32:KERNEL32.dll
 0000:fff1b000       .debug$S                   0000000180000000     kernel32:KERNEL32.dll
 0000:fff1b000       .debug$S                   0000000180000000     kernel32:KERNEL32.dll
 0000:fff1b000       .debug$S                   0000000180000000     kernel32:KERNEL32.dll
 0000:fff1b000       .debug$S                   0000000180000000     kernel32:KERNEL32.dll
 0000:fff1b000       .debug$S                   0000000180000000     kernel32:KERNEL32.dll
 0000:fff1b000       .debug$S                   0000000180000000     kernel32:KERNEL32.dll
 0000:fff1b000       .debug$S                   0000000180000000     kernel32:KERNEL32.dll
 0000:fff1b000       .debug$S                   0000000180000000     kernel32:KERNEL32.dll
 0000:fff1b000       .debug$S                   0000000180000000     kernel32:KERNEL32.dll
 0000:fff1b000       .debug$S                   0000000180000000     kernel32:KERNEL32.dll
 0000:fff1b000       .debug$S                   0000000180000000     kernel32:KERNEL32.dll
 0000:fff1b000       .debug$S                   0000000180000000     kernel32:KERNEL32.dll
 0000:fff1b000       .debug$S                   0000000180000000     kernel32:KERNEL32.dll
 0000:fff1b000       .debug$S                   0000000180000000     kernel32:KERNEL32.dll
 0000:fff1b000       .debug$S                   0000000180000000     kernel32:KERNEL32.dll
 0000:fff1b000       .debug$S                   0000000180000000     kernel32:KERNEL32.dll
 0000:fff1b000       .debug$S                   0000000180000000     kernel32:KERNEL32.dll
 0000:fff1b000       .debug$S                   0000000180000000     kernel32:KERNEL32.dll
 0000:fff1b000       .debug$S                   0000000180000000     kernel32:KERNEL32.dll
 0000:fff1b000       .debug$S                   0000000180000000     kernel32:KERNEL32.dll
 0000:fff1b000       .debug$S                   0000000180000000     kernel32:KERNEL32.dll
 0000:fff1b000       .debug$S                   0000000180000000     kernel32:KERNEL32.dll
 0000:fff1b000       .debug$S                   0000000180000000     kernel32:KERNEL32.dll
 0000:fff1b000       .debug$S                   0000000180000000     kernel32:KERNEL32.dll
 0000:fff1b000       .debug$S                   0000000180000000     kernel32:KERNEL32.dll
 0000:fff1b000       .debug$S                   0000000180000000     kernel32:KERNEL32.dll
 0000:fff1b000       .debug$S                   0000000180000000     kernel32:KERNEL32.dll
 0000:fff1b000       .debug$S                   0000000180000000     kernel32:KERNEL32.dll
 0000:fff1b000       .debug$S                   0000000180000000     kernel32:KERNEL32.dll
 0000:fff1b000       .debug$S                   0000000180000000     kernel32:KERNEL32.dll
 0000:fff1b000       .debug$S                   0000000180000000     kernel32:KERNEL32.dll
 0000:fff1b000       .debug$S                   0000000180000000     kernel32:KERNEL32.dll
 0000:fff1b000       .debug$S                   0000000180000000     kernel32:KERNEL32.dll
 0000:fff1b000       .debug$S                   0000000180000000     kernel32:KERNEL32.dll
 0000:fff1b000       .debug$S                   0000000180000000     kernel32:KERNEL32.dll
 0000:fff1b000       .debug$S                   0000000180000000     kernel32:KERNEL32.dll
 0000:fff1b000       .debug$S                   0000000180000000     kernel32:KERNEL32.dll
 0000:fff1b000       .debug$S                   0000000180000000     kernel32:KERNEL32.dll
 0000:fff1b000       .debug$S                   0000000180000000     kernel32:KERNEL32.dll
 0000:fff1b000       .debug$S                   0000000180000000     kernel32:KERNEL32.dll
 0000:fff1b000       .debug$S                   0000000180000000     kernel32:KERNEL32.dll
 0000:fff1b000       .debug$S                   0000000180000000     kernel32:KERNEL32.dll
 0000:fff1b000       .debug$S                   0000000180000000     kernel32:KERNEL32.dll
 0000:fff1b000       .debug$S                   0000000180000000     kernel32:KERNEL32.dll
 0000:fff1b000       .debug$S                   0000000180000000     kernel32:KERNEL32.dll
 0000:fff1b000       .debug$S                   0000000180000000     kernel32:KERNEL32.dll
 0000:fff1b000       .debug$S                   0000000180000000     kernel32:KERNEL32.dll
 0000:fff1b000       .debug$S                   0000000180000000     kernel32:KERNEL32.dll
 0000:fff1b000       .debug$S                   0000000180000000     kernel32:KERNEL32.dll
 0000:fff1b000       .debug$S                   0000000180000000     node:node.exe
 0000:fff1b000       .debug$S                   0000000180000000     node:node.exe
 0000:fff1b000       .debug$S                   0000000180000000     node:node.exe
 0000:fff1b000       .debug$S                   0000000180000000     node:node.exe
 0000:fff1b000       .debug$S                   0000000180000000     node:node.exe
 0000:fff1b000       .debug$S                   0000000180000000     node:node.exe
 0000:fff1b000       .debug$S                   0000000180000000     node:node.exe
 0000:fff1b000       .debug$S                   0000000180000000     node:node.exe
 0000:fff1b000       .debug$S                   0000000180000000     node:node.exe
 0000:fff1b000       .debug$S                   0000000180000000     node:node.exe
 0000:fff1b000       .debug$S                   0000000180000000     node:node.exe
 0000:fff1b000       .debug$S                   0000000180000000     node:node.exe
 0000:fff1b000       .debug$S                   0000000180000000     node:node.exe
 0000:fff1b000       .debug$S                   0000000180000000     node:node.exe
 0000:fff1b000       .debug$S                   0000000180000000     node:node.exe
 0000:fff1b000       .debug$S                   0000000180000000     node:node.exe
 0000:fff1b000       .debug$S                   0000000180000000     node:node.exe
 0000:fff1b000       .debug$S                   0000000180000000     node:node.exe
 0000:fff1b000       .debug$S                   0000000180000000     node:node.exe
 0000:fff1b000       .debug$S                   0000000180000000     node:node.exe
 0000:fff1b000       .debug$S                   0000000180000000     node:node.exe
 0000:fff1b000       .debug$S                   0000000180000000     node:node.exe
 0000:fff1b000       .debug$S                   0000000180000000     node:node.exe
 0000:fff1b000       .debug$S                   0000000180000000     node:node.exe
 0000:fff1b000       .debug$S                   0000000180000000     node:node.exe
 0000:fff1b000       .debug$S                   0000000180000000     node:node.exe
 0000:fff1b000       .debug$S                   0000000180000000     node:node.exe
 0000:fff1b000       .debug$S                   0000000180000000     node:node.exe
 0000:fff1b000       .debug$S                   0000000180000000     node:node.exe
 0000:fff1b000       .debug$S                   0000000180000000     node:node.exe
 0000:fff1b000       .debug$S                   0000000180000000     node:node.exe
 0000:fff1b000       .debug$S                   0000000180000000     node:node.exe
 0000:fff1b000       .debug$S                   0000000180000000     node:node.exe
 0001:00000000       ?FunctionCallbackWrapper@imp@Nan@@YAXAEBV?$FunctionCallbackInfo@VValue@v8@@@v8@@@Z 0000000180001000 f   addon.obj
 0001:00000670       _register_addon            0000000180001670 f   addon.obj
 0001:00001170       ?StorePoints@?A0x004d6e0c@woff2@@YA_NAEBVGlyph@2@PEA_KPEAE_K@Z 0000000180002170 f   glyph.obj
 0001:00004530       ?WriteNormalizedLoca@?A0x1efe2f25@woff2@@YA_NHHPEAUFont@2@@Z 0000000180005530 f   normalize.obj
 0001:000053b0       ?GetTransformedGlyfBytes@GlyfEncoder@?A0x723790ab@woff2@@QEAAXPEAV?$vector@EV?$allocator@E@std@@@std@@@Z 00000001800063b0 f   transform.obj
 0001:000058b0       ?WriteSimpleGlyph@GlyfEncoder@?A0x723790ab@woff2@@AEAAXHAEBVGlyph@3@@Z 00000001800068b0 f   transform.obj
 0001:00005c00       ?WriteCompositeGlyph@GlyfEncoder@?A0x723790ab@woff2@@AEAAXHAEBVGlyph@3@@Z 0000000180006c00 f   transform.obj
 0001:00005dc0       ?WriteTriplet@GlyfEncoder@?A0x723790ab@woff2@@AEAAX_NHH@Z 0000000180006dc0 f   transform.obj
 0001:00006500       ??1GlyfEncoder@?A0x723790ab@woff2@@QEAA@XZ 0000000180007500 f   transform.obj
 0001:00006ac0       ?Compress@?A0x5b9939dd@woff2@@YA_NPEBE_KPEAEPEAIW4Mode@BrotliParams@brotli@@@Z 0000000180007ac0 f   woff2_enc.obj
 0001:00006ca0       ?StoreTableEntry@?A0x5b9939dd@woff2@@YAXAEBUTable@2@PEA_KPEAE@Z 0000000180007ca0 f   woff2_enc.obj
 0001:00006e50       ?ComputeWoff2Length@?A0x5b9939dd@woff2@@YA_KAEBUFontCollection@2@AEBV?$vector@UTable@woff2@@V?$allocator@UTable@woff2@@@std@@@std@@V?$map@IGU?$less@I@std@@V?$allocator@U?$pair@$$CBIG@std@@@2@@5@_K@Z 0000000180007e50 f   woff2_enc.obj
 0001:000070f0       ?ComputeUncompressedLength@?A0x5b9939dd@woff2@@YA_KAEBUFont@2@@Z 00000001800080f0 f   woff2_enc.obj
 0001:00008b30       ?GetLengthCode@brotli@@YAXHHHPEAGPEA_K@Z 0000000180009b30 f   backward_references.obj
 0001:0000923c       $LN15                      000000018000a23c     backward_references.obj
 0001:00011650       ?HuffmanBitCost@brotli@@YAHPEBEH@Z 0000000180012650 f   block_splitter.obj
 0001:00011970       ?BitCost@brotli@@YAMHH@Z   0000000180012970 f   block_splitter.obj
 0001:0001a170       ?HuffmanBitCost@brotli@@YAHPEBEH@Z 000000018001b170 f   brotli_bit_stream.obj
 0001:0001e5d4       $LN213                     000000018001f5d4     encode.obj
 0001:0001eaf0       $LN156                     000000018001faf0     encode.obj
 0001:00020be0       ?SortHuffmanTree@?A0xbf9879d9@brotli@@YA_NAEBUHuffmanTree@12@0@Z 0000000180021be0 f   entropy_encode.obj
 0001:00020bf0       ?SetDepth@?A0xbf9879d9@brotli@@YAXAEBUHuffmanTree@12@PEAU312@PEAEH@Z 0000000180021bf0 f   entropy_encode.obj
 0001:00021d10       ?_Xlength@?$vector@UHuffmanTree@?A0xbf9879d9@brotli@@V?$allocator@UHuffmanTree@?A0xbf9879d9@brotli@@@std@@@std@@CAXXZ 0000000180022d10 f   entropy_encode.obj
 0001:00021d30       ??$_Emplace_reallocate@AEBUHuffmanTree@?A0xbf9879d9@brotli@@@?$vector@UHuffmanTree@?A0xbf9879d9@brotli@@V?$allocator@UHuffmanTree@?A0xbf9879d9@brotli@@@std@@@std@@QEAAPEAUHuffmanTree@?A0xbf9879d9@brotli@@QEAU234@AEBU234@@Z 0000000180022d30 f   entropy_encode.obj
 0001:00021d30       ??$_Emplace_reallocate@UHuffmanTree@?A0xbf9879d9@brotli@@@?$vector@UHuffmanTree@?A0xbf9879d9@brotli@@V?$allocator@UHuffmanTree@?A0xbf9879d9@brotli@@@std@@@std@@QEAAPEAUHuffmanTree@?A0xbf9879d9@brotli@@QEAU234@$$QEAU234@@Z 0000000180022d30 f   entropy_encode.obj
 0001:00021f10       ??$_Insertion_sort_unchecked@PEAUHuffmanTree@?A0xbf9879d9@brotli@@P6A_NAEBU123@0@Z@std@@YAPEAUHuffmanTree@?A0xbf9879d9@brotli@@QEAU123@0P6A_NAEBU123@1@Z@Z 0000000180022f10 f   entropy_encode.obj
 0001:00022020       ??$_Stable_sort_unchecked@PEAUHuffmanTree@?A0xbf9879d9@brotli@@P6A_NAEBU123@0@Z@std@@YAXQEAUHuffmanTree@?A0xbf9879d9@brotli@@0_J01P6A_NAEBU123@2@Z@Z 0000000180023020 f   entropy_encode.obj
 0001:00022130       ??$_Buffered_merge_sort_unchecked@PEAUHuffmanTree@?A0xbf9879d9@brotli@@P6A_NAEBU123@0@Z@std@@YAXQEAUHuffmanTree@?A0xbf9879d9@brotli@@0_J0P6A_NAEBU123@2@Z@Z 0000000180023130 f   entropy_encode.obj
 0001:00022340       ??$_Buffered_inplace_merge_unchecked@PEAUHuffmanTree@?A0xbf9879d9@brotli@@P6A_NAEBU123@0@Z@std@@YAXPEAUHuffmanTree@?A0xbf9879d9@brotli@@00_J1QEAU123@_JP6A_NAEBU123@4@Z@Z 0000000180023340 f   entropy_encode.obj
 0001:00022470       ??$_Chunked_merge_unchecked@PEAUHuffmanTree@?A0xbf9879d9@brotli@@PEAU123@P6A_NAEBU123@0@Z@std@@YAXPEAUHuffmanTree@?A0xbf9879d9@brotli@@QEAU123@0_J_JP6A_NAEBU123@4@Z@Z 0000000180023470 f   entropy_encode.obj
 0001:00022580       ??$_Buffered_inplace_merge_unchecked_impl@PEAUHuffmanTree@?A0xbf9879d9@brotli@@P6A_NAEBU123@0@Z@std@@YAXPEAUHuffmanTree@?A0xbf9879d9@brotli@@00_J1QEAU123@_JP6A_NAEBU123@4@Z@Z 0000000180023580 f   entropy_encode.obj
 0001:00022910       ??$_Buffered_inplace_merge_divide_and_conquer2@PEAUHuffmanTree@?A0xbf9879d9@brotli@@P6A_NAEBU123@0@Z@std@@YAXPEAUHuffmanTree@?A0xbf9879d9@brotli@@00_J1QEAU123@_JP6A_NAEBU123@4@Z0011@Z 0000000180023910 f   entropy_encode.obj
 0001:00023620       ?BitsEntropy@brotli@@YANPEBHH@Z 0000000180024620 f   metablock.obj
 0001:00025530       ?load_exe_hook@@YAP6A_JXZIPEAUDelayLoadInfo@@@Z 0000000180026530 f   win_delay_load_hook.obj
 0001:00025a80       $$000000                   0000000180026a80     LIBCMT:amdsecgs.obj
 0001:00025cb8       capture_current_context    0000000180026cb8 f   LIBCMT:gs_report.obj
 0001:00025d28       capture_previous_context   0000000180026d28 f   LIBCMT:gs_report.obj
 0001:00025d9c       ?__scrt_initialize_thread_safe_statics@@YAHXZ 0000000180026d9c f   LIBCMT:thread_safe_statics.obj
 0001:00025e6c       ?__scrt_uninitialize_thread_safe_statics@@YAXXZ 0000000180026e6c f   LIBCMT:thread_safe_statics.obj
 0001:00026020       ?dllmain_crt_dispatch@@YAHQEAUHINSTANCE__@@KQEAX@Z 0000000180027020 f   LIBCMT:dll_dllmain.obj
 0001:00026070       ?dllmain_crt_process_attach@@YAHQEAUHINSTANCE__@@QEAX@Z 0000000180027070 f   LIBCMT:dll_dllmain.obj
 0001:00026188       ?dllmain_crt_process_detach@@YAH_N@Z 0000000180027188 f   LIBCMT:dll_dllmain.obj
 0001:0002620c       ?dllmain_dispatch@@YAHQEAUHINSTANCE__@@KQEAX@Z 000000018002720c f   LIBCMT:dll_dllmain.obj
 0001:00027940       $$000000                   0000000180028940     libvcruntime:memset.obj
 0001:00027dfc       ??$BuildCatchObjectHelperInternal@V__FrameHandler4@@@@YAHPEAUEHExceptionRecord@@PEAXPEAUHandlerType4@FH4@@PEBU_s_CatchableType@@@Z 0000000180028dfc f   libvcruntime:frame.obj
 0001:00028000       ??$BuildCatchObjectInternal@V__FrameHandler4@@@@YAXPEAUEHExceptionRecord@@PEAXPEAUHandlerType4@FH4@@PEBU_s_CatchableType@@@Z 0000000180029000 f   libvcruntime:frame.obj
 0001:000280c4       ??$CatchIt@V__FrameHandler4@@@@YAXPEAUEHExceptionRecord@@PEA_KPEAU_CONTEXT@@PEAU_xDISPATCHER_CONTEXT@@PEAUFuncInfo4@FH4@@PEAUHandlerType4@4@PEBU_s_CatchableType@@PEAUTryBlockMapEntry4@4@H1EE@Z 00000001800290c4 f   libvcruntime:frame.obj
 0001:00028198       ??$FindHandler@V__FrameHandler4@@@@YAXPEAUEHExceptionRecord@@PEA_KPEAU_CONTEXT@@PEAU_xDISPATCHER_CONTEXT@@PEAUFuncInfo4@FH4@@EH1@Z 0000000180029198 f   libvcruntime:frame.obj
 0001:000286a8       ??$FindHandlerForForeignException@V__FrameHandler4@@@@YAXPEAUEHExceptionRecord@@PEA_KPEAU_CONTEXT@@PEAU_xDISPATCHER_CONTEXT@@PEAUFuncInfo4@FH4@@HH1@Z 00000001800296a8 f   libvcruntime:frame.obj
 0001:00029438       ?ExFilterRethrow@@YAHPEAU_EXCEPTION_POINTERS@@PEAUEHExceptionRecord@@PEAH@Z 000000018002a438 f   libvcruntime:frame.obj
 0001:000294c0       ?ExFilterRethrowFH4@@YAHPEAU_EXCEPTION_POINTERS@@PEAUEHExceptionRecord@@HPEAH@Z 000000018002a4c0 f   libvcruntime:frame.obj
 0001:000297d8       ?IsInExceptionSpec@@YAEPEAUEHExceptionRecord@@PEBU_s_ESTypeList@@@Z 000000018002a7d8 f   libvcruntime:frame.obj
 0001:000298c8       ?Is_bad_exception_allowed@@YAEPEBU_s_ESTypeList@@@Z 000000018002a8c8 f   libvcruntime:frame.obj
 0001:00029bb0       $$000000                   000000018002abb0     libvcruntime:notify.obj
 0001:00029c98       ?try_get_function@@YAPEAXW4function_id@?A0x84e3c32f@@QEBDQEBW4module_id@2@2@Z 000000018002ac98 f   libvcruntime:winapi_downlevel.obj
 0001:00029f80       $$000000                   000000018002af80     libvcruntime:handlers.obj
 0001:0002a090       $$000000                   000000018002b090     libvcruntime:memcpy.obj
 0001:0002a4a8       ??$common_assert_to_message_box@_W@@YAXQEB_W0IQEAX@Z 000000018002b4a8 f   libucrt:assert.obj
 0001:0002a56c       ??$common_assert_to_message_box_build_string@_W@@YAXQEA_W_KQEB_W2IQEAX@Z 000000018002b56c f   libucrt:assert.obj
 0001:0002aa70       ??$common_assert_to_stderr@_W@@YAXQEB_W0I@Z 000000018002ba70 f   libucrt:assert.obj
 0001:0002abe0       ?get_assert_format@@YAPEB_W_W@Z 000000018002bbe0 f   libucrt:assert.obj
 0001:0002b148       ??$?RV<lambda_676bd5779251ec186b530f0a904b4b35>@@AEAV<lambda_b579ea784fd840951dfbcbdaebf709fd>@@V<lambda_10027885da78ada7fb00668d7e2e96b5>@@@?$__crt_seh_guarded_call@H@@QEAAH$$QEAV<lambda_676bd5779251ec186b530f0a904b4b35>@@AEAV<lambda_b579ea784fd840951dfbcbdaebf709fd>@@$$QEAV<lambda_10027885da78ada7fb00668d7e2e96b5>@@@Z 000000018002c148 f   libucrt:output.obj
 0001:0002b188       ??$?RV<lambda_fe5404e9642edbb7c8ae71e1dcfa4018>@@AEAV<lambda_36eeb330e99a4f0bf8a7da86d0894cb9>@@V<lambda_2fa474834de80dc12f7a3c6eddd7a366>@@@?$__crt_seh_guarded_call@H@@QEAAH$$QEAV<lambda_fe5404e9642edbb7c8ae71e1dcfa4018>@@AEAV<lambda_36eeb330e99a4f0bf8a7da86d0894cb9>@@$$QEAV<lambda_2fa474834de80dc12f7a3c6eddd7a366>@@@Z 000000018002c188 f   libucrt:output.obj
 0001:0002b1c8       ??$common_vsprintf@Vstandard_base@__crt_stdio_output@@_W@@YAH_KQEA_W0QEB_WQEAU__crt_locale_pointers@@QEAD@Z 000000018002c1c8 f   libucrt:output.obj
 0001:0002b9c8       ??R<lambda_36eeb330e99a4f0bf8a7da86d0894cb9>@@QEBAHXZ 000000018002c9c8 f   libucrt:output.obj
 0001:0002baf8       ??R<lambda_b579ea784fd840951dfbcbdaebf709fd>@@QEBAHXZ 000000018002caf8 f   libucrt:output.obj
 0001:0002edb0       ??$?RV<lambda_d80eeec6fff315bfe5c115232f3240e3>@@AEAV<lambda_6e4b09c48022b2350581041d5f6b0c4c>@@V<lambda_2358e3775559c9db80273638284d5e45>@@@?$__crt_seh_guarded_call@X@@QEAAX$$QEAV<lambda_d80eeec6fff315bfe5c115232f3240e3>@@AEAV<lambda_6e4b09c48022b2350581041d5f6b0c4c>@@$$QEAV<lambda_2358e3775559c9db80273638284d5e45>@@@Z 000000018002fdb0 f   libucrt:exit.obj
 0001:0002ede8       ??R<lambda_6e4b09c48022b2350581041d5f6b0c4c>@@QEBA@XZ 000000018002fde8 f   libucrt:exit.obj
 0001:0002eeac       ?atexit_exception_filter@@YAHK@Z 000000018002feac f   libucrt:exit.obj
 0001:0002eeb8       ?common_exit@@YAXHW4_crt_exit_cleanup_mode@@W4_crt_exit_return_mode@@@Z 000000018002feb8 f   libucrt:exit.obj
 0001:0002ef74       ?exit_or_terminate_process@@YAXI@Z 000000018002ff74 f   libucrt:exit.obj
 0001:0002efc0       ?try_cor_exit_process@@YAXI@Z 000000018002ffc0 f   libucrt:exit.obj
 0001:0002f048       ??$parse_command_line@D@@YAXPEADPEAPEAD0PEA_K2@Z 0000000180030048 f   libucrt:argv_parsing.obj
 0001:0002f3f4       ??$common_initialize_environment_nolock@D@@YAHXZ 00000001800303f4 f   libucrt:environment_initialization.obj
 0001:0002f460       ??$create_environment@D@@YAQEAPEADQEAD@Z 0000000180030460 f   libucrt:environment_initialization.obj
 0001:0002f568       ??$free_environment@D@@YAXQEAPEAD@Z 0000000180030568 f   libucrt:environment_initialization.obj
 0001:0002f568       ??$free_environment@_W@@YAXQEAPEA_W@Z 0000000180030568 f   libucrt:environment_initialization.obj
 0001:0002f5ac       ??$uninitialize_environment_internal@D@@YAXAEAPEAPEAD@Z 00000001800305ac f   libucrt:environment_initialization.obj
 0001:0002f5c8       ??$uninitialize_environment_internal@_W@@YAXAEAPEAPEA_W@Z 00000001800305c8 f   libucrt:environment_initialization.obj
 0001:0002f624       ??$?RV<lambda_638799b9deba96c50f710eeac98168cd>@@AEAV<lambda_22ebabd17bc4fa466a2aca6d8deb888d>@@V<lambda_a6f7d7db0129f75315ebf26d50c089f1>@@@?$__crt_seh_guarded_call@H@@QEAAH$$QEAV<lambda_638799b9deba96c50f710eeac98168cd>@@AEAV<lambda_22ebabd17bc4fa466a2aca6d8deb888d>@@$$QEAV<lambda_a6f7d7db0129f75315ebf26d50c089f1>@@@Z 0000000180030624 f   libucrt:onexit.obj
 0001:0002f660       ??$?RV<lambda_7777bce6b2f8c936911f934f8298dc43>@@AEAV<lambda_f03950bc5685219e0bcd2087efbe011e>@@V<lambda_3883c3dff614d5e0c5f61bb1ac94921c>@@@?$__crt_seh_guarded_call@H@@QEAAH$$QEAV<lambda_7777bce6b2f8c936911f934f8298dc43>@@AEAV<lambda_f03950bc5685219e0bcd2087efbe011e>@@$$QEAV<lambda_3883c3dff614d5e0c5f61bb1ac94921c>@@@Z 0000000180030660 f   libucrt:onexit.obj
 0001:0002f69c       ??R<lambda_22ebabd17bc4fa466a2aca6d8deb888d>@@QEBAHXZ 000000018003069c f   libucrt:onexit.obj
 0001:0002f84c       ??R<lambda_f03950bc5685219e0bcd2087efbe011e>@@QEBAHXZ 000000018003084c f   libucrt:onexit.obj
 0001:0002fa20       initialize_global_variables 0000000180030a20 f   libucrt:initialization.obj
 0001:0002fa34       initialize_c               0000000180030a34 f   libucrt:initialization.obj
 0001:0002fa58       initialize_environment     0000000180030a58 f   libucrt:initialization.obj
 0001:0002fa58       initialize_global_state_isolation 0000000180030a58 f   libucrt:initialization.obj
 0001:0002fa58       report_memory_leaks        0000000180030a58 f   libucrt:initialization.obj
 0001:0002fa58       uninitialize_c             0000000180030a58 f   libucrt:initialization.obj
 0001:0002fa58       uninitialize_global_state_isolation 0000000180030a58 f   libucrt:initialization.obj
 0001:0002fa5c       uninitialize_environment   0000000180030a5c f   libucrt:initialization.obj
 0001:0002fa6c       initialize_pointers        0000000180030a6c f   libucrt:initialization.obj
 0001:0002faac       uninitialize_vcruntime     0000000180030aac f   libucrt:initialization.obj
 0001:0002fab4       uninitialize_allocated_memory 0000000180030ab4 f   libucrt:initialization.obj
 0001:0002faf4       uninitialize_allocated_io_buffers 0000000180030af4 f   libucrt:initialization.obj
 0001:000306d0       $$000000                   00000001800316d0     libucrt:strncmp.obj
 0001:00030960       ??$common_xtox@K_W@@YAHKQEA_W_KI_N@Z 0000000180031960 f   libucrt:xtoa.obj
 0001:00030a34       ??$common_xtox_s@K_W@@YAHKQEA_W_KI_N@Z 0000000180031a34 f   libucrt:xtoa.obj
 0001:00030fc0       ??$?RV<lambda_842d9ff0dc9ef11c61343bbaebe7f885>@@AEAV<lambda_c5860995281e5c4ce005b3de8f5874ee>@@V<lambda_d90129c13df834fdcbf8d2b88dafcf2d>@@@?$__crt_seh_guarded_call@X@@QEAAX$$QEAV<lambda_842d9ff0dc9ef11c61343bbaebe7f885>@@AEAV<lambda_c5860995281e5c4ce005b3de8f5874ee>@@$$QEAV<lambda_d90129c13df834fdcbf8d2b88dafcf2d>@@@Z 0000000180031fc0 f   libucrt:fflush.obj
 0001:0003105c       ??$?RV<lambda_886d6c58226a84441f68b9f2b8217b83>@@AEAV<lambda_ab61a845afdef5b7c387490eaf3616ee>@@V<lambda_f7f22ab5edc0698d5f6905b0d3f44752>@@@?$__crt_seh_guarded_call@X@@QEAAX$$QEAV<lambda_886d6c58226a84441f68b9f2b8217b83>@@AEAV<lambda_ab61a845afdef5b7c387490eaf3616ee>@@$$QEAV<lambda_f7f22ab5edc0698d5f6905b0d3f44752>@@@Z 000000018003205c f   libucrt:fflush.obj
 0001:0003113c       ??$?RV<lambda_c376a267cfb53b6959b3b692ec76b120>@@AEAV<lambda_9a32fed5bf61b6b509b2d3f6003082a1>@@V<lambda_572fbb9fa0ab338edf41edfd4b5fcc8d>@@@?$__crt_seh_guarded_call@H@@QEAAH$$QEAV<lambda_c376a267cfb53b6959b3b692ec76b120>@@AEAV<lambda_9a32fed5bf61b6b509b2d3f6003082a1>@@$$QEAV<lambda_572fbb9fa0ab338edf41edfd4b5fcc8d>@@@Z 000000018003213c f   libucrt:fflush.obj
 0001:0003117c       ?common_flush_all@@YAH_N@Z 000000018003217c f   libucrt:fflush.obj
 0001:00031314       ??$?RV<lambda_84ec643ea9557e2f7dc01bb0e9624395>@@AEAV<lambda_ca71763b3c0644891230e4f79ea54fa6>@@V<lambda_439a761618c59b0600e24586724d733b>@@@?$__crt_seh_guarded_call@H@@QEAAH$$QEAV<lambda_84ec643ea9557e2f7dc01bb0e9624395>@@AEAV<lambda_ca71763b3c0644891230e4f79ea54fa6>@@$$QEAV<lambda_439a761618c59b0600e24586724d733b>@@@Z 0000000180032314 f   libucrt:setvbuf.obj
 0001:00031354       ??R<lambda_ca71763b3c0644891230e4f79ea54fa6>@@QEBAHXZ 0000000180032354 f   libucrt:setvbuf.obj
 0001:000314d0       ??$?RV<lambda_450d765d439847d4c735a33c368b5fc0>@@AEAV<lambda_44731a7d0e6d81c3e6aa82d741081786>@@V<lambda_601a2a7da3b7a96e9554ac7215c4b07c>@@@?$__crt_seh_guarded_call@P6AXH@Z@@QEAAP6AXH@Z$$QEAV<lambda_450d765d439847d4c735a33c368b5fc0>@@AEAV<lambda_44731a7d0e6d81c3e6aa82d741081786>@@$$QEAV<lambda_601a2a7da3b7a96e9554ac7215c4b07c>@@@Z 00000001800324d0 f   libucrt:signal.obj
 0001:000317d4       ??$?RV<lambda_0ae27a3a962d80f24befdcbee591983d>@@AEAV<lambda_8d0ee55de4b1038c4002e0adecdf1839>@@V<lambda_dc504788e8f1664fe9b84e20bfb512f2>@@@?$__crt_seh_guarded_call@X@@QEAAX$$QEAV<lambda_0ae27a3a962d80f24befdcbee591983d>@@AEAV<lambda_8d0ee55de4b1038c4002e0adecdf1839>@@$$QEAV<lambda_dc504788e8f1664fe9b84e20bfb512f2>@@@Z 00000001800327d4 f   libucrt:per_thread_data.obj
 0001:00031814       ??$?RV<lambda_2d41944a1d46af3157314b8a01080d33>@@AEAV<lambda_8f455de75cd7d7f24b4096f044d8b9e6>@@V<lambda_aa500f224e6afead328df44964fe2772>@@@?$__crt_seh_guarded_call@X@@QEAAX$$QEAV<lambda_2d41944a1d46af3157314b8a01080d33>@@AEAV<lambda_8f455de75cd7d7f24b4096f044d8b9e6>@@$$QEAV<lambda_aa500f224e6afead328df44964fe2772>@@@Z 0000000180032814 f   libucrt:per_thread_data.obj
 0001:00031854       ??$?RV<lambda_aa87e3671a710a21b5dc78c0bdf72e11>@@AEAV<lambda_92619d2358a28f41a33ba319515a20b9>@@V<lambda_6992ecaafeb10aed2b74cb1fae11a551>@@@?$__crt_seh_guarded_call@X@@QEAAX$$QEAV<lambda_aa87e3671a710a21b5dc78c0bdf72e11>@@AEAV<lambda_92619d2358a28f41a33ba319515a20b9>@@$$QEAV<lambda_6992ecaafeb10aed2b74cb1fae11a551>@@@Z 0000000180032854 f   libucrt:per_thread_data.obj
 0001:0003189c       ??$?RV<lambda_f2e299630e499de9f9a165e60fcd3db5>@@AEAV<lambda_2ae9d31cdba2644fcbeaf08da7c24588>@@V<lambda_40d01ff24d0e7b3814fdbdcee8eab3c7>@@@?$__crt_seh_guarded_call@X@@QEAAX$$QEAV<lambda_f2e299630e499de9f9a165e60fcd3db5>@@AEAV<lambda_2ae9d31cdba2644fcbeaf08da7c24588>@@$$QEAV<lambda_40d01ff24d0e7b3814fdbdcee8eab3c7>@@@Z 000000018003289c f   libucrt:per_thread_data.obj
 0001:000318fc       ?construct_ptd_array@@YAXQEAU__acrt_ptd@@@Z 00000001800328fc f   libucrt:per_thread_data.obj
 0001:000319cc       ?destroy_fls@@YAXPEAX@Z    00000001800329cc f   libucrt:per_thread_data.obj
 0001:000319ec       ?destroy_ptd_array@@YAXQEAU__acrt_ptd@@@Z 00000001800329ec f   libucrt:per_thread_data.obj
 0001:00031ae4       ?replace_current_thread_locale_nolock@@YAXQEAU__acrt_ptd@@QEAU__crt_locale_data@@@Z 0000000180032ae4 f   libucrt:per_thread_data.obj
 0001:00031e78       ?try_get_function@@YAPEAXW4function_id@?A0x391cf84c@@QEBDQEBW4module_id@2@2@Z 0000000180032e78 f   libucrt:winapi_thunks.obj
 0001:000327c8       ?initialize_inherited_file_handles_nolock@@YAXXZ 00000001800337c8 f   libucrt:ioinit.obj
 0001:000328b8       ?initialize_stdio_handles_nolock@@YAXXZ 00000001800338b8 f   libucrt:ioinit.obj
 0001:000331c0       ?fp_format_a@@YAHQEBNPEAD_KQEAD2H_NIQEAU__crt_locale_pointers@@@Z 00000001800341c0 f   libucrt:cvt.obj
 0001:00033530       ?fp_format_e@@YAHQEBNQEAD_K12H_NIQEAU__crt_locale_pointers@@@Z 0000000180034530 f   libucrt:cvt.obj
 0001:0003360c       ?fp_format_e_internal@@YAHQEAD_KH_NIQEAU_strflt@@2QEAU__crt_locale_pointers@@@Z 000000018003460c f   libucrt:cvt.obj
 0001:000337e0       ?fp_format_f_internal@@YAHQEAD_KHQEAU_strflt@@_NQEAU__crt_locale_pointers@@@Z 00000001800347e0 f   libucrt:cvt.obj
 0001:00033924       ?fp_format_g@@YAHQEBNQEAD_K12H_NIQEAU__crt_locale_pointers@@@Z 0000000180034924 f   libucrt:cvt.obj
 0001:0003403c       ??$?RV<lambda_410d79af7f07d98d83a3f525b3859a53>@@AEAV<lambda_3e16ef9562a7dcce91392c22ab16ea36>@@V<lambda_38119f0e861e05405d8a144b9b982f0a>@@@?$__crt_seh_guarded_call@X@@QEAAX$$QEAV<lambda_410d79af7f07d98d83a3f525b3859a53>@@AEAV<lambda_3e16ef9562a7dcce91392c22ab16ea36>@@$$QEAV<lambda_38119f0e861e05405d8a144b9b982f0a>@@@Z 000000018003503c f   libucrt:wsetlocale.obj
 0001:000340e8       _call_matherr              00000001800350e8 f   libucrt:libm_error.obj
 0001:00034150       _exception_enabled         0000000180035150 f   libucrt:libm_error.obj
 0001:00034360       ?write_double_translated_ansi_nolock@@YA?AUwrite_result@?A0x17268360@@HQEBDI@Z 0000000180035360 f   libucrt:write.obj
 0001:00034830       ?write_text_ansi_nolock@@YA?AUwrite_result@?A0x17268360@@HQEBDI@Z 0000000180035830 f   libucrt:write.obj
 0001:00034934       ?write_text_utf16le_nolock@@YA?AUwrite_result@?A0x17268360@@HQEBDI@Z 0000000180035934 f   libucrt:write.obj
 0001:00034a50       ?write_text_utf8_nolock@@YA?AUwrite_result@?A0x17268360@@HQEBDI@Z 0000000180035a50 f   libucrt:write.obj
 0001:00034f88       ??$write_buffer_nolock@D@@YA_NDV__crt_stdio_stream@@@Z 0000000180035f88 f   libucrt:_flsbuf.obj
 0001:0003506c       ??$write_buffer_nolock@_W@@YA_N_WV__crt_stdio_stream@@@Z 000000018003606c f   libucrt:_flsbuf.obj
 0001:00035154       ?stream_is_at_end_of_file_nolock@@YA_NV__crt_stdio_stream@@@Z 0000000180036154 f   libucrt:_flsbuf.obj
 0001:0003555c       ?<lambda_invoker_cdecl>@<lambda_a1ce4c8ae42411fd470c77163914f50e>@@CAHPEBX0@Z 000000018003655c f   libucrt:argv_wildcards.obj
 0001:00035874       ??$common_expand_argv_wildcards@D@@YAHQEAPEADQEAPEAPEAD@Z 0000000180036874 f   libucrt:argv_wildcards.obj
 0001:00035a80       ??$copy_and_add_argument_to_buffer@D@@YAHQEBD0_KAEAV?$argument_list@D@?A0x5f5c8891@@@Z 0000000180036a80 f   libucrt:argv_wildcards.obj
 0001:00035c08       ??$expand_argument_wildcards@D@@YAHQEAD0AEAV?$argument_list@D@?A0x5f5c8891@@@Z 0000000180036c08 f   libucrt:argv_wildcards.obj
 0001:00035f20       ??$?RV<lambda_efdfa57d1f175319df784efa44bb7b81>@@AEAV<lambda_5f0a4c1567f8adc6734073e5d1e1b35c>@@V<lambda_2e8a7d3640ea6ccb4c2413664c2db6fd>@@@?$__crt_seh_guarded_call@X@@QEAAX$$QEAV<lambda_efdfa57d1f175319df784efa44bb7b81>@@AEAV<lambda_5f0a4c1567f8adc6734073e5d1e1b35c>@@$$QEAV<lambda_2e8a7d3640ea6ccb4c2413664c2db6fd>@@@Z 0000000180036f20 f   libucrt:mbctype.obj
 0001:000360dc       ?getSystemCP@@YAHH@Z       00000001800370dc f   libucrt:mbctype.obj
 0001:0003615c       ?setSBCS@@YAXPEAU__crt_multibyte_data@@@Z 000000018003715c f   libucrt:mbctype.obj
 0001:000361ec       ?setSBUpLow@@YAXPEAU__crt_multibyte_data@@@Z 00000001800371ec f   libucrt:mbctype.obj
 0001:000363d0       ?setmbcp_internal@@YAHH_NQEAU__acrt_ptd@@QEAPEAU__crt_multibyte_data@@@Z 00000001800373d0 f   libucrt:mbctype.obj
 0001:00036594       ?update_thread_multibyte_data_internal@@YAPEAU__crt_multibyte_data@@QEAU__acrt_ptd@@QEAPEAU1@@Z 0000000180037594 f   libucrt:mbctype.obj
 0001:00036984       ?x_ismbbtype_l@@YAHPEAU__crt_locale_pointers@@IHH@Z 0000000180037984 f   libucrt:ismbbyte.obj
 0001:00036fb4       ??$?RV<lambda_a37b2b86f63e897a80ea819b0eb08c01>@@AEAV<lambda_38ce7e780aa69e748d6df282ebc68efe>@@V<lambda_99fb1378e971ab6e7edea83e3a7a83a2>@@@?$__crt_seh_guarded_call@H@@QEAAH$$QEAV<lambda_a37b2b86f63e897a80ea819b0eb08c01>@@AEAV<lambda_38ce7e780aa69e748d6df282ebc68efe>@@$$QEAV<lambda_99fb1378e971ab6e7edea83e3a7a83a2>@@@Z 0000000180037fb4 f   libucrt:commit.obj
 0001:00039390       memcpy_s                   000000018003a390 f   libucrt:cfout.obj
 0001:000395f0       ?free_crt_array_internal@@YAXQEAPEBX_K@Z 000000018003a5f0 f   libucrt:inittime.obj
 0001:00039d18       ??$common_lseek@_J@@YA_JH_JH@Z 000000018003ad18 f   libucrt:lseek.obj
 0001:00039e08       ??$common_lseek_nolock@_J@@YA_JH_JH@Z 000000018003ae08 f   libucrt:lseek.obj
 0001:0003a3e4       fallbackMethod             000000018003b3e4 f   libucrt:strpbrk.obj
 0001:0003a7b4       $LN78                      000000018003b7b4     libucrt:strpbrk.obj
 0001:0003a7f0       $LN77                      000000018003b7f0     libucrt:strpbrk.obj
 0001:0003a830       $LN76                      000000018003b830     libucrt:strpbrk.obj
 0001:0003a90c       ?__acrt_LCMapStringA_stat@@YAHPEAU__crt_locale_pointers@@PEB_WKPEBDHPEADHHH@Z 000000018003b90c f   libucrt:lcmapstringa.obj
 0001:0003acbc       ?initialize_multibyte@@YAHXZ 000000018003bcbc f   libucrt:multibyte_initializer.obj
 0001:0003ad64       ??$?RV<lambda_751a882b2c74d4b022dec766aa51a29a>@@AEAV<lambda_628dfdc04ba53c8bfc02c9951375f3f5>@@V<lambda_f6c7be5f7998530c34de24c7437d6b54>@@@?$__crt_seh_guarded_call@H@@QEAAH$$QEAV<lambda_751a882b2c74d4b022dec766aa51a29a>@@AEAV<lambda_628dfdc04ba53c8bfc02c9951375f3f5>@@$$QEAV<lambda_f6c7be5f7998530c34de24c7437d6b54>@@@Z 000000018003bd64 f   libucrt:close.obj
 0001:0003b2c0       $$000000                   000000018003c2c0     libucrt:log10.obj
 0001:0003b870       $$000000                   000000018003c870     libucrt:fpsr.obj
 0001:0003be30       _log_special_common        000000018003ce30 f   libucrt:log_special.obj
 0001:0003c720       $$000000                   000000018003d720     LIBCMT:chkstk.obj
 0001:0003c8c0       $$000000                   000000018003d8c0     libvcruntime:memcmp.obj
 0001:0003ca20       $$000000                   000000018003da20     LIBCMT:guard_dispatch.obj
 0001:0003ca40       $$000000                   000000018003da40     LIBCMT:guard_xfg_dispatch.obj
 0001:0003ca60       ?catch$0@?0???2@YAPEAX_KAEBUnothrow_t@std@@@Z@4HA 000000018003da60 f   LIBCMT:new_scalar_nothrow.obj
 0001:0003ca6d       __catch$??2@YAPEAX_KAEBUnothrow_t@std@@@Z$0 000000018003da6d f   LIBCMT:new_scalar_nothrow.obj
 0001:0003ca7e       ?fin$0@?0??dllmain_crt_process_attach@@YAHQEAUHINSTANCE__@@QEAX@Z@4HA 000000018003da7e f   LIBCMT:dll_dllmain.obj
 0001:0003ca95       ?fin$0@?0??dllmain_crt_process_detach@@YAH_N@Z@4HA 000000018003da95 f   LIBCMT:dll_dllmain.obj
 0001:0003caae       ?fin$1@?0??dllmain_crt_process_detach@@YAH_N@Z@4HA 000000018003daae f   LIBCMT:dll_dllmain.obj
 0001:0003cac2       ?filt$0@?0??dllmain_dispatch@@YAHQEAUHINSTANCE__@@KQEAX@Z@4HA 000000018003dac2 f   LIBCMT:dll_dllmain.obj
 0001:0003caf8       __scrt_is_nonwritable_in_current_image$filt$0 000000018003daf8 f   LIBCMT:utility.obj
 0001:0003cb10       ?filt$0@?0???$_CallSETranslator@V__FrameHandler4@@@@YAHPEAUEHExceptionRecord@@PEA_KPEAU_CONTEXT@@PEAU_xDISPATCHER_CONTEXT@@PEAUFuncInfo4@FH4@@K1H@Z@4HA 000000018003db10 f   libvcruntime:risctrnsctrl.obj
 0001:0003cbaf       __DestructExceptionObject$filt$0 000000018003dbaf f   libvcruntime:ehhelpers.obj
 0001:0003cc45       ?filt$0@?0??CxxCallCatchBlock@__FrameHandler4@@SAPEAXPEAU_EXCEPTION_RECORD@@@Z@4HA 000000018003dc45 f   libvcruntime:frame.obj
 0001:0003cc74       ?fin$1@?0??CxxCallCatchBlock@__FrameHandler4@@SAPEAXPEAU_EXCEPTION_RECORD@@@Z@4HA 000000018003dc74 f   libvcruntime:frame.obj
 0001:0003ccf7       ?filt$0@?0??FrameUnwindToState@__FrameHandler4@@SAXPEA_KPEAU_xDISPATCHER_CONTEXT@@PEAUFuncInfo4@FH4@@H@Z@4HA 000000018003dcf7 f   libvcruntime:frame.obj
 0001:0003cd0d       ?fin$1@?0??FrameUnwindToState@__FrameHandler4@@SAXPEA_KPEAU_xDISPATCHER_CONTEXT@@PEAUFuncInfo4@FH4@@H@Z@4HA 000000018003dd0d f   libvcruntime:frame.obj
 0001:0003cd30       ?fin$0@?0???$?RV<lambda_842d9ff0dc9ef11c61343bbaebe7f885>@@AEAV<lambda_c5860995281e5c4ce005b3de8f5874ee>@@V<lambda_d90129c13df834fdcbf8d2b88dafcf2d>@@@?$__crt_seh_guarded_call@X@@QEAAX$$QEAV<lambda_842d9ff0dc9ef11c61343bbaebe7f885>@@AEAV<lambda_c5860995281e5c4ce005b3de8f5874ee>@@$$QEAV<lambda_d90129c13df834fdcbf8d2b88dafcf2d>@@@Z@4HA 000000018003dd30 f   libucrt:fflush.obj
 0001:0003cd30       ?fin$0@?0???$?RV<lambda_c376a267cfb53b6959b3b692ec76b120>@@AEAV<lambda_9a32fed5bf61b6b509b2d3f6003082a1>@@V<lambda_572fbb9fa0ab338edf41edfd4b5fcc8d>@@@?$__crt_seh_guarded_call@H@@QEAAH$$QEAV<lambda_c376a267cfb53b6959b3b692ec76b120>@@AEAV<lambda_9a32fed5bf61b6b509b2d3f6003082a1>@@$$QEAV<lambda_572fbb9fa0ab338edf41edfd4b5fcc8d>@@@Z@4HA 000000018003dd30 f   libucrt:fflush.obj
 0001:0003cd30       ?fin$0@?0???$?RV<lambda_676bd5779251ec186b530f0a904b4b35>@@AEAV<lambda_b579ea784fd840951dfbcbdaebf709fd>@@V<lambda_10027885da78ada7fb00668d7e2e96b5>@@@?$__crt_seh_guarded_call@H@@QEAAH$$QEAV<lambda_676bd5779251ec186b530f0a904b4b35>@@AEAV<lambda_b579ea784fd840951dfbcbdaebf709fd>@@$$QEAV<lambda_10027885da78ada7fb00668d7e2e96b5>@@@Z@4HA 000000018003dd30 f   libucrt:output.obj
 0001:0003cd30       ?fin$0@?0???$?RV<lambda_fe5404e9642edbb7c8ae71e1dcfa4018>@@AEAV<lambda_36eeb330e99a4f0bf8a7da86d0894cb9>@@V<lambda_2fa474834de80dc12f7a3c6eddd7a366>@@@?$__crt_seh_guarded_call@H@@QEAAH$$QEAV<lambda_fe5404e9642edbb7c8ae71e1dcfa4018>@@AEAV<lambda_36eeb330e99a4f0bf8a7da86d0894cb9>@@$$QEAV<lambda_2fa474834de80dc12f7a3c6eddd7a366>@@@Z@4HA 000000018003dd30 f   libucrt:output.obj
 0001:0003cd30       ?fin$0@?0???$?RV<lambda_84ec643ea9557e2f7dc01bb0e9624395>@@AEAV<lambda_ca71763b3c0644891230e4f79ea54fa6>@@V<lambda_439a761618c59b0600e24586724d733b>@@@?$__crt_seh_guarded_call@H@@QEAAH$$QEAV<lambda_84ec643ea9557e2f7dc01bb0e9624395>@@AEAV<lambda_ca71763b3c0644891230e4f79ea54fa6>@@$$QEAV<lambda_439a761618c59b0600e24586724d733b>@@@Z@4HA 000000018003dd30 f   libucrt:setvbuf.obj
 0001:0003cd4b       _query_new_handler$fin$0   000000018003dd4b f   libucrt:new_handler.obj
 0001:0003cd61       ?fin$0@?0???$?RV<lambda_0ae27a3a962d80f24befdcbee591983d>@@AEAV<lambda_8d0ee55de4b1038c4002e0adecdf1839>@@V<lambda_dc504788e8f1664fe9b84e20bfb512f2>@@@?$__crt_seh_guarded_call@X@@QEAAX$$QEAV<lambda_0ae27a3a962d80f24befdcbee591983d>@@AEAV<lambda_8d0ee55de4b1038c4002e0adecdf1839>@@$$QEAV<lambda_dc504788e8f1664fe9b84e20bfb512f2>@@@Z@4HA 000000018003dd61 f   libucrt:per_thread_data.obj
 0001:0003cd61       ?fin$0@?0???$?RV<lambda_2d41944a1d46af3157314b8a01080d33>@@AEAV<lambda_8f455de75cd7d7f24b4096f044d8b9e6>@@V<lambda_aa500f224e6afead328df44964fe2772>@@@?$__crt_seh_guarded_call@X@@QEAAX$$QEAV<lambda_2d41944a1d46af3157314b8a01080d33>@@AEAV<lambda_8f455de75cd7d7f24b4096f044d8b9e6>@@$$QEAV<lambda_aa500f224e6afead328df44964fe2772>@@@Z@4HA 000000018003dd61 f   libucrt:per_thread_data.obj
 0001:0003cd61       ?fin$0@?0???$?RV<lambda_aa87e3671a710a21b5dc78c0bdf72e11>@@AEAV<lambda_92619d2358a28f41a33ba319515a20b9>@@V<lambda_6992ecaafeb10aed2b74cb1fae11a551>@@@?$__crt_seh_guarded_call@X@@QEAAX$$QEAV<lambda_aa87e3671a710a21b5dc78c0bdf72e11>@@AEAV<lambda_92619d2358a28f41a33ba319515a20b9>@@$$QEAV<lambda_6992ecaafeb10aed2b74cb1fae11a551>@@@Z@4HA 000000018003dd61 f   libucrt:per_thread_data.obj
 0001:0003cd61       ?fin$0@?0???$?RV<lambda_f2e299630e499de9f9a165e60fcd3db5>@@AEAV<lambda_2ae9d31cdba2644fcbeaf08da7c24588>@@V<lambda_40d01ff24d0e7b3814fdbdcee8eab3c7>@@@?$__crt_seh_guarded_call@X@@QEAAX$$QEAV<lambda_f2e299630e499de9f9a165e60fcd3db5>@@AEAV<lambda_2ae9d31cdba2644fcbeaf08da7c24588>@@$$QEAV<lambda_40d01ff24d0e7b3814fdbdcee8eab3c7>@@@Z@4HA 000000018003dd61 f   libucrt:per_thread_data.obj
 0001:0003cd61       ?fin$0@?0???$?RV<lambda_efdfa57d1f175319df784efa44bb7b81>@@AEAV<lambda_5f0a4c1567f8adc6734073e5d1e1b35c>@@V<lambda_2e8a7d3640ea6ccb4c2413664c2db6fd>@@@?$__crt_seh_guarded_call@X@@QEAAX$$QEAV<lambda_efdfa57d1f175319df784efa44bb7b81>@@AEAV<lambda_5f0a4c1567f8adc6734073e5d1e1b35c>@@$$QEAV<lambda_2e8a7d3640ea6ccb4c2413664c2db6fd>@@@Z@4HA 000000018003dd61 f   libucrt:mbctype.obj
 0001:0003cd61       ?fin$0@?0???$?RV<lambda_450d765d439847d4c735a33c368b5fc0>@@AEAV<lambda_44731a7d0e6d81c3e6aa82d741081786>@@V<lambda_601a2a7da3b7a96e9554ac7215c4b07c>@@@?$__crt_seh_guarded_call@P6AXH@Z@@QEAAP6AXH@Z$$QEAV<lambda_450d765d439847d4c735a33c368b5fc0>@@AEAV<lambda_44731a7d0e6d81c3e6aa82d741081786>@@$$QEAV<lambda_601a2a7da3b7a96e9554ac7215c4b07c>@@@Z@4HA 000000018003dd61 f   libucrt:signal.obj
 0001:0003cd61       ?fin$0@?0???$?RV<lambda_d80eeec6fff315bfe5c115232f3240e3>@@AEAV<lambda_6e4b09c48022b2350581041d5f6b0c4c>@@V<lambda_2358e3775559c9db80273638284d5e45>@@@?$__crt_seh_guarded_call@X@@QEAAX$$QEAV<lambda_d80eeec6fff315bfe5c115232f3240e3>@@AEAV<lambda_6e4b09c48022b2350581041d5f6b0c4c>@@$$QEAV<lambda_2358e3775559c9db80273638284d5e45>@@@Z@4HA 000000018003dd61 f   libucrt:exit.obj
 0001:0003cd61       ?fin$0@?0???$?RV<lambda_638799b9deba96c50f710eeac98168cd>@@AEAV<lambda_22ebabd17bc4fa466a2aca6d8deb888d>@@V<lambda_a6f7d7db0129f75315ebf26d50c089f1>@@@?$__crt_seh_guarded_call@H@@QEAAH$$QEAV<lambda_638799b9deba96c50f710eeac98168cd>@@AEAV<lambda_22ebabd17bc4fa466a2aca6d8deb888d>@@$$QEAV<lambda_a6f7d7db0129f75315ebf26d50c089f1>@@@Z@4HA 000000018003dd61 f   libucrt:onexit.obj
 0001:0003cd61       ?fin$0@?0???$?RV<lambda_7777bce6b2f8c936911f934f8298dc43>@@AEAV<lambda_f03950bc5685219e0bcd2087efbe011e>@@V<lambda_3883c3dff614d5e0c5f61bb1ac94921c>@@@?$__crt_seh_guarded_call@H@@QEAAH$$QEAV<lambda_7777bce6b2f8c936911f934f8298dc43>@@AEAV<lambda_f03950bc5685219e0bcd2087efbe011e>@@$$QEAV<lambda_3883c3dff614d5e0c5f61bb1ac94921c>@@@Z@4HA 000000018003dd61 f   libucrt:onexit.obj
 0001:0003cd7b       ?filt$0@?0???R<lambda_6e4b09c48022b2350581041d5f6b0c4c>@@QEBA@XZ@4HA 000000018003dd7b f   libucrt:exit.obj
 0001:0003cd96       ?fin$0@?0???$?RV<lambda_886d6c58226a84441f68b9f2b8217b83>@@AEAV<lambda_ab61a845afdef5b7c387490eaf3616ee>@@V<lambda_f7f22ab5edc0698d5f6905b0d3f44752>@@@?$__crt_seh_guarded_call@X@@QEAAX$$QEAV<lambda_886d6c58226a84441f68b9f2b8217b83>@@AEAV<lambda_ab61a845afdef5b7c387490eaf3616ee>@@$$QEAV<lambda_f7f22ab5edc0698d5f6905b0d3f44752>@@@Z@4HA 000000018003dd96 f   libucrt:fflush.obj
 0001:0003cdb3       raise$fin$0                000000018003ddb3 f   libucrt:signal.obj
 0001:0003cdd4       _fcloseall$fin$0           000000018003ddd4 f   libucrt:closeall.obj
 0001:0003cded       __acrt_initialize_lowio$fin$0 000000018003dded f   libucrt:ioinit.obj
 0001:0003cded       __acrt_lowio_ensure_fh_exists$fin$0 000000018003dded f   libucrt:osfinfo.obj
 0001:0003ce06       ?fin$0@?0???$?RV<lambda_410d79af7f07d98d83a3f525b3859a53>@@AEAV<lambda_3e16ef9562a7dcce91392c22ab16ea36>@@V<lambda_38119f0e861e05405d8a144b9b982f0a>@@@?$__crt_seh_guarded_call@X@@QEAAX$$QEAV<lambda_410d79af7f07d98d83a3f525b3859a53>@@AEAV<lambda_3e16ef9562a7dcce91392c22ab16ea36>@@$$QEAV<lambda_38119f0e861e05405d8a144b9b982f0a>@@@Z@4HA 000000018003de06 f   libucrt:wsetlocale.obj
 0001:0003ce20       ?fin$0@?0???$common_lseek@_J@@YA_JH_JH@Z@4HA 000000018003de20 f   libucrt:lseek.obj
 0001:0003ce20       _write$fin$0               000000018003de20 f   libucrt:write.obj
 0001:0003ce37       ?fin$0@?0??update_thread_multibyte_data_internal@@YAPEAU__crt_multibyte_data@@QEAU__acrt_ptd@@QEAPEAU1@@Z@4HA 000000018003de37 f   libucrt:mbctype.obj
 0001:0003ce50       ?fin$0@?0???$?RV<lambda_751a882b2c74d4b022dec766aa51a29a>@@AEAV<lambda_628dfdc04ba53c8bfc02c9951375f3f5>@@V<lambda_f6c7be5f7998530c34de24c7437d6b54>@@@?$__crt_seh_guarded_call@H@@QEAAH$$QEAV<lambda_751a882b2c74d4b022dec766aa51a29a>@@AEAV<lambda_628dfdc04ba53c8bfc02c9951375f3f5>@@$$QEAV<lambda_f6c7be5f7998530c34de24c7437d6b54>@@@Z@4HA 000000018003de50 f   libucrt:close.obj
 0001:0003ce50       ?fin$0@?0???$?RV<lambda_a37b2b86f63e897a80ea819b0eb08c01>@@AEAV<lambda_38ce7e780aa69e748d6df282ebc68efe>@@V<lambda_99fb1378e971ab6e7edea83e3a7a83a2>@@@?$__crt_seh_guarded_call@H@@QEAAH$$QEAV<lambda_a37b2b86f63e897a80ea819b0eb08c01>@@AEAV<lambda_38ce7e780aa69e748d6df282ebc68efe>@@$$QEAV<lambda_99fb1378e971ab6e7edea83e3a7a83a2>@@@Z@4HA 000000018003de50 f   libucrt:commit.obj
 0001:0003ce6a       __acrt_update_thread_locale_data$fin$0 000000018003de6a f   libucrt:locale_refcounting.obj
 0001:0003ce83       fclose$fin$0               000000018003de83 f   libucrt:fclose.obj
 0001:0003ce9b       _ctrlfp$filt$0             000000018003de9b f   libucrt:fpctrl.obj
 0001:0003ced0       _IsNonwritableInCurrentImage$filt$0 000000018003ded0 f   LIBCMT:pesect.obj
 0002:000002c8       ?__scrt_initialize_tss_var@@3P6AHXZEA 000000018003e2c8     LIBCMT:thread_safe_statics.obj
 0002:000003f8       GS_ExceptionPointers       000000018003e3f8     LIBCMT:gs_report.obj
 0002:00000510       ?ExceptionTemplate@?1??UnwindNestedFrames@__FrameHandler4@@SAXPEA_KPEAUEHExceptionRecord@@PEAU_CONTEXT@@0PEAXPEAUFuncInfo4@FH4@@HHPEAUHandlerType4@6@PEAU_xDISPATCHER_CONTEXT@@E@Z@4U_EXCEPTION_RECORD@@B 000000018003e510     libvcruntime:risctrnsctrl.obj
 0002:000005e0       ?tokenTable@@3QBUStringLiteral@@B 000000018003e5e0     libvcruntime:undname.obj
 0002:000006e0       ?nameTable@@3QBUStringLiteral@@B 000000018003e6e0     libvcruntime:undname.obj
 0002:00000c10       ?rttiTable@@3QBUStringLiteral@@B 000000018003ec10     libvcruntime:undname.obj
 0002:00000c60       ?IndirectionName@@3QBUStringLiteral@@B 000000018003ec60     libvcruntime:undname.obj
 0002:00000cc0       ?PrefixName@@3QBUStringLiteral@@B 000000018003ecc0     libvcruntime:undname.obj
 0002:00001398       ?module_names@?A0x84e3c32f@@3QBQEB_WB 000000018003f398     libvcruntime:winapi_downlevel.obj
 0002:00001458       ?candidate_modules@?1??try_get_FlsAlloc@@YAP6AKP6AXPEAX@Z@ZXZ@4QBW4module_id@?A0x84e3c32f@@B 000000018003f458     libvcruntime:winapi_downlevel.obj
 0002:00001470       ?candidate_modules@?1??try_get_FlsFree@@YAP6AHK@ZXZ@4QBW4module_id@?A0x84e3c32f@@B 000000018003f470     libvcruntime:winapi_downlevel.obj
 0002:00001480       ?candidate_modules@?1??try_get_FlsGetValue@@YAP6APEAXK@ZXZ@4QBW4module_id@?A0x84e3c32f@@B 000000018003f480     libvcruntime:winapi_downlevel.obj
 0002:00001498       ?candidate_modules@?1??try_get_FlsSetValue@@YAP6AHKPEAX@ZXZ@4QBW4module_id@?A0x84e3c32f@@B 000000018003f498     libvcruntime:winapi_downlevel.obj
 0002:000014b0       ?candidate_modules@?1??try_get_InitializeCriticalSectionEx@@YAP6AHPEAU_RTL_CRITICAL_SECTION@@KK@ZXZ@4QBW4module_id@?A0x84e3c32f@@B 000000018003f4b0     libvcruntime:winapi_downlevel.obj
 0002:00001840       ?ln_lead_table@?1??log2@@9@9 000000018003f840     libucrt:log2.obj
 0002:00001a50       ?ln_tail_table@?1??log2@@9@9 000000018003fa50     libucrt:log2.obj
 0002:00001dc0       __acrt_initializers        000000018003fdc0     libucrt:initialization.obj
 0002:00001ec0       ?errtable@@3QBUerrentry@?A0x31fdb9ec@@B 000000018003fec0     libucrt:errno.obj
 0002:00002030       ?module_names@?A0x391cf84c@@3QBQEB_WB 0000000180040030     libucrt:winapi_thunks.obj
 0002:00002538       ?candidate_modules@?1??try_get_AreFileApisANSI@@YAP6AHXZXZ@4QBW4module_id@?A0x391cf84c@@B 0000000180040538     libucrt:winapi_thunks.obj
 0002:00002550       ?candidate_modules@?1??try_get_FlsAlloc@@YAP6AKP6AXPEAX@Z@ZXZ@4QBW4module_id@?A0x391cf84c@@B 0000000180040550     libucrt:winapi_thunks.obj
 0002:00002558       ?candidate_modules@?1??try_get_FlsFree@@YAP6AHK@ZXZ@4QBW4module_id@?A0x391cf84c@@B 0000000180040558     libucrt:winapi_thunks.obj
 0002:00002560       ?candidate_modules@?1??try_get_FlsGetValue@@YAP6APEAXK@ZXZ@4QBW4module_id@?A0x391cf84c@@B 0000000180040560     libucrt:winapi_thunks.obj
 0002:00002568       ?candidate_modules@?1??try_get_FlsSetValue@@YAP6AHKPEAX@ZXZ@4QBW4module_id@?A0x391cf84c@@B 0000000180040568     libucrt:winapi_thunks.obj
 0002:00002570       ?candidate_modules@?1??try_get_GetActiveWindow@@YAP6APEAUHWND__@@XZXZ@4QBW4module_id@?A0x391cf84c@@B 0000000180040570     libucrt:winapi_thunks.obj
 0002:00002588       ?candidate_modules@?1??try_get_GetLastActivePopup@@YAP6APEAUHWND__@@PEAU2@@ZXZ@4QBW4module_id@?A0x391cf84c@@B 0000000180040588     libucrt:winapi_thunks.obj
 0002:000025a8       ?candidate_modules@?1??try_get_GetProcessWindowStation@@YAP6APEAUHWINSTA__@@XZXZ@4QBW4module_id@?A0x391cf84c@@B 00000001800405a8     libucrt:winapi_thunks.obj
 0002:000025c8       ?candidate_modules@?1??try_get_GetUserObjectInformationW@@YAP6AHPEAXH0KPEAK@ZXZ@4QBW4module_id@?A0x391cf84c@@B 00000001800405c8     libucrt:winapi_thunks.obj
 0002:000025f0       ?candidate_modules@?1??try_get_InitializeCriticalSectionEx@@YAP6AHPEAU_RTL_CRITICAL_SECTION@@KK@ZXZ@4QBW4module_id@?A0x391cf84c@@B 00000001800405f0     libucrt:winapi_thunks.obj
 0002:000025f8       ?candidate_modules@?1??try_get_LCMapStringEx@@YAP6AHPEB_WK0HPEA_WHPEAU_nlsversioninfo@@PEAX_J@ZXZ@4QBW4module_id@?A0x391cf84c@@B 00000001800405f8     libucrt:winapi_thunks.obj
 0002:00002610       ?candidate_modules@?1??try_get_LocaleNameToLCID@@YAP6AKPEB_WK@ZXZ@4QBW4module_id@?A0x391cf84c@@B 0000000180040610     libucrt:winapi_thunks.obj
 0002:00002630       ?candidate_modules@?1??try_get_MessageBoxA@@YAP6AHPEAUHWND__@@PEBD1I@ZXZ@4QBW4module_id@?A0x391cf84c@@B 0000000180040630     libucrt:winapi_thunks.obj
 0002:00002648       ?candidate_modules@?1??try_get_MessageBoxW@@YAP6AHPEAUHWND__@@PEB_W1I@ZXZ@4QBW4module_id@?A0x391cf84c@@B 0000000180040648     libucrt:winapi_thunks.obj
 0002:0000265c       ?candidate_modules@?1??try_get_AppPolicyGetProcessTerminationMethod@@YAP6AJPEAXPEAW4AppPolicyProcessTerminationMethod@@@ZXZ@4QBW4module_id@?A0x391cf84c@@B 000000018004065c     libucrt:winapi_thunks.obj
 0002:00002688       ?candidate_modules@?1??try_get_AppPolicyGetShowDeveloperDiagnostic@@YAP6AJPEAXPEAW4AppPolicyShowDeveloperDiagnostic@@@ZXZ@4QBW4module_id@?A0x391cf84c@@B 0000000180040688     libucrt:winapi_thunks.obj
 0002:000026b4       ?candidate_modules@?1??try_get_AppPolicyGetWindowingModel@@YAP6AJPEAXPEAW4AppPolicyWindowingModel@@@ZXZ@4QBW4module_id@?A0x391cf84c@@B 00000001800406b4     libucrt:winapi_thunks.obj
 0002:000026e0       ?strings@?1??fp_format_nan_or_infinity@@YAHW4__acrt_fp_class@@_NPEAD_K1@Z@4QAY03QEBDA 00000001800406e0     libucrt:cvt.obj
 0002:00002e40       ?_mb_locale_names@@3QBQEB_WB 0000000180040e40     libucrt:mbctype.obj
 0002:000036b0       ?LcidToLocaleNameTable@?A0x881e4c05@@3QBULcidToLocaleName@1@B 00000001800416b0     libucrt:lcidtoname_downlevel.obj
 0002:00005110       ?LocaleNameToIndexTable@?A0x881e4c05@@3QBULocaleNameIndex@1@B 0000000180043110     libucrt:lcidtoname_downlevel.obj
 0002:000072c0       ?large_power_indices@?1??multiply_by_power_of_ten@__crt_strtox@@YA_NAEAUbig_integer@2@I@Z@4QBUunpack_index@?1??12@YA_N0I@Z@B 00000001800452c0     libucrt:cfout.obj
 0002:000073b0       __real_ninf                00000001800453b0     libucrt:log10.obj
 0002:000073c0       __real_inf                 00000001800453c0     libucrt:log10.obj
 0002:000073d0       __real_neg_qnan            00000001800453d0     libucrt:log10.obj
 0002:000073e0       __real_qnanbit             00000001800453e0     libucrt:log10.obj
 0002:000073f0       __int_1023                 00000001800453f0     libucrt:log10.obj
 0002:00007400       __mask_001                 0000000180045400     libucrt:log10.obj
 0002:00007410       __mask_mant                0000000180045410     libucrt:log10.obj
 0002:00007420       __mask_mant_top8           0000000180045420     libucrt:log10.obj
 0002:00007430       __mask_mant9               0000000180045430     libucrt:log10.obj
 0002:00007440       __real_log10_e             0000000180045440     libucrt:log10.obj
 0002:00007450       __real_log10_e_lead        0000000180045450     libucrt:log10.obj
 0002:00007460       __real_log10_e_tail        0000000180045460     libucrt:log10.obj
 0002:00007470       __real_log10_2_lead        0000000180045470     libucrt:log10.obj
 0002:00007480       __real_log10_2_tail        0000000180045480     libucrt:log10.obj
 0002:00007490       __real_two                 0000000180045490     libucrt:log10.obj
 0002:000074a0       __real_one                 00000001800454a0     libucrt:log10.obj
 0002:000074b0       __real_half                00000001800454b0     libucrt:log10.obj
 0002:000074c0       __mask_100                 00000001800454c0     libucrt:log10.obj
 0002:000074d0       __real_1_over_512          00000001800454d0     libucrt:log10.obj
 0002:000074e0       __real_1_over_2            00000001800454e0     libucrt:log10.obj
 0002:000074f0       __real_1_over_3            00000001800454f0     libucrt:log10.obj
 0002:00007500       __real_1_over_4            0000000180045500     libucrt:log10.obj
 0002:00007510       __real_1_over_5            0000000180045510     libucrt:log10.obj
 0002:00007520       __real_1_over_6            0000000180045520     libucrt:log10.obj
 0002:00007530       __real_neg_1023            0000000180045530     libucrt:log10.obj
 0002:00007540       __mask_2045                0000000180045540     libucrt:log10.obj
 0002:00007550       __real_threshold           0000000180045550     libucrt:log10.obj
 0002:00007560       __real_near_one_lt         0000000180045560     libucrt:log10.obj
 0002:00007570       __real_near_one_gt         0000000180045570     libucrt:log10.obj
 0002:00007580       __real_min_norm            0000000180045580     libucrt:log10.obj
 0002:00007590       __real_notsign             0000000180045590     libucrt:log10.obj
 0002:000075a0       __real_ca1                 00000001800455a0     libucrt:log10.obj
 0002:000075b0       __real_ca2                 00000001800455b0     libucrt:log10.obj
 0002:000075c0       __real_ca3                 00000001800455c0     libucrt:log10.obj
 0002:000075d0       __real_ca4                 00000001800455d0     libucrt:log10.obj
 0002:000075e0       __mask_lower               00000001800455e0     libucrt:log10.obj
 0002:000075f0       __flag_x_zero              00000001800455f0     libucrt:log10.obj
 0002:000075f4       __flag_x_neg               00000001800455f4     libucrt:log10.obj
 0002:000075f8       __flag_x_nan               00000001800455f8     libucrt:log10.obj
 0002:00007600       __real@433fffffffffffff    0000000180045600     libucrt:fpsr.obj
 0002:00007608       __real@c33fffffffffffff    0000000180045608     libucrt:fpsr.obj
 0002:00009350       ?kDsigTableTag@woff2@@3IB  0000000180047350     font.obj
 0002:00009354       ?piecewise_construct@std@@3Upiecewise_construct_t@1@B 0000000180047354     font.obj
 0002:00009355       ?piecewise_construct@std@@3Upiecewise_construct_t@1@B 0000000180047355     normalize.obj
 0002:00009356       ?piecewise_construct@std@@3Upiecewise_construct_t@1@B 0000000180047356     transform.obj
 0002:00009357       ?piecewise_construct@std@@3Upiecewise_construct_t@1@B 0000000180047357     woff2_enc.obj
 0002:00009358       ?piecewise_construct@std@@3Upiecewise_construct_t@1@B 0000000180047358     backward_references.obj
 0002:00009359       ?piecewise_construct@std@@3Upiecewise_construct_t@1@B 0000000180047359     block_splitter.obj
 0002:0000935a       ?piecewise_construct@std@@3Upiecewise_construct_t@1@B 000000018004735a     encode.obj
 0002:0000935b       ?piecewise_construct@std@@3Upiecewise_construct_t@1@B 000000018004735b     encode_parallel.obj
 0002:0000935c       ?kMinInputBlockBits@brotli@@3HB 000000018004735c     encode.obj
 0002:0000945c       ?kMaxInputBlockBits@brotli@@3HB 000000018004745c     encode.obj
 0002:00009460       ?kBrotliDictionary@@3QBEB  0000000180047460     woff2_enc.obj
 0002:00027400       ?kTransforms@brotli@@3QBUTransform@1@B 0000000180065400     woff2_enc.obj
 0002:00027f58       ?piecewise_construct@std@@3Upiecewise_construct_t@1@B 0000000180065f58     metablock.obj
 0002:00027f60       ?kBlockLengthPrefixCode@brotli@@3QBUPrefixCodeRange@1@B 0000000180065f60     woff2_enc.obj
 0002:00028030       ?kBrotliDictionary@@3QBEB  0000000180066030     backward_references.obj
 0002:00045fd0       ?kBrotliDictionaryOffsetsByLength@@3QBHB 0000000180083fd0     backward_references.obj
 0002:00046040       ?copybase@brotli@@3PAHA    0000000180084040     backward_references.obj
 0002:000460a0       ?kTransforms@brotli@@3QBUTransform@1@B 00000001800840a0     backward_references.obj
 0002:00046c00       ?kStaticDictionaryHash@brotli@@3QBGB 0000000180084c00     backward_references.obj
 0002:00056c00       ?kDistanceCacheOffset@brotli@@3QBHB 0000000180094c00     backward_references.obj
 0002:00056c40       ?kBlockLengthPrefixCode@brotli@@3QBUPrefixCodeRange@1@B 0000000180094c40     backward_references.obj
 0002:00056d10       ?insextra@brotli@@3PAHA    0000000180094d10     backward_references.obj
 0002:00056d70       ?insbase@brotli@@3PAHA     0000000180094d70     backward_references.obj
 0002:00056dd0       ?copyextra@brotli@@3PAHA   0000000180094dd0     backward_references.obj
 0002:00056e30       ?kDistanceCacheIndex@brotli@@3QBHB 0000000180094e30     backward_references.obj
 0002:00056e70       ?kLog2Table@brotli@@3QBMB  0000000180094e70     block_splitter.obj
 0002:00057270       ?kBlockLengthPrefixCode@brotli@@3QBUPrefixCodeRange@1@B 0000000180095270     block_splitter.obj
 0002:00057340       ?kSigned3BitContextLookup@brotli@@3QBEB 0000000180095340     brotli_bit_stream.obj
 0002:00057440       ?kUTF8ContextLookup@brotli@@3QBEB 0000000180095440     brotli_bit_stream.obj
 0002:00057640       ?kBlockLengthPrefixCode@brotli@@3QBUPrefixCodeRange@1@B 0000000180095640     brotli_bit_stream.obj
 0002:00057710       ?kBrotliDictionary@@3QBEB  0000000180095710     encode.obj
 0002:000756b0       ?kBrotliDictionaryOffsetsByLength@@3QBHB 00000001800b36b0     encode.obj
 0002:00075720       ?kBrotliDictionarySizeBitsByLength@@3QBHB 00000001800b3720     encode.obj
 0002:00075790       ?copybase@brotli@@3PAHA    00000001800b3790     encode.obj
 0002:000757f0       ?kLog2Table@brotli@@3QBMB  00000001800b37f0     encode.obj
 0002:00075bf0       ?kTransforms@brotli@@3QBUTransform@1@B 00000001800b3bf0     encode.obj
 0002:00076750       ?kBlockLengthPrefixCode@brotli@@3QBUPrefixCodeRange@1@B 00000001800b4750     encode.obj
 0002:00076820       ?insextra@brotli@@3PAHA    00000001800b4820     encode.obj
 0002:00076880       ?insbase@brotli@@3PAHA     00000001800b4880     encode.obj
 0002:000768e0       ?copyextra@brotli@@3PAHA   00000001800b48e0     encode.obj
 0002:00076940       ?kBrotliDictionary@@3QBEB  00000001800b4940     encode_parallel.obj
 0002:000948e0       ?kBrotliDictionaryOffsetsByLength@@3QBHB 00000001800d28e0     encode_parallel.obj
 0002:00094950       ?kBrotliDictionarySizeBitsByLength@@3QBHB 00000001800d2950     encode_parallel.obj
 0002:000949c0       ?copybase@brotli@@3PAHA    00000001800d29c0     encode_parallel.obj
 0002:00094a20       ?kTransforms@brotli@@3QBUTransform@1@B 00000001800d2a20     encode_parallel.obj
 0002:00095580       ?kBlockLengthPrefixCode@brotli@@3QBUPrefixCodeRange@1@B 00000001800d3580     encode_parallel.obj
 0002:00095650       ?insextra@brotli@@3PAHA    00000001800d3650     encode_parallel.obj
 0002:000956b0       ?insbase@brotli@@3PAHA     00000001800d36b0     encode_parallel.obj
 0002:00095710       ?copyextra@brotli@@3PAHA   00000001800d3710     encode_parallel.obj
 0002:00095770       ?kBlockLengthPrefixCode@brotli@@3QBUPrefixCodeRange@1@B 00000001800d3770     entropy_encode.obj
 0002:00095840       ?kSigned3BitContextLookup@brotli@@3QBEB 00000001800d3840     histogram.obj
 0002:00095940       ?kUTF8ContextLookup@brotli@@3QBEB 00000001800d3940     histogram.obj
 0002:00095b40       ?kBlockLengthPrefixCode@brotli@@3QBUPrefixCodeRange@1@B 00000001800d3b40     histogram.obj
 0002:00095c10       ?kLog2Table@brotli@@3QBMB  00000001800d3c10     literal_cost.obj
 0002:00096010       ?kLog2Table@brotli@@3QBMB  00000001800d4010     metablock.obj
 0002:00096410       ?kBlockLengthPrefixCode@brotli@@3QBUPrefixCodeRange@1@B 00000001800d4410     metablock.obj
 0002:00096970       ?cells@?6??CombineLengthCodes@brotli@@YAHHHH@Z@4QBHB 00000001800d4970     backward_references.obj
 0002:00096970       ?cells@?6??CombineLengthCodes@brotli@@YAHHHH@Z@4QBHB 00000001800d4970     encode.obj
 0002:00096aac       ?kHuffmanBitLengthHuffmanCodeSymbols@?1??StoreHuffmanTreeOfHuffmanTreeToBitMask@brotli@@YAXHPEBEPEAHPEAE@Z@4QBEB 00000001800d4aac     brotli_bit_stream.obj
 0002:00096ab8       ?kStorageOrder@?1??StoreHuffmanTreeOfHuffmanTreeToBitMask@brotli@@YAXHPEBEPEAHPEAE@Z@4QBEB 00000001800d4ab8     brotli_bit_stream.obj
 0002:00096acc       ?kHuffmanBitLengthHuffmanCodeBitLengths@?1??StoreHuffmanTreeOfHuffmanTreeToBitMask@brotli@@YAXHPEBEPEAHPEAE@Z@4QBEB 00000001800d4acc     brotli_bit_stream.obj
 0002:00096b30       ?kLut@?1??ReverseBits@?A0xbf9879d9@brotli@@YAGHG@Z@4QB_KB 00000001800d4b30     entropy_encode.obj
 0002:00097740       $unwind$?FunctionCallbackWrapper@imp@Nan@@YAXAEBV?$FunctionCallbackInfo@VValue@v8@@@v8@@@Z 00000001800d5740     addon.obj
 0002:00097754       $unwind$?convert@@YAXAEBV?$FunctionCallbackInfo@VValue@v8@@@Nan@@@Z 00000001800d5754     addon.obj
 0002:00097770       $chain$1$?convert@@YAXAEBV?$FunctionCallbackInfo@VValue@v8@@@Nan@@@Z 00000001800d5770     addon.obj
 0002:00097788       $chain$2$?convert@@YAXAEBV?$FunctionCallbackInfo@VValue@v8@@@Nan@@@Z 00000001800d5788     addon.obj
 0002:00097798       $chain$3$?convert@@YAXAEBV?$FunctionCallbackInfo@VValue@v8@@@Nan@@@Z 00000001800d5798     addon.obj
 0002:000977b0       $unwind$?Init@@YAXV?$Local@VObject@v8@@@v8@@@Z 00000001800d57b0     addon.obj
 0002:000977c4       $unwind$?_Raise@exception@stdext@@QEBAXXZ 00000001800d57c4     glyph.obj
 0002:000977c4       $unwind$??0length_error@std@@QEAA@PEBD@Z 00000001800d57c4     libcpmt:xthrow.obj
 0002:000977c4       $unwind$??0out_of_range@std@@QEAA@PEBD@Z 00000001800d57c4     libcpmt:xthrow.obj
 0002:000977c4       $unwind$?__mbrtowc_utf8@__crt_mbstring@@YA_KPEA_WPEBD_KPEAU_Mbstatet@@@Z 00000001800d57c4     libucrt:mbrtowc.obj
 0002:000977c4       $unwind$??$common_xtox_s@K_W@@YAHKQEA_W_KI_N@Z 00000001800d57c4     libucrt:xtoa.obj
 0002:000977cc       $unwind$?_Tidy@?$vector@U?$Histogram@$0BAA@@brotli@@V?$allocator@U?$Histogram@$0BAA@@brotli@@@std@@@std@@AEAAXXZ 00000001800d57cc     block_splitter.obj
 0002:000977cc       $unwind$?_Tidy@?$vector@U?$Histogram@$0CAI@@brotli@@V?$allocator@U?$Histogram@$0CAI@@brotli@@@std@@@std@@AEAAXXZ 00000001800d57cc     block_splitter.obj
 0002:000977cc       $unwind$?_Tidy@?$vector@U?$Histogram@$0CMA@@brotli@@V?$allocator@U?$Histogram@$0CMA@@brotli@@@std@@@std@@AEAAXXZ 00000001800d57cc     block_splitter.obj
 0002:000977cc       $unwind$??1?$unique_ptr@UHashers@brotli@@U?$default_delete@UHashers@brotli@@@std@@@std@@QEAA@XZ 00000001800d57cc     encode.obj
 0002:000977cc       $unwind$??_GBrotliIn@brotli@@UEAAPEAXI@Z 00000001800d57cc     encode.obj
 0002:000977cc       $unwind$??_GBrotliOut@brotli@@UEAAPEAXI@Z 00000001800d57cc     encode.obj
 0002:000977cc       $unwind$??_Gbad_array_new_length@stdext@@UEAAPEAXI@Z 00000001800d57cc     glyph.obj
 0002:000977cc       $unwind$??_Gexception@stdext@@UEAAPEAXI@Z 00000001800d57cc     glyph.obj
 0002:000977cc       $unwind$??_GBrotliMemIn@brotli@@UEAAPEAXI@Z 00000001800d57cc     streams.obj
 0002:000977cc       $unwind$??_GBrotliMemOut@brotli@@UEAAPEAXI@Z 00000001800d57cc     streams.obj
 0002:000977cc       $unwind$?DloadAcquireSectionWriteAccess@@YAXXZ 00000001800d57cc     DelayImp:delayhlp.obj
 0002:000977cc       $unwind$__raise_securityfailure 00000001800d57cc     LIBCMT:gs_report.obj
 0002:000977cc       $unwind$??2@YAPEAX_K@Z     00000001800d57cc     LIBCMT:new_scalar.obj
 0002:000977cc       $unwind$??_Gtype_info@@UEAAPEAXI@Z 00000001800d57cc     LIBCMT:std_type_info_static.obj
 0002:000977cc       $unwind$_Init_thread_footer 00000001800d57cc     LIBCMT:thread_safe_statics.obj
 0002:000977cc       $unwind$_Init_thread_header 00000001800d57cc     LIBCMT:thread_safe_statics.obj
 0002:000977cc       $unwind$_Init_thread_wait  00000001800d57cc     LIBCMT:thread_safe_statics.obj
 0002:000977cc       $unwind$??0bad_array_new_length@std@@QEAA@AEBV01@@Z 00000001800d57cc     LIBCMT:throw_bad_alloc.obj
 0002:000977cc       $unwind$__scrt_initialize_crt 00000001800d57cc     LIBCMT:utility.obj
 0002:000977cc       $unwind$__scrt_initialize_onexit_tables 00000001800d57cc     LIBCMT:utility.obj
 0002:000977cc       $unwind$__scrt_release_startup_lock 00000001800d57cc     LIBCMT:utility.obj
 0002:000977cc       $unwind$__scrt_uninitialize_crt 00000001800d57cc     LIBCMT:utility.obj
 0002:000977cc       $unwind$_onexit            00000001800d57cc     LIBCMT:utility.obj
 0002:000977cc       $unwind$??0bad_alloc@std@@QEAA@AEBV01@@Z 00000001800d57cc     libcpmt:xthrow.obj
 0002:000977cc       $unwind$??0exception@std@@QEAA@AEBV01@@Z 00000001800d57cc     libcpmt:xthrow.obj
 0002:000977cc       $unwind$??0length_error@std@@QEAA@AEBV01@@Z 00000001800d57cc     libcpmt:xthrow.obj
 0002:000977cc       $unwind$??0logic_error@std@@QEAA@AEBV01@@Z 00000001800d57cc     libcpmt:xthrow.obj
 0002:000977cc       $unwind$??0out_of_range@std@@QEAA@AEBV01@@Z 00000001800d57cc     libcpmt:xthrow.obj
 0002:000977cc       $unwind$_IsExceptionObjectToBeDestroyed 00000001800d57cc     libvcruntime:ehhelpers.obj
 0002:000977cc       $unwind$??0HandlerMap4@FH4@@QEAA@PEBUTryBlockMapEntry4@1@_KH@Z 00000001800d57cc     libvcruntime:frame.obj
 0002:000977cc       $unwind$??0bad_exception@std@@QEAA@AEBV01@@Z 00000001800d57cc     libvcruntime:frame.obj
 0002:000977cc       $unwind$?ExFilterRethrow@@YAHPEAU_EXCEPTION_POINTERS@@PEAUEHExceptionRecord@@PEAH@Z 00000001800d57cc     libvcruntime:frame.obj
 0002:000977cc       $unwind$__vcrt_uninitialize_locks 00000001800d57cc     libvcruntime:locks.obj
 0002:000977cc       $unwind$__vcrt_freeptd     00000001800d57cc     libvcruntime:per_thread_data.obj
 0002:000977cc       $unwind$_CreateFrameInfo   00000001800d57cc     libvcruntime:risctrnsctrl.obj
 0002:000977cc       $unwind$_SetImageBase      00000001800d57cc     libvcruntime:risctrnsctrl.obj
 0002:000977cc       $unwind$_SetThrowImageBase 00000001800d57cc     libvcruntime:risctrnsctrl.obj
 0002:000977cc       $unwind$__std_exception_destroy 00000001800d57cc     libvcruntime:std_exception.obj
 0002:000977cc       $unwind$__std_type_info_destroy_list 00000001800d57cc     libvcruntime:std_type_info.obj
 0002:000977cc       $unwind$__vcrt_FlsAlloc    00000001800d57cc     libvcruntime:winapi_downlevel.obj
 0002:000977cc       $unwind$__vcrt_FlsFree     00000001800d57cc     libvcruntime:winapi_downlevel.obj
 0002:000977cc       $unwind$__vcrt_FlsGetValue 00000001800d57cc     libvcruntime:winapi_downlevel.obj
 0002:000977cc       $unwind$_calloc_base       00000001800d57cc     libucrt:calloc_base.obj
 0002:000977cc       $unwind$_malloc_base       00000001800d57cc     libucrt:malloc_base.obj
 0002:000977cc       $unwind$_callnewh          00000001800d57cc     libucrt:new_handler.obj
 0002:000977cc       $unwind$initialize_pointers 00000001800d57cc     libucrt:initialization.obj
 0002:000977cc       $unwind$uninitialize_allocated_memory 00000001800d57cc     libucrt:initialization.obj
 0002:000977cc       $unwind$__acrt_initialize_locks 00000001800d57cc     libucrt:locks.obj
 0002:000977cc       $unwind$__acrt_uninitialize_locks 00000001800d57cc     libucrt:locks.obj
 0002:000977cc       $unwind$__acrt_freeptd     00000001800d57cc     libucrt:per_thread_data.obj
 0002:000977cc       $unwind$__acrt_getptd_head 00000001800d57cc     libucrt:per_thread_data.obj
 0002:000977cc       $unwind$__acrt_get_developer_information_policy 00000001800d57cc     libucrt:win_policies.obj
 0002:000977cc       $unwind$__acrt_get_process_end_policy 00000001800d57cc     libucrt:win_policies.obj
 0002:000977cc       $unwind$__acrt_get_windowing_model_policy 00000001800d57cc     libucrt:win_policies.obj
 0002:000977cc       $unwind$__acrt_AppPolicyGetProcessTerminationMethodInternal 00000001800d57cc     libucrt:winapi_thunks.obj
 0002:000977cc       $unwind$__acrt_AppPolicyGetShowDeveloperDiagnosticInternal 00000001800d57cc     libucrt:winapi_thunks.obj
 0002:000977cc       $unwind$__acrt_AppPolicyGetWindowingModelInternal 00000001800d57cc     libucrt:winapi_thunks.obj
 0002:000977cc       $unwind$__acrt_FlsAlloc    00000001800d57cc     libucrt:winapi_thunks.obj
 0002:000977cc       $unwind$__acrt_FlsFree     00000001800d57cc     libucrt:winapi_thunks.obj
 0002:000977cc       $unwind$__acrt_FlsGetValue 00000001800d57cc     libucrt:winapi_thunks.obj
 0002:000977cc       $unwind$__acrt_get_parent_window 00000001800d57cc     libucrt:winapi_thunks.obj
 0002:000977cc       $unwind$__acrt_uninitialize_winapi_thunks 00000001800d57cc     libucrt:winapi_thunks.obj
 0002:000977cc       $unwind$__acrt_update_locale_info 00000001800d57cc     libucrt:locale_update.obj
 0002:000977cc       $unwind$__acrt_update_multibyte_info 00000001800d57cc     libucrt:locale_update.obj
 0002:000977cc       $unwind$__acrt_allocate_buffer_for_argv 00000001800d57cc     libucrt:argv_parsing.obj
 0002:000977cc       $unwind$?exit_or_terminate_process@@YAXI@Z 00000001800d57cc     libucrt:exit.obj
 0002:000977cc       $unwind$?try_cor_exit_process@@YAXI@Z 00000001800d57cc     libucrt:exit.obj
 0002:000977cc       $unwind$__acrt_uninitialize_stdio 00000001800d57cc     libucrt:_file.obj
 0002:000977cc       $unwind$?stream_is_at_end_of_file_nolock@@YA_NV__crt_stdio_stream@@@Z 00000001800d57cc     libucrt:_flsbuf.obj
 0002:000977cc       $unwind$__acrt_stdio_free_buffer_nolock 00000001800d57cc     libucrt:_freebuf.obj
 0002:000977cc       $unwind$_fflush_nolock     00000001800d57cc     libucrt:fflush.obj
 0002:000977cc       $unwind$?state_case_normal@?$output_processor@DV?$stream_output_adapter@D@__crt_stdio_output@@V?$standard_base@DV?$stream_output_adapter@D@__crt_stdio_output@@@2@@__crt_stdio_output@@AEAA_NXZ 00000001800d57cc     libucrt:output.obj
 0002:000977cc       $unwind$?state_case_normal_tchar@?$output_processor@DV?$stream_output_adapter@D@__crt_stdio_output@@V?$standard_base@DV?$stream_output_adapter@D@__crt_stdio_output@@@2@@__crt_stdio_output@@AEAA_ND@Z 00000001800d57cc     libucrt:output.obj
 0002:000977cc       $unwind$?type_case_c_tchar@?$output_processor@DV?$stream_output_adapter@D@__crt_stdio_output@@V?$standard_base@DV?$stream_output_adapter@D@__crt_stdio_output@@@2@@__crt_stdio_output@@AEAA_ND@Z 00000001800d57cc     libucrt:output.obj
 0002:000977cc       $unwind$?type_case_s@?$output_processor@DV?$stream_output_adapter@D@__crt_stdio_output@@V?$standard_base@DV?$stream_output_adapter@D@__crt_stdio_output@@@2@@__crt_stdio_output@@AEAA_NXZ 00000001800d57cc     libucrt:output.obj
 0002:000977cc       $unwind$strcpy_s           00000001800d57cc     libucrt:strcpy_s.obj
 0002:000977cc       $unwind$wcscat_s           00000001800d57cc     libucrt:wcscat_s.obj
 0002:000977cc       $unwind$wcscpy_s           00000001800d57cc     libucrt:wcscpy_s.obj
 0002:000977cc       $unwind$_clrfp             00000001800d57cc     libucrt:fpctrl.obj
 0002:000977cc       $unwind$_set_statfp        00000001800d57cc     libucrt:fpctrl.obj
 0002:000977cc       $unwind$_clearfp           00000001800d57cc     libucrt:ieee.obj
 0002:000977cc       $unwind$fegetenv           00000001800d57cc     libucrt:fegetenv.obj
 0002:000977cc       $unwind$feholdexcept       00000001800d57cc     libucrt:feholdexcept.obj
 0002:000977cc       $unwind$fesetenv           00000001800d57cc     libucrt:fesetenv.obj
 0002:000977d4       $unwind$?_Doraise@bad_alloc@stdext@@MEBAXXZ 00000001800d57d4     glyph.obj
 0002:000977d4       $unwind$?_Throw_bad_array_new_length@std@@YAXXZ 00000001800d57d4     glyph.obj
 0002:000977d4       $unwind$strtol             00000001800d57d4     libucrt:strtox.obj
 0002:000977d4       $unwind$wcstol             00000001800d57d4     libucrt:strtox.obj
 0002:000977d4       $unwind$wctomb_s           00000001800d57d4     libucrt:wctomb.obj
 0002:000977d4       $unwind$_itow_s            00000001800d57d4     libucrt:xtoa.obj
 0002:000977d4       $unwind$_invalid_parameter_noinfo 00000001800d57d4     libucrt:invalid_parameter.obj
 0002:000977d4       $unwind$_invalid_parameter_noinfo_noreturn 00000001800d57d4     libucrt:invalid_parameter.obj
 0002:000977d4       $unwind$fflush             00000001800d57d4     libucrt:fflush.obj
 0002:000977d4       $unwind$_log10_special     00000001800d57d4     libucrt:log_special.obj
 0002:000977dc       $unwind$?ReadGlyph@woff2@@YA_NPEBE_KPEAVGlyph@1@@Z 00000001800d57dc     glyph.obj
 0002:000977f4       $unwind$?StorePoints@?A0x004d6e0c@woff2@@YA_NAEBVGlyph@2@PEA_KPEAE_K@Z 00000001800d57f4     glyph.obj
 0002:00097810       $unwind$?StoreGlyph@woff2@@YA_NAEBVGlyph@1@PEAEPEA_K@Z 00000001800d5810     glyph.obj
 0002:00097828       $unwind$??$_Resize@U_Value_init_tag@std@@@?$vector@GV?$allocator@G@std@@@std@@AEAAX_KAEBU_Value_init_tag@1@@Z 00000001800d5828     brotli_bit_stream.obj
 0002:00097828       $unwind$?resize@?$vector@EV?$allocator@E@std@@@std@@QEAAX_K@Z 00000001800d5828     glyph.obj
 0002:00097828       $unwind$?NormalizeGlyphs@woff2@@YA_NPEAUFont@1@@Z 00000001800d5828     normalize.obj
 0002:0009783c       $chain$0$?resize@?$vector@EV?$allocator@E@std@@@std@@QEAAX_K@Z 00000001800d583c     glyph.obj
 0002:00097850       $chain$1$?resize@?$vector@EV?$allocator@E@std@@@std@@QEAAX_K@Z 00000001800d5850     glyph.obj
 0002:00097860       $chain$2$?resize@?$vector@EV?$allocator@E@std@@@std@@QEAAX_K@Z 00000001800d5860     glyph.obj
 0002:00097874       $unwind$??$_Destroy_range@V?$allocator@V?$vector@EV?$allocator@E@std@@@std@@@std@@@std@@YAXPEAV?$vector@EV?$allocator@E@std@@@0@QEAV10@AEAV?$allocator@V?$vector@EV?$allocator@E@std@@@std@@@0@@Z 00000001800d5874     glyph.obj
 0002:00097880       $chain$0$??$_Destroy_range@V?$allocator@V?$vector@EV?$allocator@E@std@@@std@@@std@@@std@@YAXPEAV?$vector@EV?$allocator@E@std@@@0@QEAV10@AEAV?$allocator@V?$vector@EV?$allocator@E@std@@@std@@@0@@Z 00000001800d5880     glyph.obj
 0002:00097894       $chain$1$??$_Destroy_range@V?$allocator@V?$vector@EV?$allocator@E@std@@@std@@@std@@@std@@YAXPEAV?$vector@EV?$allocator@E@std@@@0@QEAV10@AEAV?$allocator@V?$vector@EV?$allocator@E@std@@@std@@@0@@Z 00000001800d5894     glyph.obj
 0002:000978a4       $chain$2$??$_Destroy_range@V?$allocator@V?$vector@EV?$allocator@E@std@@@std@@@std@@@std@@YAXPEAV?$vector@EV?$allocator@E@std@@@0@QEAV10@AEAV?$allocator@V?$vector@EV?$allocator@E@std@@@std@@@0@@Z 00000001800d58a4     glyph.obj
 0002:000978b8       $unwind$??$_Destroy_range@V?$allocator@V?$vector@UPoint@Glyph@woff2@@V?$allocator@UPoint@Glyph@woff2@@@std@@@std@@@std@@@std@@YAXPEAV?$vector@UPoint@Glyph@woff2@@V?$allocator@UPoint@Glyph@woff2@@@std@@@0@QEAV10@AEAV?$allocator@V?$vector@UPoint@Glyph@woff2@@V?$allocator@UPoint@Glyph@woff2@@@std@@@std@@@0@@Z 00000001800d58b8     glyph.obj
 0002:000978c4       $chain$1$??$_Destroy_range@V?$allocator@V?$vector@UPoint@Glyph@woff2@@V?$allocator@UPoint@Glyph@woff2@@@std@@@std@@@std@@@std@@YAXPEAV?$vector@UPoint@Glyph@woff2@@V?$allocator@UPoint@Glyph@woff2@@@std@@@0@QEAV10@AEAV?$allocator@V?$vector@UPoint@Glyph@woff2@@V?$allocator@UPoint@Glyph@woff2@@@std@@@std@@@0@@Z 00000001800d58c4     glyph.obj
 0002:000978dc       $chain$2$??$_Destroy_range@V?$allocator@V?$vector@UPoint@Glyph@woff2@@V?$allocator@UPoint@Glyph@woff2@@@std@@@std@@@std@@@std@@YAXPEAV?$vector@UPoint@Glyph@woff2@@V?$allocator@UPoint@Glyph@woff2@@@std@@@0@QEAV10@AEAV?$allocator@V?$vector@UPoint@Glyph@woff2@@V?$allocator@UPoint@Glyph@woff2@@@std@@@std@@@0@@Z 00000001800d58dc     glyph.obj
 0002:000978ec       $chain$3$??$_Destroy_range@V?$allocator@V?$vector@UPoint@Glyph@woff2@@V?$allocator@UPoint@Glyph@woff2@@@std@@@std@@@std@@@std@@YAXPEAV?$vector@UPoint@Glyph@woff2@@V?$allocator@UPoint@Glyph@woff2@@@std@@@0@QEAV10@AEAV?$allocator@V?$vector@UPoint@Glyph@woff2@@V?$allocator@UPoint@Glyph@woff2@@@std@@@std@@@0@@Z 00000001800d58ec     glyph.obj
 0002:00097904       $unwind$??$push_heap@V?$_Vector_iterator@V?$_Vector_val@U?$_Simple_types@UHistogramPair@brotli@@@std@@@std@@@std@@UHistogramPairComparator@brotli@@@std@@YAXV?$_Vector_iterator@V?$_Vector_val@U?$_Simple_types@UHistogramPair@brotli@@@std@@@std@@@0@0UHistogramPairComparator@brotli@@@Z 00000001800d5904     block_splitter.obj
 0002:00097904       $unwind$?_Xlength@?$vector@GV?$allocator@G@std@@@std@@CAXXZ 00000001800d5904     block_splitter.obj
 0002:00097904       $unwind$?_Xlength@?$vector@HV?$allocator@H@std@@@std@@CAXXZ 00000001800d5904     block_splitter.obj
 0002:00097904       $unwind$?_Xlength@?$vector@U?$Histogram@$0BAA@@brotli@@V?$allocator@U?$Histogram@$0BAA@@brotli@@@std@@@std@@CAXXZ 00000001800d5904     block_splitter.obj
 0002:00097904       $unwind$?_Xlength@?$vector@U?$Histogram@$0CAI@@brotli@@V?$allocator@U?$Histogram@$0CAI@@brotli@@@std@@@std@@CAXXZ 00000001800d5904     block_splitter.obj
 0002:00097904       $unwind$?_Xlength@?$vector@U?$Histogram@$0CMA@@brotli@@V?$allocator@U?$Histogram@$0CMA@@brotli@@@std@@@std@@CAXXZ 00000001800d5904     block_splitter.obj
 0002:00097904       $unwind$?_Xlength@?$vector@UHistogramPair@brotli@@V?$allocator@UHistogramPair@brotli@@@std@@@std@@CAXXZ 00000001800d5904     block_splitter.obj
 0002:00097904       $unwind$?allocate@?$allocator@H@std@@QEAAPEAH_K@Z 00000001800d5904     block_splitter.obj
 0002:00097904       $unwind$?allocate@?$allocator@U?$Histogram@$0BAA@@brotli@@@std@@QEAAPEAU?$Histogram@$0BAA@@brotli@@_K@Z 00000001800d5904     block_splitter.obj
 0002:00097904       $unwind$?allocate@?$allocator@U?$Histogram@$0CAI@@brotli@@@std@@QEAAPEAU?$Histogram@$0CAI@@brotli@@_K@Z 00000001800d5904     block_splitter.obj
 0002:00097904       $unwind$?allocate@?$allocator@U?$Histogram@$0CMA@@brotli@@@std@@QEAAPEAU?$Histogram@$0CMA@@brotli@@_K@Z 00000001800d5904     block_splitter.obj
 0002:00097904       $unwind$?_Xlength@?$vector@UHuffmanTree@?A0xbf9879d9@brotli@@V?$allocator@UHuffmanTree@?A0xbf9879d9@brotli@@@std@@@std@@CAXXZ 00000001800d5904     entropy_encode.obj
 0002:00097904       $unwind$?_Throw_tree_length_error@std@@YAXXZ 00000001800d5904     font.obj
 0002:00097904       $unwind$?_Xlength@?$vector@IV?$allocator@I@std@@@std@@CAXXZ 00000001800d5904     font.obj
 0002:00097904       $unwind$?_Xlength@?$vector@UFont@woff2@@V?$allocator@UFont@woff2@@@std@@@std@@CAXXZ 00000001800d5904     font.obj
 0002:00097904       $unwind$?_Xlength@?$vector@EV?$allocator@E@std@@@std@@CAXXZ 00000001800d5904     glyph.obj
 0002:00097904       $unwind$?_Xlength@?$vector@UPoint@Glyph@woff2@@V?$allocator@UPoint@Glyph@woff2@@@std@@@std@@CAXXZ 00000001800d5904     glyph.obj
 0002:00097904       $unwind$?_Xlength@?$vector@V?$vector@EV?$allocator@E@std@@@std@@V?$allocator@V?$vector@EV?$allocator@E@std@@@std@@@2@@std@@CAXXZ 00000001800d5904     glyph.obj
 0002:00097904       $unwind$?_Xlength@?$vector@V?$vector@UPoint@Glyph@woff2@@V?$allocator@UPoint@Glyph@woff2@@@std@@@std@@V?$allocator@V?$vector@UPoint@Glyph@woff2@@V?$allocator@UPoint@Glyph@woff2@@@std@@@std@@@2@@std@@CAXXZ 00000001800d5904     glyph.obj
 0002:00097904       $unwind$?allocate@?$allocator@V?$vector@EV?$allocator@E@std@@@std@@@std@@QEAAPEAV?$vector@EV?$allocator@E@std@@@2@_K@Z 00000001800d5904     glyph.obj
 0002:00097904       $unwind$?load_exe_hook@@YAP6A_JXZIPEAUDelayLoadInfo@@@Z 00000001800d5904     win_delay_load_hook.obj
 0002:00097904       $unwind$?_Xlen_string@std@@YAXXZ 00000001800d5904     woff2_enc.obj
 0002:00097904       $unwind$?_Xlength@?$vector@UTable@woff2@@V?$allocator@UTable@woff2@@@std@@@std@@CAXXZ 00000001800d5904     woff2_enc.obj
 0002:00097904       $unwind$?DloadReleaseSectionWriteAccess@@YAXXZ 00000001800d5904     DelayImp:delayhlp.obj
 0002:00097904       $unwind$__scrt_initialize_default_local_stdio_options 00000001800d5904     LIBCMT:default_local_stdio_options.obj
 0002:00097904       $unwind$?dllmain_crt_dispatch@@YAHQEAUHINSTANCE__@@KQEAX@Z 00000001800d5904     LIBCMT:dll_dllmain.obj
 0002:00097904       $unwind$__report_rangecheckfailure 00000001800d5904     LIBCMT:gs_report.obj
 0002:00097904       $unwind$__GSHandlerCheck   00000001800d5904     LIBCMT:gshandler.obj
 0002:00097904       $unwind$?__scrt_uninitialize_thread_safe_statics@@YAXXZ 00000001800d5904     LIBCMT:thread_safe_statics.obj
 0002:00097904       $unwind$_Init_thread_notify 00000001800d5904     LIBCMT:thread_safe_statics.obj
 0002:00097904       $unwind$__scrt_acquire_startup_lock 00000001800d5904     LIBCMT:utility.obj
 0002:00097904       $unwind$__scrt_dllmain_after_initialize_c 00000001800d5904     LIBCMT:utility.obj
 0002:00097904       $unwind$__scrt_dllmain_before_initialize_c 00000001800d5904     LIBCMT:utility.obj
 0002:00097904       $unwind$__scrt_dllmain_crt_thread_attach 00000001800d5904     LIBCMT:utility.obj
 0002:00097904       $unwind$__scrt_dllmain_crt_thread_detach 00000001800d5904     LIBCMT:utility.obj
 0002:00097904       $unwind$__scrt_dllmain_uninitialize_c 00000001800d5904     LIBCMT:utility.obj
 0002:00097904       $unwind$__scrt_dllmain_uninitialize_critical 00000001800d5904     LIBCMT:utility.obj
 0002:00097904       $unwind$atexit             00000001800d5904     LIBCMT:utility.obj
 0002:00097904       $unwind$__vcrt_initialize  00000001800d5904     libvcruntime:initialization.obj
 0002:00097904       $unwind$__vcrt_thread_attach 00000001800d5904     libvcruntime:initialization.obj
 0002:00097904       $unwind$__vcrt_thread_detach 00000001800d5904     libvcruntime:initialization.obj
 0002:00097904       $unwind$__vcrt_uninitialize 00000001800d5904     libvcruntime:initialization.obj
 0002:00097904       $unwind$__vcrt_uninitialize_critical 00000001800d5904     libvcruntime:initialization.obj
 0002:00097904       $unwind$__vcrt_initialize_locks 00000001800d5904     libvcruntime:locks.obj
 0002:00097904       $unwind$__vcrt_freefls     00000001800d5904     libvcruntime:per_thread_data.obj
 0002:00097904       $unwind$__vcrt_getptd      00000001800d5904     libvcruntime:per_thread_data.obj
 0002:00097904       $unwind$__vcrt_initialize_ptd 00000001800d5904     libvcruntime:per_thread_data.obj
 0002:00097904       $unwind$__vcrt_uninitialize_ptd 00000001800d5904     libvcruntime:per_thread_data.obj
 0002:00097904       $unwind$_purecall          00000001800d5904     libvcruntime:purevirt.obj
 0002:00097904       $unwind$?FrameUnwindToEmptyState@__FrameHandler4@@SAXPEA_KPEAU_xDISPATCHER_CONTEXT@@PEAUFuncInfo4@FH4@@@Z 00000001800d5904     libvcruntime:risctrnsctrl.obj
 0002:00097904       $unwind$_GetImageBase      00000001800d5904     libvcruntime:risctrnsctrl.obj
 0002:00097904       $unwind$_GetThrowImageBase 00000001800d5904     libvcruntime:risctrnsctrl.obj
 0002:00097904       $unwind$__dcrt_terminate_console_output 00000001800d5904     libucrt:initcon.obj
 0002:00097904       $unwind$??$uninitialize_environment_internal@D@@YAXAEAPEAPEAD@Z 00000001800d5904     libucrt:environment_initialization.obj
 0002:00097904       $unwind$??$uninitialize_environment_internal@_W@@YAXAEAPEAPEA_W@Z 00000001800d5904     libucrt:environment_initialization.obj
 0002:00097904       $unwind$__dcrt_uninitialize_environments_nolock 00000001800d5904     libucrt:environment_initialization.obj
 0002:00097904       $unwind$?__c32rtomb_utf8@__crt_mbstring@@YA_KPEAD_UPEAU_Mbstatet@@@Z 00000001800d5904     libucrt:c32rtomb.obj
 0002:00097904       $unwind$__acrt_initialize_heap 00000001800d5904     libucrt:heap_handle.obj
 0002:00097904       $unwind$_msize_base        00000001800d5904     libucrt:msize.obj
 0002:00097904       $unwind$?initialize_multibyte@@YAHXZ 00000001800d5904     libucrt:multibyte_initializer.obj
 0002:00097904       $unwind$__acrt_thread_attach 00000001800d5904     libucrt:initialization.obj
 0002:00097904       $unwind$__acrt_thread_detach 00000001800d5904     libucrt:initialization.obj
 0002:00097904       $unwind$__acrt_uninitialize 00000001800d5904     libucrt:initialization.obj
 0002:00097904       $unwind$__acrt_uninitialize_critical 00000001800d5904     libucrt:initialization.obj
 0002:00097904       $unwind$initialize_c       00000001800d5904     libucrt:initialization.obj
 0002:00097904       $unwind$uninitialize_allocated_io_buffers 00000001800d5904     libucrt:initialization.obj
 0002:00097904       $unwind$uninitialize_environment 00000001800d5904     libucrt:initialization.obj
 0002:00097904       $unwind$__acrt_initialize_ptd 00000001800d5904     libucrt:per_thread_data.obj
 0002:00097904       $unwind$__acrt_uninitialize_ptd 00000001800d5904     libucrt:per_thread_data.obj
 0002:00097904       $unwind$__acrt_AreFileApisANSI 00000001800d5904     libucrt:winapi_thunks.obj
 0002:00097904       $unwind$__pctype_func      00000001800d5904     libucrt:ctype.obj
 0002:00097904       $unwind$__acrt_release_locale_ref 00000001800d5904     libucrt:locale_refcounting.obj
 0002:00097904       $unwind$_isatty            00000001800d5904     libucrt:isatty.obj
 0002:00097904       $unwind$_get_osfhandle     00000001800d5904     libucrt:osfinfo.obj
 0002:00097904       $unwind$__acrt_initialize_multibyte 00000001800d5904     libucrt:mbctype.obj
 0002:00097904       $unwind$__acrt_update_thread_multibyte_data 00000001800d5904     libucrt:mbctype.obj
 0002:00097904       $unwind$__doserrno         00000001800d5904     libucrt:errno.obj
 0002:00097904       $unwind$_errno             00000001800d5904     libucrt:errno.obj
 0002:00097904       $unwind$_invoke_watson     00000001800d5904     libucrt:invalid_parameter.obj
 0002:00097904       $unwind$_set_error_mode    00000001800d5904     libucrt:set_error_mode.obj
 0002:00097904       $unwind$abort              00000001800d5904     libucrt:abort.obj
 0002:00097904       $unwind$__acrt_initialize_command_line 00000001800d5904     libucrt:argv_data.obj
 0002:00097904       $unwind$_fileno            00000001800d5904     libucrt:fileno.obj
 0002:00097904       $unwind$?state_case_size@?$output_processor@DV?$stream_output_adapter@D@__crt_stdio_output@@V?$standard_base@DV?$stream_output_adapter@D@__crt_stdio_output@@@2@@__crt_stdio_output@@AEAA_NXZ 00000001800d5904     libucrt:output.obj
 0002:00097904       $unwind$?state_case_size@?$output_processor@_WV?$stream_output_adapter@_W@__crt_stdio_output@@V?$standard_base@_WV?$stream_output_adapter@_W@__crt_stdio_output@@@2@@__crt_stdio_output@@AEAA_NXZ 00000001800d5904     libucrt:output.obj
 0002:00097904       $unwind$?state_case_size@?$output_processor@_WV?$string_output_adapter@_W@__crt_stdio_output@@V?$standard_base@_WV?$string_output_adapter@_W@__crt_stdio_output@@@2@@__crt_stdio_output@@AEAA_NXZ 00000001800d5904     libucrt:output.obj
 0002:00097904       $unwind$?validate_stream_is_ansi_if_required@?$__acrt_stdio_char_traits@D@@SA_NQEAU_iobuf@@@Z 00000001800d5904     libucrt:output.obj
 0002:00097904       $unwind$_stricmp           00000001800d5904     libucrt:stricmp.obj
 0002:00097904       $unwind$_statfp            00000001800d5904     libucrt:fpctrl.obj
 0002:00097904       $unwind$_set_errno_from_matherr 00000001800d5904     libucrt:fpexcept.obj
 0002:0009790c       $unwind$??$_Resize_reallocate@U_Value_init_tag@std@@@?$vector@UPoint@Glyph@woff2@@V?$allocator@UPoint@Glyph@woff2@@@std@@@std@@AEAAX_KAEBU_Value_init_tag@1@@Z 00000001800d590c     glyph.obj
 0002:00097918       $chain$3$??$_Resize_reallocate@U_Value_init_tag@std@@@?$vector@UPoint@Glyph@woff2@@V?$allocator@UPoint@Glyph@woff2@@@std@@@std@@AEAAX_KAEBU_Value_init_tag@1@@Z 00000001800d5918     glyph.obj
 0002:00097938       $chain$5$??$_Resize_reallocate@U_Value_init_tag@std@@@?$vector@UPoint@Glyph@woff2@@V?$allocator@UPoint@Glyph@woff2@@@std@@@std@@AEAAX_KAEBU_Value_init_tag@1@@Z 00000001800d5938     glyph.obj
 0002:00097958       $chain$6$??$_Resize_reallocate@U_Value_init_tag@std@@@?$vector@UPoint@Glyph@woff2@@V?$allocator@UPoint@Glyph@woff2@@@std@@@std@@AEAAX_KAEBU_Value_init_tag@1@@Z 00000001800d5958     glyph.obj
 0002:00097968       $unwind$??$_Resize_reallocate@U_Value_init_tag@std@@@?$vector@V?$vector@UPoint@Glyph@woff2@@V?$allocator@UPoint@Glyph@woff2@@@std@@@std@@V?$allocator@V?$vector@UPoint@Glyph@woff2@@V?$allocator@UPoint@Glyph@woff2@@@std@@@std@@@2@@std@@AEAAX_KAEBU_Value_init_tag@1@@Z 00000001800d5968     glyph.obj
 0002:00097974       $chain$4$??$_Resize_reallocate@U_Value_init_tag@std@@@?$vector@V?$vector@UPoint@Glyph@woff2@@V?$allocator@UPoint@Glyph@woff2@@@std@@@std@@V?$allocator@V?$vector@UPoint@Glyph@woff2@@V?$allocator@UPoint@Glyph@woff2@@@std@@@std@@@2@@std@@AEAAX_KAEBU_Value_init_tag@1@@Z 00000001800d5974     glyph.obj
 0002:00097998       $chain$6$??$_Resize_reallocate@U_Value_init_tag@std@@@?$vector@V?$vector@UPoint@Glyph@woff2@@V?$allocator@UPoint@Glyph@woff2@@@std@@@std@@V?$allocator@V?$vector@UPoint@Glyph@woff2@@V?$allocator@UPoint@Glyph@woff2@@@std@@@std@@@2@@std@@AEAAX_KAEBU_Value_init_tag@1@@Z 00000001800d5998     glyph.obj
 0002:000979bc       $chain$7$??$_Resize_reallocate@U_Value_init_tag@std@@@?$vector@V?$vector@UPoint@Glyph@woff2@@V?$allocator@UPoint@Glyph@woff2@@@std@@@std@@V?$allocator@V?$vector@UPoint@Glyph@woff2@@V?$allocator@UPoint@Glyph@woff2@@@std@@@std@@@2@@std@@AEAAX_KAEBU_Value_init_tag@1@@Z 00000001800d59bc     glyph.obj
 0002:000979cc       $unwind$?_Change_array@?$vector@GV?$allocator@G@std@@@std@@AEAAXQEAG_K1@Z 00000001800d59cc     block_splitter.obj
 0002:000979cc       $unwind$?_Change_array@?$vector@HV?$allocator@H@std@@@std@@AEAAXQEAH_K1@Z 00000001800d59cc     block_splitter.obj
 0002:000979cc       $unwind$?_Change_array@?$vector@U?$Histogram@$0BAA@@brotli@@V?$allocator@U?$Histogram@$0BAA@@brotli@@@std@@@std@@AEAAXQEAU?$Histogram@$0BAA@@brotli@@_K1@Z 00000001800d59cc     block_splitter.obj
 0002:000979cc       $unwind$?_Change_array@?$vector@U?$Histogram@$0CAI@@brotli@@V?$allocator@U?$Histogram@$0CAI@@brotli@@@std@@@std@@AEAAXQEAU?$Histogram@$0CAI@@brotli@@_K1@Z 00000001800d59cc     block_splitter.obj
 0002:000979cc       $unwind$?_Change_array@?$vector@U?$Histogram@$0CMA@@brotli@@V?$allocator@U?$Histogram@$0CMA@@brotli@@@std@@@std@@AEAAXQEAU?$Histogram@$0CMA@@brotli@@_K1@Z 00000001800d59cc     block_splitter.obj
 0002:000979cc       $unwind$?WriteBits@brotli@@YAXH_KPEIAHPEIAE@Z 00000001800d59cc     brotli_bit_stream.obj
 0002:000979cc       $unwind$?SetDepth@?A0xbf9879d9@brotli@@YAXAEBUHuffmanTree@12@PEAU312@PEAEH@Z 00000001800d59cc     entropy_encode.obj
 0002:000979cc       $unwind$?resize@?$vector@UFont@woff2@@V?$allocator@UFont@woff2@@@std@@@std@@QEAAX_K@Z 00000001800d59cc     font.obj
 0002:000979cc       $unwind$?_Change_array@?$vector@EV?$allocator@E@std@@@std@@AEAAXQEAE_K1@Z 00000001800d59cc     glyph.obj
 0002:000979cc       $unwind$__scrt_dllmain_exception_filter 00000001800d59cc     LIBCMT:utility.obj
 0002:000979cc       $unwind$?Is_bad_exception_allowed@@YAEPEBU_s_ESTypeList@@@Z 00000001800d59cc     libvcruntime:frame.obj
 0002:000979cc       $unwind$_ischartype_l      00000001800d59cc     libucrt:atox.obj
 0002:000979cc       $unwind$_recalloc_base     00000001800d59cc     libucrt:recalloc.obj
 0002:000979cc       $unwind$__acrt_free_locale 00000001800d59cc     libucrt:locale_refcounting.obj
 0002:000979cc       $unwind$__acrt_lowio_create_handle_array 00000001800d59cc     libucrt:osfinfo.obj
 0002:000979cc       $unwind$?setSBCS@@YAXPEAU__crt_multibyte_data@@@Z 00000001800d59cc     libucrt:mbctype.obj
 0002:000979cc       $unwind$__acrt_show_wide_message_box 00000001800d59cc     libucrt:crtmbox.obj
 0002:000979cc       $unwind$_seh_filter_exe    00000001800d59cc     libucrt:exception_filter.obj
 0002:000979cc       $unwind$_wassert           00000001800d59cc     libucrt:assert.obj
 0002:000979cc       $unwind$_initterm          00000001800d59cc     libucrt:initterm.obj
 0002:000979cc       $unwind$??$ensure_buffer_is_big_enough@D@formatting_buffer@__crt_stdio_output@@QEAA_N_K@Z 00000001800d59cc     libucrt:output.obj
 0002:000979cc       $unwind$??$ensure_buffer_is_big_enough@_W@formatting_buffer@__crt_stdio_output@@QEAA_N_K@Z 00000001800d59cc     libucrt:output.obj
 0002:000979e0       $unwind$?Log2Floor@brotli@@YAHI@Z 00000001800d59e0     backward_references.obj
 0002:000979e0       $unwind$?Log2Floor@woff2@@YAHI@Z 00000001800d59e0     font.obj
 0002:000979ec       $unwind$??1BlockEncoder@brotli@@QEAA@XZ 00000001800d59ec     brotli_bit_stream.obj
 0002:000979ec       $unwind$??1BlockSplitCode@brotli@@QEAA@XZ 00000001800d59ec     brotli_bit_stream.obj
 0002:000979ec       $unwind$??0StaticDictionary@brotli@@QEAA@XZ 00000001800d59ec     encode.obj
 0002:000979ec       $unwind$??1BlockSplit@brotli@@QEAA@XZ 00000001800d59ec     encode.obj
 0002:000979ec       $unwind$??1MetaBlockSplit@brotli@@QEAA@XZ 00000001800d59ec     encode.obj
 0002:000979ec       $unwind$?OutputOrderedTags@Font@woff2@@QEBA?AV?$vector@IV?$allocator@I@std@@@std@@XZ 00000001800d59ec     font.obj
 0002:000979ec       $unwind$?_Buy_raw@?$vector@EV?$allocator@E@std@@@std@@AEAAX_K@Z 00000001800d59ec     font.obj
 0002:000979ec       $unwind$?Write@BrotliMemOut@brotli@@UEAA_NPEBX_K@Z 00000001800d59ec     streams.obj
 0002:000979ec       $unwind$??1GlyfEncoder@?A0x723790ab@woff2@@QEAA@XZ 00000001800d59ec     transform.obj
 0002:000979ec       $unwind$?Write255UShort@woff2@@YAXPEAV?$vector@EV?$allocator@E@std@@@std@@H@Z 00000001800d59ec     variable_length.obj
 0002:000979ec       $unwind$?DloadGetSRWLockFunctionPointers@@YAEXZ 00000001800d59ec     DelayImp:delayhlp.obj
 0002:000979ec       $unwind$_RTC_Initialize    00000001800d59ec     LIBCMT:initsect.obj
 0002:000979ec       $unwind$_RTC_Terminate     00000001800d59ec     LIBCMT:initsect.obj
 0002:000979ec       $unwind$?__scrt_initialize_thread_safe_statics@@YAHXZ 00000001800d59ec     LIBCMT:thread_safe_statics.obj
 0002:000979ec       $unwind$??_Gbad_array_new_length@std@@UEAAPEAXI@Z 00000001800d59ec     LIBCMT:throw_bad_alloc.obj
 0002:000979ec       $unwind$??_Gbad_alloc@std@@UEAAPEAXI@Z 00000001800d59ec     libcpmt:xthrow.obj
 0002:000979ec       $unwind$??_Gexception@std@@UEAAPEAXI@Z 00000001800d59ec     libcpmt:xthrow.obj
 0002:000979ec       $unwind$??_Glength_error@std@@UEAAPEAXI@Z 00000001800d59ec     libcpmt:xthrow.obj
 0002:000979ec       $unwind$??_Glogic_error@std@@UEAAPEAXI@Z 00000001800d59ec     libcpmt:xthrow.obj
 0002:000979ec       $unwind$??_Gout_of_range@std@@UEAAPEAXI@Z 00000001800d59ec     libcpmt:xthrow.obj
 0002:000979ec       $unwind$__FrameUnwindFilter 00000001800d59ec     libvcruntime:ehhelpers.obj
 0002:000979ec       $unwind$??_Gbad_exception@std@@UEAAPEAXI@Z 00000001800d59ec     libvcruntime:frame.obj
 0002:000979ec       $unwind$?ExFilterRethrowFH4@@YAHPEAU_EXCEPTION_POINTERS@@PEAUEHExceptionRecord@@HPEAH@Z 00000001800d59ec     libvcruntime:frame.obj
 0002:000979ec       $unwind$_FindAndUnlinkFrame 00000001800d59ec     libvcruntime:risctrnsctrl.obj
 0002:000979ec       $unwind$__vcrt_FlsSetValue 00000001800d59ec     libvcruntime:winapi_downlevel.obj
 0002:000979ec       $unwind$??$common_initialize_environment_nolock@D@@YAHXZ 00000001800d59ec     libucrt:environment_initialization.obj
 0002:000979ec       $unwind$__acrt_fp_strflt_to_string 00000001800d59ec     libucrt:_fptostr.obj
 0002:000979ec       $unwind$_realloc_base      00000001800d59ec     libucrt:realloc_base.obj
 0002:000979ec       $unwind$?replace_current_thread_locale_nolock@@YAXQEAU__acrt_ptd@@QEAU__crt_locale_data@@@Z 00000001800d59ec     libucrt:per_thread_data.obj
 0002:000979ec       $unwind$__acrt_execute_uninitializers 00000001800d59ec     libucrt:shared_initialization.obj
 0002:000979ec       $unwind$__acrt_FlsSetValue 00000001800d59ec     libucrt:winapi_thunks.obj
 0002:000979ec       $unwind$__acrt_LocaleNameToLCID 00000001800d59ec     libucrt:winapi_thunks.obj
 0002:000979ec       $unwind$__acrt_can_show_message_box 00000001800d59ec     libucrt:winapi_thunks.obj
 0002:000979ec       $unwind$_updatetlocinfoEx_nolock 00000001800d59ec     libucrt:locale_refcounting.obj
 0002:000979ec       $unwind$_close_nolock      00000001800d59ec     libucrt:close.obj
 0002:000979ec       $unwind$__acrt_uninitialize_lowio 00000001800d59ec     libucrt:ioinit.obj
 0002:000979ec       $unwind$__acrt_errno_map_os_error 00000001800d59ec     libucrt:errno.obj
 0002:000979ec       $unwind$_initterm_e        00000001800d59ec     libucrt:initterm.obj
 0002:000979ec       $unwind$__acrt_stdio_allocate_buffer_nolock 00000001800d59ec     libucrt:_getbuf.obj
 0002:000979ec       $unwind$__acrt_stdio_begin_temporary_buffering_nolock 00000001800d59ec     libucrt:_sftbuf.obj
 0002:000979ec       $unwind$_fclose_nolock     00000001800d59ec     libucrt:fclose.obj
 0002:000979ec       $unwind$strncpy_s          00000001800d59ec     libucrt:strncpy_s.obj
 0002:000979ec       $unwind$wcsncat_s          00000001800d59ec     libucrt:wcsncat_s.obj
 0002:000979f8       $unwind$?ReadTrueTypeFont@woff2@@YA_NPEAVBuffer@1@PEBE_KPEAUFont@1@@Z 00000001800d59f8     font.obj
 0002:00097a0c       $chain$2$?ReadTrueTypeFont@woff2@@YA_NPEAVBuffer@1@PEBE_KPEAUFont@1@@Z 00000001800d5a0c     font.obj
 0002:00097a28       $chain$3$?ReadTrueTypeFont@woff2@@YA_NPEAVBuffer@1@PEBE_KPEAUFont@1@@Z 00000001800d5a28     font.obj
 0002:00097a38       $chain$4$?ReadTrueTypeFont@woff2@@YA_NPEAVBuffer@1@PEBE_KPEAUFont@1@@Z 00000001800d5a38     font.obj
 0002:00097a54       $unwind$?ReadCollectionFont@woff2@@YA_NPEAVBuffer@1@PEBE_KPEAUFont@1@PEAV?$map@IPEAUTable@Font@woff2@@U?$less@I@std@@V?$allocator@U?$pair@$$CBIPEAUTable@Font@woff2@@@std@@@5@@std@@@Z 00000001800d5a54     font.obj
 0002:00097a5c       $chain$0$?ReadCollectionFont@woff2@@YA_NPEAVBuffer@1@PEBE_KPEAUFont@1@PEAV?$map@IPEAUTable@Font@woff2@@U?$less@I@std@@V?$allocator@U?$pair@$$CBIPEAUTable@Font@woff2@@@std@@@5@@std@@@Z 00000001800d5a5c     font.obj
 0002:00097a70       $chain$3$?ReadCollectionFont@woff2@@YA_NPEAVBuffer@1@PEBE_KPEAUFont@1@PEAV?$map@IPEAUTable@Font@woff2@@U?$less@I@std@@V?$allocator@U?$pair@$$CBIPEAUTable@Font@woff2@@@std@@@5@@std@@@Z 00000001800d5a70     font.obj
 0002:00097a8c       $chain$4$?ReadCollectionFont@woff2@@YA_NPEAVBuffer@1@PEBE_KPEAUFont@1@PEAV?$map@IPEAUTable@Font@woff2@@U?$less@I@std@@V?$allocator@U?$pair@$$CBIPEAUTable@Font@woff2@@@std@@@5@@std@@@Z 00000001800d5a8c     font.obj
 0002:00097a9c       $chain$5$?ReadCollectionFont@woff2@@YA_NPEAVBuffer@1@PEBE_KPEAUFont@1@PEAV?$map@IPEAUTable@Font@woff2@@U?$less@I@std@@V?$allocator@U?$pair@$$CBIPEAUTable@Font@woff2@@@std@@@5@@std@@@Z 00000001800d5a9c     font.obj
 0002:00097aac       $unwind$?ReadTrueTypeCollection@woff2@@YA_NPEAVBuffer@1@PEBE_KPEAUFontCollection@1@@Z 00000001800d5aac     font.obj
 0002:00097abc       $chain$3$?ReadTrueTypeCollection@woff2@@YA_NPEAVBuffer@1@PEBE_KPEAUFontCollection@1@@Z 00000001800d5abc     font.obj
 0002:00097adc       $chain$4$?ReadTrueTypeCollection@woff2@@YA_NPEAVBuffer@1@PEBE_KPEAUFontCollection@1@@Z 00000001800d5adc     font.obj
 0002:00097adc       $chain$8$?ReadTrueTypeCollection@woff2@@YA_NPEAVBuffer@1@PEBE_KPEAUFontCollection@1@@Z 00000001800d5adc     font.obj
 0002:00097af4       $chain$6$?ReadTrueTypeCollection@woff2@@YA_NPEAVBuffer@1@PEBE_KPEAUFontCollection@1@@Z 00000001800d5af4     font.obj
 0002:00097b14       $chain$7$?ReadTrueTypeCollection@woff2@@YA_NPEAVBuffer@1@PEBE_KPEAUFontCollection@1@@Z 00000001800d5b14     font.obj
 0002:00097b24       $unwind$?GetGlyphData@woff2@@YA_NAEBUFont@1@HPEAPEBEPEA_K@Z 00000001800d5b24     font.obj
 0002:00097b3c       $unwind$??A?$map@HHU?$less@H@std@@V?$allocator@U?$pair@$$CBHH@std@@@2@@std@@QEAAAEAHAEBH@Z 00000001800d5b3c     block_splitter.obj
 0002:00097b3c       $unwind$??A?$map@IPEAUTable@Font@woff2@@U?$less@I@std@@V?$allocator@U?$pair@$$CBIPEAUTable@Font@woff2@@@std@@@5@@std@@QEAAAEAPEAUTable@Font@woff2@@AEBI@Z 00000001800d5b3c     font.obj
 0002:00097b3c       $unwind$??A?$map@IUTable@Font@woff2@@U?$less@I@std@@V?$allocator@U?$pair@$$CBIUTable@Font@woff2@@@std@@@5@@std@@QEAAAEAUTable@Font@woff2@@AEBI@Z 00000001800d5b3c     font.obj
 0002:00097b3c       $unwind$??A?$map@IUTable@Font@woff2@@U?$less@I@std@@V?$allocator@U?$pair@$$CBIUTable@Font@woff2@@@std@@@5@@std@@QEAAAEAUTable@Font@woff2@@$$QEAI@Z 00000001800d5b3c     transform.obj
 0002:00097b3c       $unwind$??A?$map@IGU?$less@I@std@@V?$allocator@U?$pair@$$CBIG@std@@@2@@std@@QEAAAEAGAEBI@Z 00000001800d5b3c     woff2_enc.obj
 0002:00097b3c       $unwind$__dcrt_write_console 00000001800d5b3c     libucrt:initcon.obj
 0002:00097b3c       $unwind$??$__acrt_wcs_to_mbs_cp@U__crt_win32_buffer_no_resizing@@@@YAHQEB_WAEAV?$__crt_win32_buffer@DU__crt_win32_buffer_no_resizing@@@@I@Z 00000001800d5b3c     libucrt:getmodulefilenamea.obj
 0002:00097b50       $unwind$??$_Emplace_reallocate@AEBI@?$vector@IV?$allocator@I@std@@@std@@QEAAPEAIQEAIAEBI@Z 00000001800d5b50     font.obj
 0002:00097b60       $chain$3$??$_Emplace_reallocate@AEBI@?$vector@IV?$allocator@I@std@@@std@@QEAAPEAIQEAIAEBI@Z 00000001800d5b60     font.obj
 0002:00097b80       $chain$5$??$_Emplace_reallocate@AEBI@?$vector@IV?$allocator@I@std@@@std@@QEAAPEAIQEAIAEBI@Z 00000001800d5b80     font.obj
 0002:00097b80       $chain$7$??$_Emplace_reallocate@AEBI@?$vector@IV?$allocator@I@std@@@std@@QEAAPEAIQEAIAEBI@Z 00000001800d5b80     font.obj
 0002:00097ba0       $chain$6$??$_Emplace_reallocate@AEBI@?$vector@IV?$allocator@I@std@@@std@@QEAAPEAIQEAIAEBI@Z 00000001800d5ba0     font.obj
 0002:00097bb0       $unwind$?_Insert_node@?$_Tree_val@U?$_Tree_simple_types@H@std@@@std@@QEAAPEAU?$_Tree_node@HPEAX@2@U?$_Tree_id@PEAU?$_Tree_node@HPEAX@std@@@2@QEAU32@@Z 00000001800d5bb0     block_splitter.obj
 0002:00097bb0       $unwind$?_Insert_node@?$_Tree_val@U?$_Tree_simple_types@U?$pair@$$CBEE@std@@@std@@@std@@QEAAPEAU?$_Tree_node@U?$pair@$$CBEE@std@@PEAX@2@U?$_Tree_id@PEAU?$_Tree_node@U?$pair@$$CBEE@std@@PEAX@std@@@2@QEAU32@@Z 00000001800d5bb0     block_splitter.obj
 0002:00097bb0       $unwind$?_Insert_node@?$_Tree_val@U?$_Tree_simple_types@U?$pair@$$CBHH@std@@@std@@@std@@QEAAPEAU?$_Tree_node@U?$pair@$$CBHH@std@@PEAX@2@U?$_Tree_id@PEAU?$_Tree_node@U?$pair@$$CBHH@std@@PEAX@std@@@2@QEAU32@@Z 00000001800d5bb0     block_splitter.obj
 0002:00097bb0       $unwind$?_Extract@?$_Tree_val@U?$_Tree_simple_types@U?$pair@$$CBIUTable@Font@woff2@@@std@@@std@@@std@@QEAAPEAU?$_Tree_node@U?$pair@$$CBIUTable@Font@woff2@@@std@@PEAX@2@V?$_Tree_unchecked_const_iterator@V?$_Tree_val@U?$_Tree_simple_types@U?$pair@$$CBIUTable@Font@woff2@@@std@@@std@@@std@@U_Iterator_base0@2@@2@@Z 00000001800d5bb0     font.obj
 0002:00097bb0       $unwind$?_Insert_node@?$_Tree_val@U?$_Tree_simple_types@U?$pair@$$CBII@std@@@std@@@std@@QEAAPEAU?$_Tree_node@U?$pair@$$CBII@std@@PEAX@2@U?$_Tree_id@PEAU?$_Tree_node@U?$pair@$$CBII@std@@PEAX@std@@@2@QEAU32@@Z 00000001800d5bb0     font.obj
 0002:00097bb0       $unwind$?_Insert_node@?$_Tree_val@U?$_Tree_simple_types@U?$pair@$$CBIPEAUTable@Font@woff2@@@std@@@std@@@std@@QEAAPEAU?$_Tree_node@U?$pair@$$CBIPEAUTable@Font@woff2@@@std@@PEAX@2@U?$_Tree_id@PEAU?$_Tree_node@U?$pair@$$CBIPEAUTable@Font@woff2@@@std@@PEAX@std@@@2@QEAU32@@Z 00000001800d5bb0     font.obj
 0002:00097bb0       $unwind$?_Insert_node@?$_Tree_val@U?$_Tree_simple_types@U?$pair@$$CBIUTable@Font@woff2@@@std@@@std@@@std@@QEAAPEAU?$_Tree_node@U?$pair@$$CBIUTable@Font@woff2@@@std@@PEAX@2@U?$_Tree_id@PEAU?$_Tree_node@U?$pair@$$CBIUTable@Font@woff2@@@std@@PEAX@std@@@2@QEAU32@@Z 00000001800d5bb0     font.obj
 0002:00097bb0       $unwind$?_Insert_node@?$_Tree_val@U?$_Tree_simple_types@U?$pair@$$CBIG@std@@@std@@@std@@QEAAPEAU?$_Tree_node@U?$pair@$$CBIG@std@@PEAX@2@U?$_Tree_id@PEAU?$_Tree_node@U?$pair@$$CBIG@std@@PEAX@std@@@2@QEAU32@@Z 00000001800d5bb0     woff2_enc.obj
 0002:00097bbc       $unwind$??$_Erase_tree@V?$allocator@U?$_Tree_node@HPEAX@std@@@std@@@?$_Tree_val@U?$_Tree_simple_types@H@std@@@std@@QEAAXAEAV?$allocator@U?$_Tree_node@HPEAX@std@@@1@PEAU?$_Tree_node@HPEAX@1@@Z 00000001800d5bbc     block_splitter.obj
 0002:00097bbc       $unwind$??$_Erase_tree@V?$allocator@U?$_Tree_node@U?$pair@$$CBEE@std@@PEAX@std@@@std@@@?$_Tree_val@U?$_Tree_simple_types@U?$pair@$$CBEE@std@@@std@@@std@@QEAAXAEAV?$allocator@U?$_Tree_node@U?$pair@$$CBEE@std@@PEAX@std@@@1@PEAU?$_Tree_node@U?$pair@$$CBEE@std@@PEAX@1@@Z 00000001800d5bbc     block_splitter.obj
 0002:00097bbc       $unwind$??$_Erase_tree@V?$allocator@U?$_Tree_node@U?$pair@$$CBHH@std@@PEAX@std@@@std@@@?$_Tree_val@U?$_Tree_simple_types@U?$pair@$$CBHH@std@@@std@@@std@@QEAAXAEAV?$allocator@U?$_Tree_node@U?$pair@$$CBHH@std@@PEAX@std@@@1@PEAU?$_Tree_node@U?$pair@$$CBHH@std@@PEAX@1@@Z 00000001800d5bbc     block_splitter.obj
 0002:00097bbc       $unwind$??$_Erase_tree@V?$allocator@U?$_Tree_node@U?$pair@$$CBII@std@@PEAX@std@@@std@@@?$_Tree_val@U?$_Tree_simple_types@U?$pair@$$CBII@std@@@std@@@std@@QEAAXAEAV?$allocator@U?$_Tree_node@U?$pair@$$CBII@std@@PEAX@std@@@1@PEAU?$_Tree_node@U?$pair@$$CBII@std@@PEAX@1@@Z 00000001800d5bbc     font.obj
 0002:00097bbc       $unwind$??$_Erase_tree@V?$allocator@U?$_Tree_node@U?$pair@$$CBIPEAUTable@Font@woff2@@@std@@PEAX@std@@@std@@@?$_Tree_val@U?$_Tree_simple_types@U?$pair@$$CBIPEAUTable@Font@woff2@@@std@@@std@@@std@@QEAAXAEAV?$allocator@U?$_Tree_node@U?$pair@$$CBIPEAUTable@Font@woff2@@@std@@PEAX@std@@@1@PEAU?$_Tree_node@U?$pair@$$CBIPEAUTable@Font@woff2@@@std@@PEAX@1@@Z 00000001800d5bbc     font.obj
 0002:00097bbc       $unwind$??$_Partition_by_median_guess_unchecked@PEAIU?$less@X@std@@@std@@YA?AU?$pair@PEAIPEAI@0@PEAI0U?$less@X@0@@Z 00000001800d5bbc     font.obj
 0002:00097bbc       $unwind$??$_Erase_head@V?$allocator@U?$_Tree_node@U?$pair@$$CBIG@std@@PEAX@std@@@std@@@?$_Tree_val@U?$_Tree_simple_types@U?$pair@$$CBIG@std@@@std@@@std@@QEAAXAEAV?$allocator@U?$_Tree_node@U?$pair@$$CBIG@std@@PEAX@std@@@1@@Z 00000001800d5bbc     woff2_enc.obj
 0002:00097bbc       $unwind$??$_Erase_tree@V?$allocator@U?$_Tree_node@U?$pair@$$CBIG@std@@PEAX@std@@@std@@@?$_Tree_val@U?$_Tree_simple_types@U?$pair@$$CBIG@std@@@std@@@std@@QEAAXAEAV?$allocator@U?$_Tree_node@U?$pair@$$CBIG@std@@PEAX@std@@@1@PEAU?$_Tree_node@U?$pair@$$CBIG@std@@PEAX@1@@Z 00000001800d5bbc     woff2_enc.obj
 0002:00097bbc       $unwind$_DllMainCRTStartup 00000001800d5bbc     LIBCMT:dll_dllmain.obj
 0002:00097bbc       $unwind$__vcrt_getptd_noexit 00000001800d5bbc     libvcruntime:per_thread_data.obj
 0002:00097bbc       $unwind$__vcrt_InitializeCriticalSectionEx 00000001800d5bbc     libvcruntime:winapi_downlevel.obj
 0002:00097bbc       $unwind$memcpy_s           00000001800d5bbc     libucrt:cfout.obj
 0002:00097bbc       $unwind$__acrt_getptd      00000001800d5bbc     libucrt:per_thread_data.obj
 0002:00097bbc       $unwind$__acrt_getptd_noexit 00000001800d5bbc     libucrt:per_thread_data.obj
 0002:00097bbc       $unwind$__acrt_execute_initializers 00000001800d5bbc     libucrt:shared_initialization.obj
 0002:00097bbc       $unwind$__acrt_InitializeCriticalSectionEx 00000001800d5bbc     libucrt:winapi_thunks.obj
 0002:00097bbc       $unwind$?free_crt_array_internal@@YAXQEAPEBX_K@Z 00000001800d5bbc     libucrt:inittime.obj
 0002:00097bbc       $unwind$??$common_lseek_nolock@_J@@YA_JH_JH@Z 00000001800d5bbc     libucrt:lseek.obj
 0002:00097bbc       $unwind$__acrt_stdio_flush_and_write_narrow_nolock 00000001800d5bbc     libucrt:_flsbuf.obj
 0002:00097bbc       $unwind$__acrt_stdio_flush_and_write_wide_nolock 00000001800d5bbc     libucrt:_flsbuf.obj
 0002:00097bbc       $unwind$__acrt_stdio_flush_nolock 00000001800d5bbc     libucrt:fflush.obj
 0002:00097bbc       $unwind$??0_LocaleUpdate@@QEAA@QEAU__crt_locale_pointers@@@Z 00000001800d5bbc     libucrt:output.obj
 0002:00097bbc       $unwind$?type_case_Z@?$output_processor@_WV?$stream_output_adapter@_W@__crt_stdio_output@@V?$standard_base@_WV?$stream_output_adapter@_W@__crt_stdio_output@@@2@@__crt_stdio_output@@AEAA_NXZ 00000001800d5bbc     libucrt:output.obj
 0002:00097bbc       $unwind$?type_case_Z@?$output_processor@_WV?$string_output_adapter@_W@__crt_stdio_output@@V?$standard_base@_WV?$string_output_adapter@_W@__crt_stdio_output@@@2@@__crt_stdio_output@@AEAA_NXZ 00000001800d5bbc     libucrt:output.obj
 0002:00097bbc       $unwind$?type_case_n@?$output_processor@DV?$stream_output_adapter@D@__crt_stdio_output@@V?$standard_base@DV?$stream_output_adapter@D@__crt_stdio_output@@@2@@__crt_stdio_output@@AEAA_NXZ 00000001800d5bbc     libucrt:output.obj
 0002:00097bbc       $unwind$?type_case_n@?$output_processor@_WV?$stream_output_adapter@_W@__crt_stdio_output@@V?$standard_base@_WV?$stream_output_adapter@_W@__crt_stdio_output@@@2@@__crt_stdio_output@@AEAA_NXZ 00000001800d5bbc     libucrt:output.obj
 0002:00097bbc       $unwind$?type_case_n@?$output_processor@_WV?$string_output_adapter@_W@__crt_stdio_output@@V?$standard_base@_WV?$string_output_adapter@_W@__crt_stdio_output@@@2@@__crt_stdio_output@@AEAA_NXZ 00000001800d5bbc     libucrt:output.obj
 0002:00097bbc       $unwind$?type_case_s@?$output_processor@_WV?$stream_output_adapter@_W@__crt_stdio_output@@V?$standard_base@_WV?$stream_output_adapter@_W@__crt_stdio_output@@@2@@__crt_stdio_output@@AEAA_NXZ 00000001800d5bbc     libucrt:output.obj
 0002:00097bbc       $unwind$?type_case_s@?$output_processor@_WV?$string_output_adapter@_W@__crt_stdio_output@@V?$standard_base@_WV?$string_output_adapter@_W@__crt_stdio_output@@@2@@__crt_stdio_output@@AEAA_NXZ 00000001800d5bbc     libucrt:output.obj
 0002:00097bbc       $unwind$??R<lambda_ca71763b3c0644891230e4f79ea54fa6>@@QEBAHXZ 00000001800d5bbc     libucrt:setvbuf.obj
 0002:00097bbc       $unwind$_exception_enabled 00000001800d5bbc     libucrt:libm_error.obj
 0002:00097bcc       $unwind$??$_Resize_reallocate@U_Value_init_tag@std@@@?$vector@UFont@woff2@@V?$allocator@UFont@woff2@@@std@@@std@@AEAAX_KAEBU_Value_init_tag@1@@Z 00000001800d5bcc     font.obj
 0002:00097bd8       $chain$4$??$_Resize_reallocate@U_Value_init_tag@std@@@?$vector@UFont@woff2@@V?$allocator@UFont@woff2@@@std@@@std@@AEAAX_KAEBU_Value_init_tag@1@@Z 00000001800d5bd8     font.obj
 0002:00097bfc       $chain$5$??$_Resize_reallocate@U_Value_init_tag@std@@@?$vector@UFont@woff2@@V?$allocator@UFont@woff2@@@std@@@std@@AEAAX_KAEBU_Value_init_tag@1@@Z 00000001800d5bfc     font.obj
 0002:00097c10       $chain$6$??$_Resize_reallocate@U_Value_init_tag@std@@@?$vector@UFont@woff2@@V?$allocator@UFont@woff2@@@std@@@std@@AEAAX_KAEBU_Value_init_tag@1@@Z 00000001800d5c10     font.obj
 0002:00097c20       $chain$8$??$_Resize_reallocate@U_Value_init_tag@std@@@?$vector@UFont@woff2@@V?$allocator@UFont@woff2@@@std@@@std@@AEAAX_KAEBU_Value_init_tag@1@@Z 00000001800d5c20     font.obj
 0002:00097c44       $chain$9$??$_Resize_reallocate@U_Value_init_tag@std@@@?$vector@UFont@woff2@@V?$allocator@UFont@woff2@@@std@@@std@@AEAAX_KAEBU_Value_init_tag@1@@Z 00000001800d5c44     font.obj
 0002:00097c54       $unwind$??$_Sort_unchecked@PEAIU?$less@X@std@@@std@@YAXPEAI0_JU?$less@X@0@@Z 00000001800d5c54     font.obj
 0002:00097c54       $unwind$??$create_environment@D@@YAQEAPEADQEAD@Z 00000001800d5c54     libucrt:environment_initialization.obj
 0002:00097c6c       $unwind$??$_Guess_median_unchecked@PEAIU?$less@X@std@@@std@@YAXPEAI00U?$less@X@0@@Z 00000001800d5c6c     font.obj
 0002:00097c74       $chain$0$??$_Guess_median_unchecked@PEAIU?$less@X@std@@@std@@YAXPEAI00U?$less@X@0@@Z 00000001800d5c74     font.obj
 0002:00097c88       $chain$1$??$_Guess_median_unchecked@PEAIU?$less@X@std@@@std@@YAXPEAI00U?$less@X@0@@Z 00000001800d5c88     font.obj
 0002:00097c98       $unwind$??$_Erase_tree@V?$allocator@U?$_Tree_node@U?$pair@$$CBIUTable@Font@woff2@@@std@@PEAX@std@@@std@@@?$_Tree_val@U?$_Tree_simple_types@U?$pair@$$CBIUTable@Font@woff2@@@std@@@std@@@std@@QEAAXAEAV?$allocator@U?$_Tree_node@U?$pair@$$CBIUTable@Font@woff2@@@std@@PEAX@std@@@1@PEAU?$_Tree_node@U?$pair@$$CBIUTable@Font@woff2@@@std@@PEAX@1@@Z 00000001800d5c98     font.obj
 0002:00097ca8       $chain$1$??$_Erase_tree@V?$allocator@U?$_Tree_node@U?$pair@$$CBIUTable@Font@woff2@@@std@@PEAX@std@@@std@@@?$_Tree_val@U?$_Tree_simple_types@U?$pair@$$CBIUTable@Font@woff2@@@std@@@std@@@std@@QEAAXAEAV?$allocator@U?$_Tree_node@U?$pair@$$CBIUTable@Font@woff2@@@std@@PEAX@std@@@1@PEAU?$_Tree_node@U?$pair@$$CBIUTable@Font@woff2@@@std@@PEAX@1@@Z 00000001800d5ca8     font.obj
 0002:00097cc0       $chain$2$??$_Erase_tree@V?$allocator@U?$_Tree_node@U?$pair@$$CBIUTable@Font@woff2@@@std@@PEAX@std@@@std@@@?$_Tree_val@U?$_Tree_simple_types@U?$pair@$$CBIUTable@Font@woff2@@@std@@@std@@@std@@QEAAXAEAV?$allocator@U?$_Tree_node@U?$pair@$$CBIUTable@Font@woff2@@@std@@PEAX@std@@@1@PEAU?$_Tree_node@U?$pair@$$CBIUTable@Font@woff2@@@std@@PEAX@1@@Z 00000001800d5cc0     font.obj
 0002:00097cd0       $chain$3$??$_Erase_tree@V?$allocator@U?$_Tree_node@U?$pair@$$CBIUTable@Font@woff2@@@std@@PEAX@std@@@std@@@?$_Tree_val@U?$_Tree_simple_types@U?$pair@$$CBIUTable@Font@woff2@@@std@@@std@@@std@@QEAAXAEAV?$allocator@U?$_Tree_node@U?$pair@$$CBIUTable@Font@woff2@@@std@@PEAX@std@@@1@PEAU?$_Tree_node@U?$pair@$$CBIUTable@Font@woff2@@@std@@PEAX@1@@Z 00000001800d5cd0     font.obj
 0002:00097ce8       $unwind$??$_Copy_nodes@U_Copy_tag@?$_Tree@V?$_Tmap_traits@IUTable@Font@woff2@@U?$less@I@std@@V?$allocator@U?$pair@$$CBIUTable@Font@woff2@@@std@@@5@$0A@@std@@@std@@@?$_Tree@V?$_Tmap_traits@IUTable@Font@woff2@@U?$less@I@std@@V?$allocator@U?$pair@$$CBIUTable@Font@woff2@@@std@@@5@$0A@@std@@@std@@IEAAPEAU?$_Tree_node@U?$pair@$$CBIUTable@Font@woff2@@@std@@PEAX@1@PEAU21@0U_Copy_tag@01@@Z 00000001800d5ce8     font.obj
 0002:00097ce8       $unwind$??$_Copy_nodes@U_Copy_tag@?$_Tree@V?$_Tmap_traits@IGU?$less@I@std@@V?$allocator@U?$pair@$$CBIG@std@@@2@$0A@@std@@@std@@@?$_Tree@V?$_Tmap_traits@IGU?$less@I@std@@V?$allocator@U?$pair@$$CBIG@std@@@2@$0A@@std@@@std@@IEAAPEAU?$_Tree_node@U?$pair@$$CBIG@std@@PEAX@1@PEAU21@0U_Copy_tag@01@@Z 00000001800d5ce8     woff2_enc.obj
 0002:00097cfc       $chain$0$??$_Copy_nodes@U_Copy_tag@?$_Tree@V?$_Tmap_traits@IUTable@Font@woff2@@U?$less@I@std@@V?$allocator@U?$pair@$$CBIUTable@Font@woff2@@@std@@@5@$0A@@std@@@std@@@?$_Tree@V?$_Tmap_traits@IUTable@Font@woff2@@U?$less@I@std@@V?$allocator@U?$pair@$$CBIUTable@Font@woff2@@@std@@@5@$0A@@std@@@std@@IEAAPEAU?$_Tree_node@U?$pair@$$CBIUTable@Font@woff2@@@std@@PEAX@1@PEAU21@0U_Copy_tag@01@@Z 00000001800d5cfc     font.obj
 0002:00097d10       $chain$1$??$_Copy_nodes@U_Copy_tag@?$_Tree@V?$_Tmap_traits@IUTable@Font@woff2@@U?$less@I@std@@V?$allocator@U?$pair@$$CBIUTable@Font@woff2@@@std@@@5@$0A@@std@@@std@@@?$_Tree@V?$_Tmap_traits@IUTable@Font@woff2@@U?$less@I@std@@V?$allocator@U?$pair@$$CBIUTable@Font@woff2@@@std@@@5@$0A@@std@@@std@@IEAAPEAU?$_Tree_node@U?$pair@$$CBIUTable@Font@woff2@@@std@@PEAX@1@PEAU21@0U_Copy_tag@01@@Z 00000001800d5d10     font.obj
 0002:00097d20       $unwind$??0?$vector@EV?$allocator@E@std@@@std@@QEAA@AEBV01@@Z 00000001800d5d20     font.obj
 0002:00097d30       $chain$1$??0?$vector@EV?$allocator@E@std@@@std@@QEAA@AEBV01@@Z 00000001800d5d30     font.obj
 0002:00097d48       $chain$2$??0?$vector@EV?$allocator@E@std@@@std@@QEAA@AEBV01@@Z 00000001800d5d48     font.obj
 0002:00097d58       $unwind$fprintf            00000001800d5d58     normalize.obj
 0002:00097d58       $unwind$fwprintf           00000001800d5d58     libucrt:assert.obj
 0002:00097d64       $unwind$?WriteNormalizedLoca@?A0x1efe2f25@woff2@@YA_NHHPEAUFont@2@@Z 00000001800d5d64     normalize.obj
 0002:00097d7c       $chain$0$?NormalizeGlyphs@woff2@@YA_NPEAUFont@1@@Z 00000001800d5d7c     normalize.obj
 0002:00097d90       $unwind$?_Forced_rehash@?$_Hash@V?$_Umap_traits@IHV?$_Uhash_compare@IU?$hash@I@std@@U?$equal_to@I@2@@std@@V?$allocator@U?$pair@$$CBIH@std@@@2@$0A@@std@@@std@@IEAAX_K@Z 00000001800d5d90     encode.obj
 0002:00097d90       $unwind$?FixChecksums@woff2@@YA_NPEAUFont@1@@Z 00000001800d5d90     normalize.obj
 0002:00097d9c       $chain$2$?FixChecksums@woff2@@YA_NPEAUFont@1@@Z 00000001800d5d9c     normalize.obj
 0002:00097db8       $chain$3$?FixChecksums@woff2@@YA_NPEAUFont@1@@Z 00000001800d5db8     normalize.obj
 0002:00097dd0       $chain$4$?FixChecksums@woff2@@YA_NPEAUFont@1@@Z 00000001800d5dd0     normalize.obj
 0002:00097de0       $unwind$?NormalizeWithoutFixingChecksums@woff2@@YA_NPEAUFont@1@@Z 00000001800d5de0     normalize.obj
 0002:00097df8       $unwind$?NormalizeFontCollection@woff2@@YA_NPEAUFontCollection@1@@Z 00000001800d5df8     normalize.obj
 0002:00097e04       $chain$0$?NormalizeFontCollection@woff2@@YA_NPEAUFontCollection@1@@Z 00000001800d5e04     normalize.obj
 0002:00097e18       $chain$3$?NormalizeFontCollection@woff2@@YA_NPEAUFontCollection@1@@Z 00000001800d5e18     normalize.obj
 0002:00097e34       $chain$4$?NormalizeFontCollection@woff2@@YA_NPEAUFontCollection@1@@Z 00000001800d5e34     normalize.obj
 0002:00097e44       $chain$6$?NormalizeFontCollection@woff2@@YA_NPEAUFontCollection@1@@Z 00000001800d5e44     normalize.obj
 0002:00097e44       $chain$8$?NormalizeFontCollection@woff2@@YA_NPEAUFontCollection@1@@Z 00000001800d5e44     normalize.obj
 0002:00097e64       $unwind$?GetTransformedGlyfBytes@GlyfEncoder@?A0x723790ab@woff2@@QEAAXPEAV?$vector@EV?$allocator@E@std@@@std@@@Z 00000001800d5e64     transform.obj
 0002:00097e78       $unwind$??0BrotliCompressor@brotli@@QEAA@UBrotliParams@1@@Z 00000001800d5e78     encode.obj
 0002:00097e78       $unwind$?WriteSimpleGlyph@GlyfEncoder@?A0x723790ab@woff2@@AEAAXHAEBVGlyph@3@@Z 00000001800d5e78     transform.obj
 0002:00097e94       $unwind$?WriteCompositeGlyph@GlyfEncoder@?A0x723790ab@woff2@@AEAAXHAEBVGlyph@3@@Z 00000001800d5e94     transform.obj
 0002:00097eac       $unwind$?WriteTriplet@GlyfEncoder@?A0x723790ab@woff2@@AEAAX_NHH@Z 00000001800d5eac     transform.obj
 0002:00097ec0       $unwind$?TransformGlyfAndLocaTables@woff2@@YA_NPEAUFont@1@@Z 00000001800d5ec0     transform.obj
 0002:00097ed0       $chain$3$?TransformGlyfAndLocaTables@woff2@@YA_NPEAUFont@1@@Z 00000001800d5ed0     transform.obj
 0002:00097ef0       $chain$5$?TransformGlyfAndLocaTables@woff2@@YA_NPEAUFont@1@@Z 00000001800d5ef0     transform.obj
 0002:00097f10       $unwind$??$emplace_back@AEBE@?$vector@EV?$allocator@E@std@@@std@@QEAAXAEBE@Z 00000001800d5f10     transform.obj
 0002:00097f10       $unwind$??$emplace_back@E@?$vector@EV?$allocator@E@std@@@std@@QEAAX$$QEAE@Z 00000001800d5f10     transform.obj
 0002:00097f1c       $chain$3$??$emplace_back@AEBE@?$vector@EV?$allocator@E@std@@@std@@QEAAXAEBE@Z 00000001800d5f1c     transform.obj
 0002:00097f1c       $chain$3$??$emplace_back@E@?$vector@EV?$allocator@E@std@@@std@@QEAAX$$QEAE@Z 00000001800d5f1c     transform.obj
 0002:00097f3c       $chain$5$??$emplace_back@AEBE@?$vector@EV?$allocator@E@std@@@std@@QEAAXAEBE@Z 00000001800d5f3c     transform.obj
 0002:00097f3c       $chain$5$??$emplace_back@E@?$vector@EV?$allocator@E@std@@@std@@QEAAX$$QEAE@Z 00000001800d5f3c     transform.obj
 0002:00097f54       $chain$6$??$emplace_back@AEBE@?$vector@EV?$allocator@E@std@@@std@@QEAAXAEBE@Z 00000001800d5f54     transform.obj
 0002:00097f54       $chain$6$??$emplace_back@E@?$vector@EV?$allocator@E@std@@@std@@QEAAX$$QEAE@Z 00000001800d5f54     transform.obj
 0002:00097f74       $unwind$?Store255UShort@woff2@@YAXHPEA_KPEAE@Z 00000001800d5f74     variable_length.obj
 0002:00097f88       $unwind$?Compress@?A0x5b9939dd@woff2@@YA_NPEBE_KPEAEPEAIW4Mode@BrotliParams@brotli@@@Z 00000001800d5f88     woff2_enc.obj
 0002:00097fac       $unwind$?StoreTableEntry@?A0x5b9939dd@woff2@@YAXAEBUTable@2@PEA_KPEAE@Z 00000001800d5fac     woff2_enc.obj
 0002:00097fbc       $chain$0$?StoreTableEntry@?A0x5b9939dd@woff2@@YAXAEBUTable@2@PEA_KPEAE@Z 00000001800d5fbc     woff2_enc.obj
 0002:00097fd0       $chain$2$?StoreTableEntry@?A0x5b9939dd@woff2@@YAXAEBUTable@2@PEA_KPEAE@Z 00000001800d5fd0     woff2_enc.obj
 0002:00097fe8       $chain$3$?StoreTableEntry@?A0x5b9939dd@woff2@@YAXAEBUTable@2@PEA_KPEAE@Z 00000001800d5fe8     woff2_enc.obj
 0002:00097ff8       $chain$4$?StoreTableEntry@?A0x5b9939dd@woff2@@YAXAEBUTable@2@PEA_KPEAE@Z 00000001800d5ff8     woff2_enc.obj
 0002:00098008       $unwind$?ComputeWoff2Length@?A0x5b9939dd@woff2@@YA_KAEBUFontCollection@2@AEBV?$vector@UTable@woff2@@V?$allocator@UTable@woff2@@@std@@@std@@V?$map@IGU?$less@I@std@@V?$allocator@U?$pair@$$CBIG@std@@@2@@5@_K@Z 00000001800d6008     woff2_enc.obj
 0002:00098014       $chain$3$?ComputeWoff2Length@?A0x5b9939dd@woff2@@YA_KAEBUFontCollection@2@AEBV?$vector@UTable@woff2@@V?$allocator@UTable@woff2@@@std@@@std@@V?$map@IGU?$less@I@std@@V?$allocator@U?$pair@$$CBIG@std@@@2@@5@_K@Z 00000001800d6014     woff2_enc.obj
 0002:00098034       $chain$4$?ComputeWoff2Length@?A0x5b9939dd@woff2@@YA_KAEBUFontCollection@2@AEBV?$vector@UTable@woff2@@V?$allocator@UTable@woff2@@@std@@@std@@V?$map@IGU?$less@I@std@@V?$allocator@U?$pair@$$CBIG@std@@@2@@5@_K@Z 00000001800d6034     woff2_enc.obj
 0002:00098048       $chain$5$?ComputeWoff2Length@?A0x5b9939dd@woff2@@YA_KAEBUFontCollection@2@AEBV?$vector@UTable@woff2@@V?$allocator@UTable@woff2@@@std@@@std@@V?$map@IGU?$less@I@std@@V?$allocator@U?$pair@$$CBIG@std@@@2@@5@_K@Z 00000001800d6048     woff2_enc.obj
 0002:00098058       $chain$6$?ComputeWoff2Length@?A0x5b9939dd@woff2@@YA_KAEBUFontCollection@2@AEBV?$vector@UTable@woff2@@V?$allocator@UTable@woff2@@@std@@@std@@V?$map@IGU?$less@I@std@@V?$allocator@U?$pair@$$CBIG@std@@@2@@5@_K@Z 00000001800d6058     woff2_enc.obj
 0002:00098068       $unwind$?ConvertTTFToWOFF2@woff2@@YA_NPEBE_KPEAEPEA_KAEBV?$basic_string@DU?$char_traits@D@std@@V?$allocator@D@2@@std@@@Z 00000001800d6068     woff2_enc.obj
 0002:00098080       $unwind$??1?$vector@UFont@woff2@@V?$allocator@UFont@woff2@@@std@@@std@@QEAA@XZ 00000001800d6080     woff2_enc.obj
 0002:0009808c       $chain$0$??1?$vector@UFont@woff2@@V?$allocator@UFont@woff2@@@std@@@std@@QEAA@XZ 00000001800d608c     woff2_enc.obj
 0002:000980a0       $chain$1$??1?$vector@UFont@woff2@@V?$allocator@UFont@woff2@@@std@@@std@@QEAA@XZ 00000001800d60a0     woff2_enc.obj
 0002:000980b4       $chain$2$??1?$vector@UFont@woff2@@V?$allocator@UFont@woff2@@@std@@@std@@QEAA@XZ 00000001800d60b4     woff2_enc.obj
 0002:000980c4       $chain$3$??1?$vector@UFont@woff2@@V?$allocator@UFont@woff2@@@std@@@std@@QEAA@XZ 00000001800d60c4     woff2_enc.obj
 0002:000980d4       $unwind$?assign@?$basic_string@DU?$char_traits@D@std@@V?$allocator@D@2@@std@@QEAAAEAV12@QEBD_K@Z 00000001800d60d4     woff2_enc.obj
 0002:000980e8       $chain$0$?assign@?$basic_string@DU?$char_traits@D@std@@V?$allocator@D@2@@std@@QEAAAEAV12@QEBD_K@Z 00000001800d60e8     woff2_enc.obj
 0002:000980fc       $chain$1$?assign@?$basic_string@DU?$char_traits@D@std@@V?$allocator@D@2@@std@@QEAAAEAV12@QEBD_K@Z 00000001800d60fc     woff2_enc.obj
 0002:000980fc       $chain$3$?assign@?$basic_string@DU?$char_traits@D@std@@V?$allocator@D@2@@std@@QEAAAEAV12@QEBD_K@Z 00000001800d60fc     woff2_enc.obj
 0002:0009810c       $chain$2$?assign@?$basic_string@DU?$char_traits@D@std@@V?$allocator@D@2@@std@@QEAAAEAV12@QEBD_K@Z 00000001800d610c     woff2_enc.obj
 0002:0009810c       $chain$4$?assign@?$basic_string@DU?$char_traits@D@std@@V?$allocator@D@2@@std@@QEAAAEAV12@QEBD_K@Z 00000001800d610c     woff2_enc.obj
 0002:00098120       $unwind$??$_Emplace_reallocate@AEBUTable@woff2@@@?$vector@UTable@woff2@@V?$allocator@UTable@woff2@@@std@@@std@@QEAAPEAUTable@woff2@@QEAU23@AEBU23@@Z 00000001800d6120     woff2_enc.obj
 0002:00098130       $chain$3$??$_Emplace_reallocate@AEBUTable@woff2@@@?$vector@UTable@woff2@@V?$allocator@UTable@woff2@@@std@@@std@@QEAAPEAUTable@woff2@@QEAU23@AEBU23@@Z 00000001800d6130     woff2_enc.obj
 0002:00098150       $chain$5$??$_Emplace_reallocate@AEBUTable@woff2@@@?$vector@UTable@woff2@@V?$allocator@UTable@woff2@@@std@@@std@@QEAAPEAUTable@woff2@@QEAU23@AEBU23@@Z 00000001800d6150     woff2_enc.obj
 0002:00098150       $chain$7$??$_Emplace_reallocate@AEBUTable@woff2@@@?$vector@UTable@woff2@@V?$allocator@UTable@woff2@@@std@@@std@@QEAAPEAUTable@woff2@@QEAU23@AEBU23@@Z 00000001800d6150     woff2_enc.obj
 0002:00098170       $chain$6$??$_Emplace_reallocate@AEBUTable@woff2@@@?$vector@UTable@woff2@@V?$allocator@UTable@woff2@@@std@@@std@@QEAAPEAUTable@woff2@@QEAU23@AEBU23@@Z 00000001800d6170     woff2_enc.obj
 0002:00098180       $chain$0$??$_Copy_nodes@U_Copy_tag@?$_Tree@V?$_Tmap_traits@IGU?$less@I@std@@V?$allocator@U?$pair@$$CBIG@std@@@2@$0A@@std@@@std@@@?$_Tree@V?$_Tmap_traits@IGU?$less@I@std@@V?$allocator@U?$pair@$$CBIG@std@@@2@$0A@@std@@@std@@IEAAPEAU?$_Tree_node@U?$pair@$$CBIG@std@@PEAX@1@PEAU21@0U_Copy_tag@01@@Z 00000001800d6180     woff2_enc.obj
 0002:00098194       $chain$1$??$_Copy_nodes@U_Copy_tag@?$_Tree@V?$_Tmap_traits@IGU?$less@I@std@@V?$allocator@U?$pair@$$CBIG@std@@@2@$0A@@std@@@std@@@?$_Tree@V?$_Tmap_traits@IGU?$less@I@std@@V?$allocator@U?$pair@$$CBIG@std@@@2@$0A@@std@@@std@@IEAAPEAU?$_Tree_node@U?$pair@$$CBIG@std@@PEAX@1@PEAU21@0U_Copy_tag@01@@Z 00000001800d6194     woff2_enc.obj
 0002:000981a4       $unwind$?GetLengthCode@brotli@@YAXHHHPEAGPEA_K@Z 00000001800d61a4     backward_references.obj
 0002:000981bc       $unwind$?CreateBackwardReferences@brotli@@YAX_K0PEBE0PEBM0_KNHPEAUHashers@1@HPEAH5PEAUCommand@1@5@Z 00000001800d61bc     backward_references.obj
 0002:000981c4       $unwind$??$CreateBackwardReferences@V?$HashLongestMatchQuickly@$0BA@$00@brotli@@$0A@$0A@@brotli@@YAX_K0PEBE0PEBM0_KNHPEAV?$HashLongestMatchQuickly@$0BA@$00@0@PEAH5PEAUCommand@0@5@Z 00000001800d61c4     backward_references.obj
 0002:000981d8       $chain$5$??$CreateBackwardReferences@V?$HashLongestMatchQuickly@$0BA@$00@brotli@@$0A@$0A@@brotli@@YAX_K0PEBE0PEBM0_KNHPEAV?$HashLongestMatchQuickly@$0BA@$00@0@PEAH5PEAUCommand@0@5@Z 00000001800d61d8     backward_references.obj
 0002:00098200       $chain$6$??$CreateBackwardReferences@V?$HashLongestMatchQuickly@$0BA@$00@brotli@@$0A@$0A@@brotli@@YAX_K0PEBE0PEBM0_KNHPEAV?$HashLongestMatchQuickly@$0BA@$00@0@PEAH5PEAUCommand@0@5@Z 00000001800d6200     backward_references.obj
 0002:00098210       $unwind$??$CreateBackwardReferences@V?$HashLongestMatchQuickly@$0BB@$03@brotli@@$0A@$0A@@brotli@@YAX_K0PEBE0PEBM0_KNHPEAV?$HashLongestMatchQuickly@$0BB@$03@0@PEAH5PEAUCommand@0@5@Z 00000001800d6210     backward_references.obj
 0002:00098224       $chain$5$??$CreateBackwardReferences@V?$HashLongestMatchQuickly@$0BB@$03@brotli@@$0A@$0A@@brotli@@YAX_K0PEBE0PEBM0_KNHPEAV?$HashLongestMatchQuickly@$0BB@$03@0@PEAH5PEAUCommand@0@5@Z 00000001800d6224     backward_references.obj
 0002:0009824c       $chain$6$??$CreateBackwardReferences@V?$HashLongestMatchQuickly@$0BB@$03@brotli@@$0A@$0A@@brotli@@YAX_K0PEBE0PEBM0_KNHPEAV?$HashLongestMatchQuickly@$0BB@$03@0@PEAH5PEAUCommand@0@5@Z 00000001800d624c     backward_references.obj
 0002:0009825c       $unwind$??$CreateBackwardReferences@V?$HashLongestMatch@$0O@$03$03$03$0A@$0A@@brotli@@$0A@$0A@@brotli@@YAX_K0PEBE0PEBM0_KNHPEAV?$HashLongestMatch@$0O@$03$03$03$0A@$0A@@0@PEAH5PEAUCommand@0@5@Z 00000001800d625c     backward_references.obj
 0002:0009825c       $unwind$??$CreateBackwardReferences@V?$HashLongestMatch@$0O@$04$03$03$0A@$0A@@brotli@@$0A@$0A@@brotli@@YAX_K0PEBE0PEBM0_KNHPEAV?$HashLongestMatch@$0O@$04$03$03$0A@$0A@@0@PEAH5PEAUCommand@0@5@Z 00000001800d625c     backward_references.obj
 0002:0009825c       $unwind$??$CreateBackwardReferences@V?$HashLongestMatch@$0P@$05$03$09$0A@$0A@@brotli@@$0A@$0A@@brotli@@YAX_K0PEBE0PEBM0_KNHPEAV?$HashLongestMatch@$0P@$05$03$09$0A@$0A@@0@PEAH5PEAUCommand@0@5@Z 00000001800d625c     backward_references.obj
 0002:0009825c       $unwind$??$CreateBackwardReferences@V?$HashLongestMatch@$0P@$06$03$09$0A@$0A@@brotli@@$0A@$0A@@brotli@@YAX_K0PEBE0PEBM0_KNHPEAV?$HashLongestMatch@$0P@$06$03$09$0A@$0A@@0@PEAH5PEAUCommand@0@5@Z 00000001800d625c     backward_references.obj
 0002:0009825c       $unwind$??$CreateBackwardReferences@V?$HashLongestMatch@$0P@$07$03$0BA@$0A@$0A@@brotli@@$0A@$0A@@brotli@@YAX_K0PEBE0PEBM0_KNHPEAV?$HashLongestMatch@$0P@$07$03$0BA@$0A@$0A@@0@PEAH5PEAUCommand@0@5@Z 00000001800d625c     backward_references.obj
 0002:00098274       $chain$4$??$CreateBackwardReferences@V?$HashLongestMatch@$0O@$03$03$03$0A@$0A@@brotli@@$0A@$0A@@brotli@@YAX_K0PEBE0PEBM0_KNHPEAV?$HashLongestMatch@$0O@$03$03$03$0A@$0A@@0@PEAH5PEAUCommand@0@5@Z 00000001800d6274     backward_references.obj
 0002:00098298       $chain$5$??$CreateBackwardReferences@V?$HashLongestMatch@$0O@$03$03$03$0A@$0A@@brotli@@$0A@$0A@@brotli@@YAX_K0PEBE0PEBM0_KNHPEAV?$HashLongestMatch@$0O@$03$03$03$0A@$0A@@0@PEAH5PEAUCommand@0@5@Z 00000001800d6298     backward_references.obj
 0002:000982a8       $chain$4$??$CreateBackwardReferences@V?$HashLongestMatch@$0O@$04$03$03$0A@$0A@@brotli@@$0A@$0A@@brotli@@YAX_K0PEBE0PEBM0_KNHPEAV?$HashLongestMatch@$0O@$04$03$03$0A@$0A@@0@PEAH5PEAUCommand@0@5@Z 00000001800d62a8     backward_references.obj
 0002:000982cc       $chain$5$??$CreateBackwardReferences@V?$HashLongestMatch@$0O@$04$03$03$0A@$0A@@brotli@@$0A@$0A@@brotli@@YAX_K0PEBE0PEBM0_KNHPEAV?$HashLongestMatch@$0O@$04$03$03$0A@$0A@@0@PEAH5PEAUCommand@0@5@Z 00000001800d62cc     backward_references.obj
 0002:000982dc       $chain$4$??$CreateBackwardReferences@V?$HashLongestMatch@$0P@$05$03$09$0A@$0A@@brotli@@$0A@$0A@@brotli@@YAX_K0PEBE0PEBM0_KNHPEAV?$HashLongestMatch@$0P@$05$03$09$0A@$0A@@0@PEAH5PEAUCommand@0@5@Z 00000001800d62dc     backward_references.obj
 0002:00098300       $chain$5$??$CreateBackwardReferences@V?$HashLongestMatch@$0P@$05$03$09$0A@$0A@@brotli@@$0A@$0A@@brotli@@YAX_K0PEBE0PEBM0_KNHPEAV?$HashLongestMatch@$0P@$05$03$09$0A@$0A@@0@PEAH5PEAUCommand@0@5@Z 00000001800d6300     backward_references.obj
 0002:00098310       $chain$4$??$CreateBackwardReferences@V?$HashLongestMatch@$0P@$06$03$09$0A@$0A@@brotli@@$0A@$0A@@brotli@@YAX_K0PEBE0PEBM0_KNHPEAV?$HashLongestMatch@$0P@$06$03$09$0A@$0A@@0@PEAH5PEAUCommand@0@5@Z 00000001800d6310     backward_references.obj
 0002:00098334       $chain$5$??$CreateBackwardReferences@V?$HashLongestMatch@$0P@$06$03$09$0A@$0A@@brotli@@$0A@$0A@@brotli@@YAX_K0PEBE0PEBM0_KNHPEAV?$HashLongestMatch@$0P@$06$03$09$0A@$0A@@0@PEAH5PEAUCommand@0@5@Z 00000001800d6334     backward_references.obj
 0002:00098344       $chain$4$??$CreateBackwardReferences@V?$HashLongestMatch@$0P@$07$03$0BA@$0A@$0A@@brotli@@$0A@$0A@@brotli@@YAX_K0PEBE0PEBM0_KNHPEAV?$HashLongestMatch@$0P@$07$03$0BA@$0A@$0A@@0@PEAH5PEAUCommand@0@5@Z 00000001800d6344     backward_references.obj
 0002:00098368       $chain$5$??$CreateBackwardReferences@V?$HashLongestMatch@$0P@$07$03$0BA@$0A@$0A@@brotli@@$0A@$0A@@brotli@@YAX_K0PEBE0PEBM0_KNHPEAV?$HashLongestMatch@$0P@$07$03$0BA@$0A@$0A@@0@PEAH5PEAUCommand@0@5@Z 00000001800d6368     backward_references.obj
 0002:00098378       $unwind$??$CreateBackwardReferences@V?$HashLongestMatch@$0P@$07$03$0BA@$00$00@brotli@@$00$00@brotli@@YAX_K0PEBE0PEBM0_KNHPEAV?$HashLongestMatch@$0P@$07$03$0BA@$00$00@0@PEAH5PEAUCommand@0@5@Z 00000001800d6378     backward_references.obj
 0002:000983a4       $chain$6$??$CreateBackwardReferences@V?$HashLongestMatch@$0P@$07$03$0BA@$00$00@brotli@@$00$00@brotli@@YAX_K0PEBE0PEBM0_KNHPEAV?$HashLongestMatch@$0P@$07$03$0BA@$00$00@0@PEAH5PEAUCommand@0@5@Z 00000001800d63a4     backward_references.obj
 0002:000983d0       $chain$7$??$CreateBackwardReferences@V?$HashLongestMatch@$0P@$07$03$0BA@$00$00@brotli@@$00$00@brotli@@YAX_K0PEBE0PEBM0_KNHPEAV?$HashLongestMatch@$0P@$07$03$0BA@$00$00@0@PEAH5PEAUCommand@0@5@Z 00000001800d63d0     backward_references.obj
 0002:000983e0       $unwind$??$CreateBackwardReferences@V?$HashLongestMatch@$0P@$07$01$0BA@$00$0A@@brotli@@$00$0A@@brotli@@YAX_K0PEBE0PEBM0_KNHPEAV?$HashLongestMatch@$0P@$07$01$0BA@$00$0A@@0@PEAH5PEAUCommand@0@5@Z 00000001800d63e0     backward_references.obj
 0002:00098408       $chain$6$??$CreateBackwardReferences@V?$HashLongestMatch@$0P@$07$01$0BA@$00$0A@@brotli@@$00$0A@@brotli@@YAX_K0PEBE0PEBM0_KNHPEAV?$HashLongestMatch@$0P@$07$01$0BA@$00$0A@@0@PEAH5PEAUCommand@0@5@Z 00000001800d6408     backward_references.obj
 0002:00098434       $chain$7$??$CreateBackwardReferences@V?$HashLongestMatch@$0P@$07$01$0BA@$00$0A@@brotli@@$00$0A@@brotli@@YAX_K0PEBE0PEBM0_KNHPEAV?$HashLongestMatch@$0P@$07$01$0BA@$00$0A@@0@PEAH5PEAUCommand@0@5@Z 00000001800d6434     backward_references.obj
 0002:00098444       $unwind$?FindLongestMatch@?$HashLongestMatch@$0P@$07$01$0BA@$00$0A@@brotli@@QEAA_NPEIBE_KPEIBM1NPEIBHIIIPEIAH44PEIAN@Z 00000001800d6444     backward_references.obj
 0002:0009846c       $chain$0$?FindLongestMatch@?$HashLongestMatch@$0P@$07$01$0BA@$00$0A@@brotli@@QEAA_NPEIBE_KPEIBM1NPEIBHIIIPEIAH44PEIAN@Z 00000001800d646c     backward_references.obj
 0002:00098480       $chain$2$?FindLongestMatch@?$HashLongestMatch@$0P@$07$01$0BA@$00$0A@@brotli@@QEAA_NPEIBE_KPEIBM1NPEIBHIIIPEIAH44PEIAN@Z 00000001800d6480     backward_references.obj
 0002:00098498       $chain$4$?FindLongestMatch@?$HashLongestMatch@$0P@$07$01$0BA@$00$0A@@brotli@@QEAA_NPEIBE_KPEIBM1NPEIBHIIIPEIAH44PEIAN@Z 00000001800d6498     backward_references.obj
 0002:000984b0       $chain$5$?FindLongestMatch@?$HashLongestMatch@$0P@$07$01$0BA@$00$0A@@brotli@@QEAA_NPEIBE_KPEIBM1NPEIBHIIIPEIAH44PEIAN@Z 00000001800d64b0     backward_references.obj
 0002:000984c0       $chain$6$?FindLongestMatch@?$HashLongestMatch@$0P@$07$01$0BA@$00$0A@@brotli@@QEAA_NPEIBE_KPEIBM1NPEIBHIIIPEIAH44PEIAN@Z 00000001800d64c0     backward_references.obj
 0002:000984d8       $chain$7$?FindLongestMatch@?$HashLongestMatch@$0P@$07$01$0BA@$00$0A@@brotli@@QEAA_NPEIBE_KPEIBM1NPEIBHIIIPEIAH44PEIAN@Z 00000001800d64d8     backward_references.obj
 0002:000984ec       $chain$8$?FindLongestMatch@?$HashLongestMatch@$0P@$07$01$0BA@$00$0A@@brotli@@QEAA_NPEIBE_KPEIBM1NPEIBHIIIPEIAH44PEIAN@Z 00000001800d64ec     backward_references.obj
 0002:00098504       $chain$9$?FindLongestMatch@?$HashLongestMatch@$0P@$07$01$0BA@$00$0A@@brotli@@QEAA_NPEIBE_KPEIBM1NPEIBHIIIPEIAH44PEIAN@Z 00000001800d6504     backward_references.obj
 0002:00098518       $unwind$?FindLongestMatch@?$HashLongestMatch@$0P@$07$03$0BA@$00$00@brotli@@QEAA_NPEIBE_KPEIBM1NPEIBHIIIPEIAH44PEIAN@Z 00000001800d6518     backward_references.obj
 0002:0009854c       $chain$0$?FindLongestMatch@?$HashLongestMatch@$0P@$07$03$0BA@$00$00@brotli@@QEAA_NPEIBE_KPEIBM1NPEIBHIIIPEIAH44PEIAN@Z 00000001800d654c     backward_references.obj
 0002:00098560       $unwind$?FindLongestMatch@?$HashLongestMatch@$0P@$07$03$0BA@$0A@$0A@@brotli@@QEAA_NPEIBE_KPEIBM1NPEIBHIIIPEIAH44PEIAN@Z 00000001800d6560     backward_references.obj
 0002:00098584       $chain$2$?FindLongestMatch@?$HashLongestMatch@$0P@$07$03$0BA@$0A@$0A@@brotli@@QEAA_NPEIBE_KPEIBM1NPEIBHIIIPEIAH44PEIAN@Z 00000001800d6584     backward_references.obj
 0002:0009859c       $chain$3$?FindLongestMatch@?$HashLongestMatch@$0P@$07$03$0BA@$0A@$0A@@brotli@@QEAA_NPEIBE_KPEIBM1NPEIBHIIIPEIAH44PEIAN@Z 00000001800d659c     backward_references.obj
 0002:000985b0       $chain$4$?FindLongestMatch@?$HashLongestMatch@$0P@$07$03$0BA@$0A@$0A@@brotli@@QEAA_NPEIBE_KPEIBM1NPEIBHIIIPEIAH44PEIAN@Z 00000001800d65b0     backward_references.obj
 0002:000985c4       $unwind$?FindLongestMatch@?$HashLongestMatch@$0P@$05$03$09$0A@$0A@@brotli@@QEAA_NPEIBE_KPEIBM1NPEIBHIIIPEIAH44PEIAN@Z 00000001800d65c4     backward_references.obj
 0002:000985c4       $unwind$?FindLongestMatch@?$HashLongestMatch@$0P@$06$03$09$0A@$0A@@brotli@@QEAA_NPEIBE_KPEIBM1NPEIBHIIIPEIAH44PEIAN@Z 00000001800d65c4     backward_references.obj
 0002:000985e8       $chain$1$?FindLongestMatch@?$HashLongestMatch@$0P@$06$03$09$0A@$0A@@brotli@@QEAA_NPEIBE_KPEIBM1NPEIBHIIIPEIAH44PEIAN@Z 00000001800d65e8     backward_references.obj
 0002:000985fc       $chain$2$?FindLongestMatch@?$HashLongestMatch@$0P@$06$03$09$0A@$0A@@brotli@@QEAA_NPEIBE_KPEIBM1NPEIBHIIIPEIAH44PEIAN@Z 00000001800d65fc     backward_references.obj
 0002:00098610       $chain$3$?FindLongestMatch@?$HashLongestMatch@$0P@$06$03$09$0A@$0A@@brotli@@QEAA_NPEIBE_KPEIBM1NPEIBHIIIPEIAH44PEIAN@Z 00000001800d6610     backward_references.obj
 0002:00098624       $chain$1$?FindLongestMatch@?$HashLongestMatch@$0P@$05$03$09$0A@$0A@@brotli@@QEAA_NPEIBE_KPEIBM1NPEIBHIIIPEIAH44PEIAN@Z 00000001800d6624     backward_references.obj
 0002:00098638       $chain$2$?FindLongestMatch@?$HashLongestMatch@$0P@$05$03$09$0A@$0A@@brotli@@QEAA_NPEIBE_KPEIBM1NPEIBHIIIPEIAH44PEIAN@Z 00000001800d6638     backward_references.obj
 0002:0009864c       $chain$3$?FindLongestMatch@?$HashLongestMatch@$0P@$05$03$09$0A@$0A@@brotli@@QEAA_NPEIBE_KPEIBM1NPEIBHIIIPEIAH44PEIAN@Z 00000001800d664c     backward_references.obj
 0002:00098660       $unwind$?FindLongestMatch@?$HashLongestMatch@$0O@$03$03$03$0A@$0A@@brotli@@QEAA_NPEIBE_KPEIBM1NPEIBHIIIPEIAH44PEIAN@Z 00000001800d6660     backward_references.obj
 0002:00098660       $unwind$?FindLongestMatch@?$HashLongestMatch@$0O@$04$03$03$0A@$0A@@brotli@@QEAA_NPEIBE_KPEIBM1NPEIBHIIIPEIAH44PEIAN@Z 00000001800d6660     backward_references.obj
 0002:00098684       $chain$0$?FindLongestMatch@?$HashLongestMatch@$0O@$04$03$03$0A@$0A@@brotli@@QEAA_NPEIBE_KPEIBM1NPEIBHIIIPEIAH44PEIAN@Z 00000001800d6684     backward_references.obj
 0002:00098698       $chain$1$?FindLongestMatch@?$HashLongestMatch@$0O@$04$03$03$0A@$0A@@brotli@@QEAA_NPEIBE_KPEIBM1NPEIBHIIIPEIAH44PEIAN@Z 00000001800d6698     backward_references.obj
 0002:000986ac       $chain$2$?FindLongestMatch@?$HashLongestMatch@$0O@$04$03$03$0A@$0A@@brotli@@QEAA_NPEIBE_KPEIBM1NPEIBHIIIPEIAH44PEIAN@Z 00000001800d66ac     backward_references.obj
 0002:000986c0       $chain$0$?FindLongestMatch@?$HashLongestMatch@$0O@$03$03$03$0A@$0A@@brotli@@QEAA_NPEIBE_KPEIBM1NPEIBHIIIPEIAH44PEIAN@Z 00000001800d66c0     backward_references.obj
 0002:000986d4       $chain$1$?FindLongestMatch@?$HashLongestMatch@$0O@$03$03$03$0A@$0A@@brotli@@QEAA_NPEIBE_KPEIBM1NPEIBHIIIPEIAH44PEIAN@Z 00000001800d66d4     backward_references.obj
 0002:000986e8       $chain$2$?FindLongestMatch@?$HashLongestMatch@$0O@$03$03$03$0A@$0A@@brotli@@QEAA_NPEIBE_KPEIBM1NPEIBHIIIPEIAH44PEIAN@Z 00000001800d66e8     backward_references.obj
 0002:000986fc       $unwind$?FindLongestMatch@?$HashLongestMatchQuickly@$0BB@$03@brotli@@QEAA_NPEIBE_KPEIBM1NPEIBHIIIPEIAH44PEIAN@Z 00000001800d66fc     backward_references.obj
 0002:0009871c       $chain$1$?FindLongestMatch@?$HashLongestMatchQuickly@$0BB@$03@brotli@@QEAA_NPEIBE_KPEIBM1NPEIBHIIIPEIAH44PEIAN@Z 00000001800d671c     backward_references.obj
 0002:00098734       $chain$2$?FindLongestMatch@?$HashLongestMatchQuickly@$0BB@$03@brotli@@QEAA_NPEIBE_KPEIBM1NPEIBHIIIPEIAH44PEIAN@Z 00000001800d6734     backward_references.obj
 0002:00098748       $chain$3$?FindLongestMatch@?$HashLongestMatchQuickly@$0BB@$03@brotli@@QEAA_NPEIBE_KPEIBM1NPEIBHIIIPEIAH44PEIAN@Z 00000001800d6748     backward_references.obj
 0002:0009875c       $unwind$?FindLongestMatch@?$HashLongestMatchQuickly@$0BA@$00@brotli@@QEAA_NPEIBE_KPEIBM1NPEIBHIIIPEIAH44PEIAN@Z 00000001800d675c     backward_references.obj
 0002:00098778       $chain$0$?FindLongestMatch@?$HashLongestMatchQuickly@$0BA@$00@brotli@@QEAA_NPEIBE_KPEIBM1NPEIBHIIIPEIAH44PEIAN@Z 00000001800d6778     backward_references.obj
 0002:0009878c       $chain$1$?FindLongestMatch@?$HashLongestMatchQuickly@$0BA@$00@brotli@@QEAA_NPEIBE_KPEIBM1NPEIBHIIIPEIAH44PEIAN@Z 00000001800d678c     backward_references.obj
 0002:0009879c       $unwind$?HuffmanBitCost@brotli@@YAHPEBEH@Z 00000001800d679c     block_splitter.obj
 0002:000987bc       $unwind$?ClusterCostDiff@brotli@@YANHH@Z 00000001800d67bc     block_splitter.obj
 0002:000987e0       $unwind$?BitCost@brotli@@YAMHH@Z 00000001800d67e0     block_splitter.obj
 0002:000987f0       $unwind$?RemapBlockIds@brotli@@YAHPEAE_K@Z 00000001800d67f0     block_splitter.obj
 0002:0009880c       $unwind$?BuildBlockSplit@brotli@@YAXAEBV?$vector@EV?$allocator@E@std@@@std@@PEAUBlockSplit@1@@Z 00000001800d680c     block_splitter.obj
 0002:0009881c       $chain$0$?BuildBlockSplit@brotli@@YAXAEBV?$vector@EV?$allocator@E@std@@@std@@PEAUBlockSplit@1@@Z 00000001800d681c     block_splitter.obj
 0002:00098830       $chain$1$?BuildBlockSplit@brotli@@YAXAEBV?$vector@EV?$allocator@E@std@@@std@@PEAUBlockSplit@1@@Z 00000001800d6830     block_splitter.obj
 0002:00098840       $unwind$?SplitBlock@brotli@@YAXPEBUCommand@1@_KPEBEPEAUBlockSplit@1@33@Z 00000001800d6840     block_splitter.obj
 0002:0009884c       $chain$6$?SplitBlock@brotli@@YAXPEBUCommand@1@_KPEBEPEAUBlockSplit@1@33@Z 00000001800d684c     block_splitter.obj
 0002:00098878       $chain$7$?SplitBlock@brotli@@YAXPEBUCommand@1@_KPEBEPEAUBlockSplit@1@33@Z 00000001800d6878     block_splitter.obj
 0002:00098888       $unwind$??A?$map@EEU?$less@E@std@@V?$allocator@U?$pair@$$CBEE@std@@@2@@std@@QEAAAEAEAEBE@Z 00000001800d6888     block_splitter.obj
 0002:00098888       $unwind$?x_ismbbtype_l@@YAHPEAU__crt_locale_pointers@@IHH@Z 00000001800d6888     libucrt:ismbbyte.obj
 0002:00098898       $unwind$?push_back@?$vector@HV?$allocator@H@std@@@std@@QEAAX$$QEAH@Z 00000001800d6898     block_splitter.obj
 0002:00098898       $unwind$?push_back@?$vector@HV?$allocator@H@std@@@std@@QEAAXAEBH@Z 00000001800d6898     block_splitter.obj
 0002:000988a4       $chain$3$?push_back@?$vector@HV?$allocator@H@std@@@std@@QEAAX$$QEAH@Z 00000001800d68a4     block_splitter.obj
 0002:000988a4       $chain$3$?push_back@?$vector@HV?$allocator@H@std@@@std@@QEAAXAEBH@Z 00000001800d68a4     block_splitter.obj
 0002:000988c4       $chain$5$?push_back@?$vector@HV?$allocator@H@std@@@std@@QEAAX$$QEAH@Z 00000001800d68c4     block_splitter.obj
 0002:000988c4       $chain$5$?push_back@?$vector@HV?$allocator@H@std@@@std@@QEAAXAEBH@Z 00000001800d68c4     block_splitter.obj
 0002:000988dc       $unwind$??$SplitByteVector@U?$Histogram@$0BAA@@brotli@@E@brotli@@YAXAEBV?$vector@EV?$allocator@E@std@@@std@@HHHNPEAUBlockSplit@0@@Z 00000001800d68dc     block_splitter.obj
 0002:000988f4       $chain$0$??$SplitByteVector@U?$Histogram@$0BAA@@brotli@@E@brotli@@YAXAEBV?$vector@EV?$allocator@E@std@@@std@@HHHNPEAUBlockSplit@0@@Z 00000001800d68f4     block_splitter.obj
 0002:00098908       $chain$3$??$SplitByteVector@U?$Histogram@$0BAA@@brotli@@E@brotli@@YAXAEBV?$vector@EV?$allocator@E@std@@@std@@HHHNPEAUBlockSplit@0@@Z 00000001800d6908     block_splitter.obj
 0002:00098924       $chain$4$??$SplitByteVector@U?$Histogram@$0BAA@@brotli@@E@brotli@@YAXAEBV?$vector@EV?$allocator@E@std@@@std@@HHHNPEAUBlockSplit@0@@Z 00000001800d6924     block_splitter.obj
 0002:00098938       $chain$5$??$SplitByteVector@U?$Histogram@$0BAA@@brotli@@E@brotli@@YAXAEBV?$vector@EV?$allocator@E@std@@@std@@HHHNPEAUBlockSplit@0@@Z 00000001800d6938     block_splitter.obj
 0002:00098948       $chain$6$??$SplitByteVector@U?$Histogram@$0BAA@@brotli@@E@brotli@@YAXAEBV?$vector@EV?$allocator@E@std@@@std@@HHHNPEAUBlockSplit@0@@Z 00000001800d6948     block_splitter.obj
 0002:00098958       $chain$7$??$SplitByteVector@U?$Histogram@$0BAA@@brotli@@E@brotli@@YAXAEBV?$vector@EV?$allocator@E@std@@@std@@HHHNPEAUBlockSplit@0@@Z 00000001800d6958     block_splitter.obj
 0002:00098968       $chain$8$??$SplitByteVector@U?$Histogram@$0BAA@@brotli@@E@brotli@@YAXAEBV?$vector@EV?$allocator@E@std@@@std@@HHHNPEAUBlockSplit@0@@Z 00000001800d6968     block_splitter.obj
 0002:00098988       $unwind$??$SplitByteVector@U?$Histogram@$0CMA@@brotli@@G@brotli@@YAXAEBV?$vector@GV?$allocator@G@std@@@std@@HHHNPEAUBlockSplit@0@@Z 00000001800d6988     block_splitter.obj
 0002:000989a0       $chain$0$??$SplitByteVector@U?$Histogram@$0CMA@@brotli@@G@brotli@@YAXAEBV?$vector@GV?$allocator@G@std@@@std@@HHHNPEAUBlockSplit@0@@Z 00000001800d69a0     block_splitter.obj
 0002:000989b4       $chain$3$??$SplitByteVector@U?$Histogram@$0CMA@@brotli@@G@brotli@@YAXAEBV?$vector@GV?$allocator@G@std@@@std@@HHHNPEAUBlockSplit@0@@Z 00000001800d69b4     block_splitter.obj
 0002:000989d0       $chain$4$??$SplitByteVector@U?$Histogram@$0CMA@@brotli@@G@brotli@@YAXAEBV?$vector@GV?$allocator@G@std@@@std@@HHHNPEAUBlockSplit@0@@Z 00000001800d69d0     block_splitter.obj
 0002:000989e4       $chain$5$??$SplitByteVector@U?$Histogram@$0CMA@@brotli@@G@brotli@@YAXAEBV?$vector@GV?$allocator@G@std@@@std@@HHHNPEAUBlockSplit@0@@Z 00000001800d69e4     block_splitter.obj
 0002:000989f4       $chain$6$??$SplitByteVector@U?$Histogram@$0CMA@@brotli@@G@brotli@@YAXAEBV?$vector@GV?$allocator@G@std@@@std@@HHHNPEAUBlockSplit@0@@Z 00000001800d69f4     block_splitter.obj
 0002:00098a04       $chain$7$??$SplitByteVector@U?$Histogram@$0CMA@@brotli@@G@brotli@@YAXAEBV?$vector@GV?$allocator@G@std@@@std@@HHHNPEAUBlockSplit@0@@Z 00000001800d6a04     block_splitter.obj
 0002:00098a14       $chain$8$??$SplitByteVector@U?$Histogram@$0CMA@@brotli@@G@brotli@@YAXAEBV?$vector@GV?$allocator@G@std@@@std@@HHHNPEAUBlockSplit@0@@Z 00000001800d6a14     block_splitter.obj
 0002:00098a34       $unwind$??$SplitByteVector@U?$Histogram@$0CAI@@brotli@@E@brotli@@YAXAEBV?$vector@EV?$allocator@E@std@@@std@@HHHNPEAUBlockSplit@0@@Z 00000001800d6a34     block_splitter.obj
 0002:00098a4c       $chain$0$??$SplitByteVector@U?$Histogram@$0CAI@@brotli@@E@brotli@@YAXAEBV?$vector@EV?$allocator@E@std@@@std@@HHHNPEAUBlockSplit@0@@Z 00000001800d6a4c     block_splitter.obj
 0002:00098a60       $chain$3$??$SplitByteVector@U?$Histogram@$0CAI@@brotli@@E@brotli@@YAXAEBV?$vector@EV?$allocator@E@std@@@std@@HHHNPEAUBlockSplit@0@@Z 00000001800d6a60     block_splitter.obj
 0002:00098a7c       $chain$4$??$SplitByteVector@U?$Histogram@$0CAI@@brotli@@E@brotli@@YAXAEBV?$vector@EV?$allocator@E@std@@@std@@HHHNPEAUBlockSplit@0@@Z 00000001800d6a7c     block_splitter.obj
 0002:00098a90       $chain$5$??$SplitByteVector@U?$Histogram@$0CAI@@brotli@@E@brotli@@YAXAEBV?$vector@EV?$allocator@E@std@@@std@@HHHNPEAUBlockSplit@0@@Z 00000001800d6a90     block_splitter.obj
 0002:00098aa0       $chain$6$??$SplitByteVector@U?$Histogram@$0CAI@@brotli@@E@brotli@@YAXAEBV?$vector@EV?$allocator@E@std@@@std@@HHHNPEAUBlockSplit@0@@Z 00000001800d6aa0     block_splitter.obj
 0002:00098ab0       $chain$7$??$SplitByteVector@U?$Histogram@$0CAI@@brotli@@E@brotli@@YAXAEBV?$vector@EV?$allocator@E@std@@@std@@HHHNPEAUBlockSplit@0@@Z 00000001800d6ab0     block_splitter.obj
 0002:00098ac0       $chain$8$??$SplitByteVector@U?$Histogram@$0CAI@@brotli@@E@brotli@@YAXAEBV?$vector@EV?$allocator@E@std@@@std@@HHHNPEAUBlockSplit@0@@Z 00000001800d6ac0     block_splitter.obj
 0002:00098ae0       $unwind$??$_Emplace_reallocate@AEBG@?$vector@GV?$allocator@G@std@@@std@@QEAAPEAGQEAGAEBG@Z 00000001800d6ae0     block_splitter.obj
 0002:00098af0       $chain$3$??$_Emplace_reallocate@AEBG@?$vector@GV?$allocator@G@std@@@std@@QEAAPEAGQEAGAEBG@Z 00000001800d6af0     block_splitter.obj
 0002:00098b10       $chain$5$??$_Emplace_reallocate@AEBG@?$vector@GV?$allocator@G@std@@@std@@QEAAPEAGQEAGAEBG@Z 00000001800d6b10     block_splitter.obj
 0002:00098b10       $chain$7$??$_Emplace_reallocate@AEBG@?$vector@GV?$allocator@G@std@@@std@@QEAAPEAGQEAGAEBG@Z 00000001800d6b10     block_splitter.obj
 0002:00098b2c       $chain$6$??$_Emplace_reallocate@AEBG@?$vector@GV?$allocator@G@std@@@std@@QEAAPEAGQEAGAEBG@Z 00000001800d6b2c     block_splitter.obj
 0002:00098b3c       $unwind$??$RefineEntropyCodes@U?$Histogram@$0BAA@@brotli@@E@brotli@@YAXPEBE_K1PEAV?$vector@U?$Histogram@$0BAA@@brotli@@V?$allocator@U?$Histogram@$0BAA@@brotli@@@std@@@std@@@Z 00000001800d6b3c     block_splitter.obj
 0002:00098b58       $chain$2$??$RefineEntropyCodes@U?$Histogram@$0BAA@@brotli@@E@brotli@@YAXPEBE_K1PEAV?$vector@U?$Histogram@$0BAA@@brotli@@V?$allocator@U?$Histogram@$0BAA@@brotli@@@std@@@std@@@Z 00000001800d6b58     block_splitter.obj
 0002:00098b74       $chain$3$??$RefineEntropyCodes@U?$Histogram@$0BAA@@brotli@@E@brotli@@YAXPEBE_K1PEAV?$vector@U?$Histogram@$0BAA@@brotli@@V?$allocator@U?$Histogram@$0BAA@@brotli@@@std@@@std@@@Z 00000001800d6b74     block_splitter.obj
 0002:00098b84       $unwind$??$FindBlocks@E$0BAA@@brotli@@YAXPEBE_KNAEBV?$vector@U?$Histogram@$0BAA@@brotli@@V?$allocator@U?$Histogram@$0BAA@@brotli@@@std@@@std@@PEAE@Z 00000001800d6b84     block_splitter.obj
 0002:00098b84       $unwind$??$FindBlocks@E$0CAI@@brotli@@YAXPEBE_KNAEBV?$vector@U?$Histogram@$0CAI@@brotli@@V?$allocator@U?$Histogram@$0CAI@@brotli@@@std@@@std@@PEAE@Z 00000001800d6b84     block_splitter.obj
 0002:00098b94       $chain$4$??$FindBlocks@E$0BAA@@brotli@@YAXPEBE_KNAEBV?$vector@U?$Histogram@$0BAA@@brotli@@V?$allocator@U?$Histogram@$0BAA@@brotli@@@std@@@std@@PEAE@Z 00000001800d6b94     block_splitter.obj
 0002:00098bb8       $chain$5$??$FindBlocks@E$0BAA@@brotli@@YAXPEBE_KNAEBV?$vector@U?$Histogram@$0BAA@@brotli@@V?$allocator@U?$Histogram@$0BAA@@brotli@@@std@@@std@@PEAE@Z 00000001800d6bb8     block_splitter.obj
 0002:00098bcc       $chain$6$??$FindBlocks@E$0BAA@@brotli@@YAXPEBE_KNAEBV?$vector@U?$Histogram@$0BAA@@brotli@@V?$allocator@U?$Histogram@$0BAA@@brotli@@@std@@@std@@PEAE@Z 00000001800d6bcc     block_splitter.obj
 0002:00098bdc       $chain$7$??$FindBlocks@E$0BAA@@brotli@@YAXPEBE_KNAEBV?$vector@U?$Histogram@$0BAA@@brotli@@V?$allocator@U?$Histogram@$0BAA@@brotli@@@std@@@std@@PEAE@Z 00000001800d6bdc     block_splitter.obj
 0002:00098bf4       $chain$8$??$FindBlocks@E$0BAA@@brotli@@YAXPEBE_KNAEBV?$vector@U?$Histogram@$0BAA@@brotli@@V?$allocator@U?$Histogram@$0BAA@@brotli@@@std@@@std@@PEAE@Z 00000001800d6bf4     block_splitter.obj
 0002:00098c04       $unwind$??$ClusterBlocks@U?$Histogram@$0BAA@@brotli@@E@brotli@@YAXPEBE_KPEAE@Z 00000001800d6c04     block_splitter.obj
 0002:00098c20       $chain$1$??$ClusterBlocks@U?$Histogram@$0BAA@@brotli@@E@brotli@@YAXPEBE_KPEAE@Z 00000001800d6c20     block_splitter.obj
 0002:00098c38       $chain$2$??$ClusterBlocks@U?$Histogram@$0BAA@@brotli@@E@brotli@@YAXPEBE_KPEAE@Z 00000001800d6c38     block_splitter.obj
 0002:00098c48       $unwind$??$RefineEntropyCodes@U?$Histogram@$0CMA@@brotli@@G@brotli@@YAXPEBG_K1PEAV?$vector@U?$Histogram@$0CMA@@brotli@@V?$allocator@U?$Histogram@$0CMA@@brotli@@@std@@@std@@@Z 00000001800d6c48     block_splitter.obj
 0002:00098c64       $chain$2$??$RefineEntropyCodes@U?$Histogram@$0CMA@@brotli@@G@brotli@@YAXPEBG_K1PEAV?$vector@U?$Histogram@$0CMA@@brotli@@V?$allocator@U?$Histogram@$0CMA@@brotli@@@std@@@std@@@Z 00000001800d6c64     block_splitter.obj
 0002:00098c80       $chain$3$??$RefineEntropyCodes@U?$Histogram@$0CMA@@brotli@@G@brotli@@YAXPEBG_K1PEAV?$vector@U?$Histogram@$0CMA@@brotli@@V?$allocator@U?$Histogram@$0CMA@@brotli@@@std@@@std@@@Z 00000001800d6c80     block_splitter.obj
 0002:00098c90       $unwind$??$FindBlocks@G$0CMA@@brotli@@YAXPEBG_KNAEBV?$vector@U?$Histogram@$0CMA@@brotli@@V?$allocator@U?$Histogram@$0CMA@@brotli@@@std@@@std@@PEAE@Z 00000001800d6c90     block_splitter.obj
 0002:00098ca0       $chain$0$??$FindBlocks@G$0CMA@@brotli@@YAXPEBG_KNAEBV?$vector@U?$Histogram@$0CMA@@brotli@@V?$allocator@U?$Histogram@$0CMA@@brotli@@@std@@@std@@PEAE@Z 00000001800d6ca0     block_splitter.obj
 0002:00098cb4       $chain$4$??$FindBlocks@G$0CMA@@brotli@@YAXPEBG_KNAEBV?$vector@U?$Histogram@$0CMA@@brotli@@V?$allocator@U?$Histogram@$0CMA@@brotli@@@std@@@std@@PEAE@Z 00000001800d6cb4     block_splitter.obj
 0002:00098cd4       $chain$5$??$FindBlocks@G$0CMA@@brotli@@YAXPEBG_KNAEBV?$vector@U?$Histogram@$0CMA@@brotli@@V?$allocator@U?$Histogram@$0CMA@@brotli@@@std@@@std@@PEAE@Z 00000001800d6cd4     block_splitter.obj
 0002:00098ce8       $chain$6$??$FindBlocks@G$0CMA@@brotli@@YAXPEBG_KNAEBV?$vector@U?$Histogram@$0CMA@@brotli@@V?$allocator@U?$Histogram@$0CMA@@brotli@@@std@@@std@@PEAE@Z 00000001800d6ce8     block_splitter.obj
 0002:00098cf8       $chain$7$??$FindBlocks@G$0CMA@@brotli@@YAXPEBG_KNAEBV?$vector@U?$Histogram@$0CMA@@brotli@@V?$allocator@U?$Histogram@$0CMA@@brotli@@@std@@@std@@PEAE@Z 00000001800d6cf8     block_splitter.obj
 0002:00098d10       $chain$8$??$FindBlocks@G$0CMA@@brotli@@YAXPEBG_KNAEBV?$vector@U?$Histogram@$0CMA@@brotli@@V?$allocator@U?$Histogram@$0CMA@@brotli@@@std@@@std@@PEAE@Z 00000001800d6d10     block_splitter.obj
 0002:00098d20       $unwind$??$ClusterBlocks@U?$Histogram@$0CMA@@brotli@@G@brotli@@YAXPEBG_KPEAE@Z 00000001800d6d20     block_splitter.obj
 0002:00098d44       $unwind$??$RefineEntropyCodes@U?$Histogram@$0CAI@@brotli@@E@brotli@@YAXPEBE_K1PEAV?$vector@U?$Histogram@$0CAI@@brotli@@V?$allocator@U?$Histogram@$0CAI@@brotli@@@std@@@std@@@Z 00000001800d6d44     block_splitter.obj
 0002:00098d60       $chain$2$??$RefineEntropyCodes@U?$Histogram@$0CAI@@brotli@@E@brotli@@YAXPEBE_K1PEAV?$vector@U?$Histogram@$0CAI@@brotli@@V?$allocator@U?$Histogram@$0CAI@@brotli@@@std@@@std@@@Z 00000001800d6d60     block_splitter.obj
 0002:00098d7c       $chain$3$??$RefineEntropyCodes@U?$Histogram@$0CAI@@brotli@@E@brotli@@YAXPEBE_K1PEAV?$vector@U?$Histogram@$0CAI@@brotli@@V?$allocator@U?$Histogram@$0CAI@@brotli@@@std@@@std@@@Z 00000001800d6d7c     block_splitter.obj
 0002:00098d8c       $chain$4$??$FindBlocks@E$0CAI@@brotli@@YAXPEBE_KNAEBV?$vector@U?$Histogram@$0CAI@@brotli@@V?$allocator@U?$Histogram@$0CAI@@brotli@@@std@@@std@@PEAE@Z 00000001800d6d8c     block_splitter.obj
 0002:00098db0       $chain$5$??$FindBlocks@E$0CAI@@brotli@@YAXPEBE_KNAEBV?$vector@U?$Histogram@$0CAI@@brotli@@V?$allocator@U?$Histogram@$0CAI@@brotli@@@std@@@std@@PEAE@Z 00000001800d6db0     block_splitter.obj
 0002:00098dc4       $chain$6$??$FindBlocks@E$0CAI@@brotli@@YAXPEBE_KNAEBV?$vector@U?$Histogram@$0CAI@@brotli@@V?$allocator@U?$Histogram@$0CAI@@brotli@@@std@@@std@@PEAE@Z 00000001800d6dc4     block_splitter.obj
 0002:00098dd4       $chain$7$??$FindBlocks@E$0CAI@@brotli@@YAXPEBE_KNAEBV?$vector@U?$Histogram@$0CAI@@brotli@@V?$allocator@U?$Histogram@$0CAI@@brotli@@@std@@@std@@PEAE@Z 00000001800d6dd4     block_splitter.obj
 0002:00098dec       $chain$8$??$FindBlocks@E$0CAI@@brotli@@YAXPEBE_KNAEBV?$vector@U?$Histogram@$0CAI@@brotli@@V?$allocator@U?$Histogram@$0CAI@@brotli@@@std@@@std@@PEAE@Z 00000001800d6dec     block_splitter.obj
 0002:00098dfc       $unwind$??$ClusterBlocks@U?$Histogram@$0CAI@@brotli@@E@brotli@@YAXPEBE_KPEAE@Z 00000001800d6dfc     block_splitter.obj
 0002:00098e18       $chain$1$??$ClusterBlocks@U?$Histogram@$0CAI@@brotli@@E@brotli@@YAXPEBE_KPEAE@Z 00000001800d6e18     block_splitter.obj
 0002:00098e30       $chain$2$??$ClusterBlocks@U?$Histogram@$0CAI@@brotli@@E@brotli@@YAXPEBE_KPEAE@Z 00000001800d6e30     block_splitter.obj
 0002:00098e40       $unwind$?push_back@?$vector@U?$Histogram@$0CAI@@brotli@@V?$allocator@U?$Histogram@$0CAI@@brotli@@@std@@@std@@QEAAXAEBU?$Histogram@$0CAI@@brotli@@@Z 00000001800d6e40     block_splitter.obj
 0002:00098e40       $unwind$?push_back@?$vector@U?$Histogram@$0CMA@@brotli@@V?$allocator@U?$Histogram@$0CMA@@brotli@@@std@@@std@@QEAAXAEBU?$Histogram@$0CMA@@brotli@@@Z 00000001800d6e40     block_splitter.obj
 0002:00098e4c       $chain$3$?push_back@?$vector@U?$Histogram@$0CAI@@brotli@@V?$allocator@U?$Histogram@$0CAI@@brotli@@@std@@@std@@QEAAXAEBU?$Histogram@$0CAI@@brotli@@@Z 00000001800d6e4c     block_splitter.obj
 0002:00098e6c       $chain$4$?push_back@?$vector@U?$Histogram@$0CAI@@brotli@@V?$allocator@U?$Histogram@$0CAI@@brotli@@@std@@@std@@QEAAXAEBU?$Histogram@$0CAI@@brotli@@@Z 00000001800d6e6c     block_splitter.obj
 0002:00098e80       $chain$5$?push_back@?$vector@U?$Histogram@$0CAI@@brotli@@V?$allocator@U?$Histogram@$0CAI@@brotli@@@std@@@std@@QEAAXAEBU?$Histogram@$0CAI@@brotli@@@Z 00000001800d6e80     block_splitter.obj
 0002:00098e90       $chain$7$?push_back@?$vector@U?$Histogram@$0CAI@@brotli@@V?$allocator@U?$Histogram@$0CAI@@brotli@@@std@@@std@@QEAAXAEBU?$Histogram@$0CAI@@brotli@@@Z 00000001800d6e90     block_splitter.obj
 0002:00098ea8       $chain$3$?push_back@?$vector@U?$Histogram@$0CMA@@brotli@@V?$allocator@U?$Histogram@$0CMA@@brotli@@@std@@@std@@QEAAXAEBU?$Histogram@$0CMA@@brotli@@@Z 00000001800d6ea8     block_splitter.obj
 0002:00098ec8       $chain$4$?push_back@?$vector@U?$Histogram@$0CMA@@brotli@@V?$allocator@U?$Histogram@$0CMA@@brotli@@@std@@@std@@QEAAXAEBU?$Histogram@$0CMA@@brotli@@@Z 00000001800d6ec8     block_splitter.obj
 0002:00098edc       $chain$5$?push_back@?$vector@U?$Histogram@$0CMA@@brotli@@V?$allocator@U?$Histogram@$0CMA@@brotli@@@std@@@std@@QEAAXAEBU?$Histogram@$0CMA@@brotli@@@Z 00000001800d6edc     block_splitter.obj
 0002:00098eec       $chain$7$?push_back@?$vector@U?$Histogram@$0CMA@@brotli@@V?$allocator@U?$Histogram@$0CMA@@brotli@@@std@@@std@@QEAAXAEBU?$Histogram@$0CMA@@brotli@@@Z 00000001800d6eec     block_splitter.obj
 0002:00098f04       $unwind$??$_Resize@U_Value_init_tag@std@@@?$vector@U?$Histogram@$0CAI@@brotli@@V?$allocator@U?$Histogram@$0CAI@@brotli@@@std@@@std@@AEAAX_KAEBU_Value_init_tag@1@@Z 00000001800d6f04     block_splitter.obj
 0002:00098f04       $unwind$??$_Resize@U_Value_init_tag@std@@@?$vector@U?$Histogram@$0CMA@@brotli@@V?$allocator@U?$Histogram@$0CMA@@brotli@@@std@@@std@@AEAAX_KAEBU_Value_init_tag@1@@Z 00000001800d6f04     block_splitter.obj
 0002:00098f04       $unwind$?resize@?$vector@U?$Histogram@$0BAA@@brotli@@V?$allocator@U?$Histogram@$0BAA@@brotli@@@std@@@std@@QEAAX_K@Z 00000001800d6f04     block_splitter.obj
 0002:00098f14       $chain$2$?resize@?$vector@U?$Histogram@$0BAA@@brotli@@V?$allocator@U?$Histogram@$0BAA@@brotli@@@std@@@std@@QEAAX_K@Z 00000001800d6f14     block_splitter.obj
 0002:00098f30       $chain$3$?resize@?$vector@U?$Histogram@$0BAA@@brotli@@V?$allocator@U?$Histogram@$0BAA@@brotli@@@std@@@std@@QEAAX_K@Z 00000001800d6f30     block_splitter.obj
 0002:00098f40       $chain$4$?resize@?$vector@U?$Histogram@$0BAA@@brotli@@V?$allocator@U?$Histogram@$0BAA@@brotli@@@std@@@std@@QEAAX_K@Z 00000001800d6f40     block_splitter.obj
 0002:00098f54       $unwind$?push_back@?$vector@U?$Histogram@$0BAA@@brotli@@V?$allocator@U?$Histogram@$0BAA@@brotli@@@std@@@std@@QEAAXAEBU?$Histogram@$0BAA@@brotli@@@Z 00000001800d6f54     block_splitter.obj
 0002:00098f60       $chain$2$?push_back@?$vector@U?$Histogram@$0BAA@@brotli@@V?$allocator@U?$Histogram@$0BAA@@brotli@@@std@@@std@@QEAAXAEBU?$Histogram@$0BAA@@brotli@@@Z 00000001800d6f60     block_splitter.obj
 0002:00098f7c       $chain$4$?push_back@?$vector@U?$Histogram@$0BAA@@brotli@@V?$allocator@U?$Histogram@$0BAA@@brotli@@@std@@@std@@QEAAXAEBU?$Histogram@$0BAA@@brotli@@@Z 00000001800d6f7c     block_splitter.obj
 0002:00098f94       $unwind$??$ClusterHistograms@U?$Histogram@$0BAA@@brotli@@@brotli@@YAXAEBV?$vector@U?$Histogram@$0BAA@@brotli@@V?$allocator@U?$Histogram@$0BAA@@brotli@@@std@@@std@@HHHPEAV12@PEAV?$vector@HV?$allocator@H@std@@@2@@Z 00000001800d6f94     block_splitter.obj
 0002:00098fa8       $chain$1$??$ClusterHistograms@U?$Histogram@$0BAA@@brotli@@@brotli@@YAXAEBV?$vector@U?$Histogram@$0BAA@@brotli@@V?$allocator@U?$Histogram@$0BAA@@brotli@@@std@@@std@@HHHPEAV12@PEAV?$vector@HV?$allocator@H@std@@@2@@Z 00000001800d6fa8     block_splitter.obj
 0002:00098fc0       $chain$2$??$ClusterHistograms@U?$Histogram@$0BAA@@brotli@@@brotli@@YAXAEBV?$vector@U?$Histogram@$0BAA@@brotli@@V?$allocator@U?$Histogram@$0BAA@@brotli@@@std@@@std@@HHHPEAV12@PEAV?$vector@HV?$allocator@H@std@@@2@@Z 00000001800d6fc0     block_splitter.obj
 0002:00098fd0       $unwind$??$ClusterHistograms@U?$Histogram@$0CAI@@brotli@@@brotli@@YAXAEBV?$vector@U?$Histogram@$0CAI@@brotli@@V?$allocator@U?$Histogram@$0CAI@@brotli@@@std@@@std@@HHHPEAV12@PEAV?$vector@HV?$allocator@H@std@@@2@@Z 00000001800d6fd0     block_splitter.obj
 0002:00098fe4       $chain$1$??$ClusterHistograms@U?$Histogram@$0CAI@@brotli@@@brotli@@YAXAEBV?$vector@U?$Histogram@$0CAI@@brotli@@V?$allocator@U?$Histogram@$0CAI@@brotli@@@std@@@std@@HHHPEAV12@PEAV?$vector@HV?$allocator@H@std@@@2@@Z 00000001800d6fe4     block_splitter.obj
 0002:00098ffc       $chain$2$??$ClusterHistograms@U?$Histogram@$0CAI@@brotli@@@brotli@@YAXAEBV?$vector@U?$Histogram@$0CAI@@brotli@@V?$allocator@U?$Histogram@$0CAI@@brotli@@@std@@@std@@HHHPEAV12@PEAV?$vector@HV?$allocator@H@std@@@2@@Z 00000001800d6ffc     block_splitter.obj
 0002:0009900c       $chain$2$??$_Resize@U_Value_init_tag@std@@@?$vector@U?$Histogram@$0CAI@@brotli@@V?$allocator@U?$Histogram@$0CAI@@brotli@@@std@@@std@@AEAAX_KAEBU_Value_init_tag@1@@Z 00000001800d700c     block_splitter.obj
 0002:00099028       $chain$3$??$_Resize@U_Value_init_tag@std@@@?$vector@U?$Histogram@$0CAI@@brotli@@V?$allocator@U?$Histogram@$0CAI@@brotli@@@std@@@std@@AEAAX_KAEBU_Value_init_tag@1@@Z 00000001800d7028     block_splitter.obj
 0002:00099038       $chain$4$??$_Resize@U_Value_init_tag@std@@@?$vector@U?$Histogram@$0CAI@@brotli@@V?$allocator@U?$Histogram@$0CAI@@brotli@@@std@@@std@@AEAAX_KAEBU_Value_init_tag@1@@Z 00000001800d7038     block_splitter.obj
 0002:0009904c       $chain$2$??$_Resize@U_Value_init_tag@std@@@?$vector@U?$Histogram@$0CMA@@brotli@@V?$allocator@U?$Histogram@$0CMA@@brotli@@@std@@@std@@AEAAX_KAEBU_Value_init_tag@1@@Z 00000001800d704c     block_splitter.obj
 0002:00099068       $chain$3$??$_Resize@U_Value_init_tag@std@@@?$vector@U?$Histogram@$0CMA@@brotli@@V?$allocator@U?$Histogram@$0CMA@@brotli@@@std@@@std@@AEAAX_KAEBU_Value_init_tag@1@@Z 00000001800d7068     block_splitter.obj
 0002:00099078       $chain$4$??$_Resize@U_Value_init_tag@std@@@?$vector@U?$Histogram@$0CMA@@brotli@@V?$allocator@U?$Histogram@$0CMA@@brotli@@@std@@@std@@AEAAX_KAEBU_Value_init_tag@1@@Z 00000001800d7078     block_splitter.obj
 0002:0009908c       $unwind$?resize@?$vector@HV?$allocator@H@std@@@std@@QEAAX_K@Z 00000001800d708c     block_splitter.obj
 0002:000990a0       $chain$0$?resize@?$vector@HV?$allocator@H@std@@@std@@QEAAX_K@Z 00000001800d70a0     block_splitter.obj
 0002:000990b4       $chain$1$?resize@?$vector@HV?$allocator@H@std@@@std@@QEAAX_K@Z 00000001800d70b4     block_splitter.obj
 0002:000990c4       $chain$2$?resize@?$vector@HV?$allocator@H@std@@@std@@QEAAX_K@Z 00000001800d70c4     block_splitter.obj
 0002:000990d8       $unwind$??$PopulationCost@$0BAA@@brotli@@YANAEBU?$Histogram@$0BAA@@0@@Z 00000001800d70d8     block_splitter.obj
 0002:000990f4       $unwind$??$HistogramCombine@U?$Histogram@$0BAA@@brotli@@@brotli@@YAXPEAU?$Histogram@$0BAA@@0@PEAH1HH@Z 00000001800d70f4     block_splitter.obj
 0002:000990f4       $unwind$??$HistogramCombine@U?$Histogram@$0CMA@@brotli@@@brotli@@YAXPEAU?$Histogram@$0CMA@@0@PEAH1HH@Z 00000001800d70f4     block_splitter.obj
 0002:00099114       $chain$0$??$HistogramCombine@U?$Histogram@$0BAA@@brotli@@@brotli@@YAXPEAU?$Histogram@$0BAA@@0@PEAH1HH@Z 00000001800d7114     block_splitter.obj
 0002:00099128       $chain$1$??$HistogramCombine@U?$Histogram@$0BAA@@brotli@@@brotli@@YAXPEAU?$Histogram@$0BAA@@0@PEAH1HH@Z 00000001800d7128     block_splitter.obj
 0002:00099138       $unwind$??$HistogramRemap@U?$Histogram@$0BAA@@brotli@@@brotli@@YAXPEBU?$Histogram@$0BAA@@0@HPEAU10@PEAH@Z 00000001800d7138     block_splitter.obj
 0002:00099138       $unwind$??$HistogramRemap@U?$Histogram@$0CMA@@brotli@@@brotli@@YAXPEBU?$Histogram@$0CMA@@0@HPEAU10@PEAH@Z 00000001800d7138     block_splitter.obj
 0002:00099150       $chain$0$??$HistogramRemap@U?$Histogram@$0BAA@@brotli@@@brotli@@YAXPEBU?$Histogram@$0BAA@@0@HPEAU10@PEAH@Z 00000001800d7150     block_splitter.obj
 0002:00099164       $chain$1$??$HistogramRemap@U?$Histogram@$0BAA@@brotli@@@brotli@@YAXPEBU?$Histogram@$0BAA@@0@HPEAU10@PEAH@Z 00000001800d7164     block_splitter.obj
 0002:00099174       $unwind$??$HistogramReindex@U?$Histogram@$0BAA@@brotli@@@brotli@@YAXPEAV?$vector@U?$Histogram@$0BAA@@brotli@@V?$allocator@U?$Histogram@$0BAA@@brotli@@@std@@@std@@PEAV?$vector@HV?$allocator@H@std@@@2@@Z 00000001800d7174     block_splitter.obj
 0002:00099174       $unwind$??$HistogramReindex@U?$Histogram@$0CAI@@brotli@@@brotli@@YAXPEAV?$vector@U?$Histogram@$0CAI@@brotli@@V?$allocator@U?$Histogram@$0CAI@@brotli@@@std@@@std@@PEAV?$vector@HV?$allocator@H@std@@@2@@Z 00000001800d7174     block_splitter.obj
 0002:00099174       $unwind$??$HistogramReindex@U?$Histogram@$0CMA@@brotli@@@brotli@@YAXPEAV?$vector@U?$Histogram@$0CMA@@brotli@@V?$allocator@U?$Histogram@$0CMA@@brotli@@@std@@@std@@PEAV?$vector@HV?$allocator@H@std@@@2@@Z 00000001800d7174     block_splitter.obj
 0002:0009917c       $chain$0$??$HistogramReindex@U?$Histogram@$0BAA@@brotli@@@brotli@@YAXPEAV?$vector@U?$Histogram@$0BAA@@brotli@@V?$allocator@U?$Histogram@$0BAA@@brotli@@@std@@@std@@PEAV?$vector@HV?$allocator@H@std@@@2@@Z 00000001800d717c     block_splitter.obj
 0002:00099190       $chain$5$??$HistogramReindex@U?$Histogram@$0BAA@@brotli@@@brotli@@YAXPEAV?$vector@U?$Histogram@$0BAA@@brotli@@V?$allocator@U?$Histogram@$0BAA@@brotli@@@std@@@std@@PEAV?$vector@HV?$allocator@H@std@@@2@@Z 00000001800d7190     block_splitter.obj
 0002:000991b4       $chain$6$??$HistogramReindex@U?$Histogram@$0BAA@@brotli@@@brotli@@YAXPEAV?$vector@U?$Histogram@$0BAA@@brotli@@V?$allocator@U?$Histogram@$0BAA@@brotli@@@std@@@std@@PEAV?$vector@HV?$allocator@H@std@@@2@@Z 00000001800d71b4     block_splitter.obj
 0002:000991c8       $chain$7$??$HistogramReindex@U?$Histogram@$0BAA@@brotli@@@brotli@@YAXPEAV?$vector@U?$Histogram@$0BAA@@brotli@@V?$allocator@U?$Histogram@$0BAA@@brotli@@@std@@@std@@PEAV?$vector@HV?$allocator@H@std@@@2@@Z 00000001800d71c8     block_splitter.obj
 0002:000991d8       $chain$8$??$HistogramReindex@U?$Histogram@$0BAA@@brotli@@@brotli@@YAXPEAV?$vector@U?$Histogram@$0BAA@@brotli@@V?$allocator@U?$Histogram@$0BAA@@brotli@@@std@@@std@@PEAV?$vector@HV?$allocator@H@std@@@2@@Z 00000001800d71d8     block_splitter.obj
 0002:000991f0       $chain$9$??$HistogramReindex@U?$Histogram@$0BAA@@brotli@@@brotli@@YAXPEAV?$vector@U?$Histogram@$0BAA@@brotli@@V?$allocator@U?$Histogram@$0BAA@@brotli@@@std@@@std@@PEAV?$vector@HV?$allocator@H@std@@@2@@Z 00000001800d71f0     block_splitter.obj
 0002:00099200       $unwind$??$PopulationCost@$0CMA@@brotli@@YANAEBU?$Histogram@$0CMA@@0@@Z 00000001800d7200     block_splitter.obj
 0002:0009921c       $chain$0$??$HistogramCombine@U?$Histogram@$0CMA@@brotli@@@brotli@@YAXPEAU?$Histogram@$0CMA@@0@PEAH1HH@Z 00000001800d721c     block_splitter.obj
 0002:00099230       $chain$1$??$HistogramCombine@U?$Histogram@$0CMA@@brotli@@@brotli@@YAXPEAU?$Histogram@$0CMA@@0@PEAH1HH@Z 00000001800d7230     block_splitter.obj
 0002:00099240       $chain$0$??$HistogramRemap@U?$Histogram@$0CMA@@brotli@@@brotli@@YAXPEBU?$Histogram@$0CMA@@0@HPEAU10@PEAH@Z 00000001800d7240     block_splitter.obj
 0002:00099254       $chain$1$??$HistogramRemap@U?$Histogram@$0CMA@@brotli@@@brotli@@YAXPEBU?$Histogram@$0CMA@@0@HPEAU10@PEAH@Z 00000001800d7254     block_splitter.obj
 0002:00099264       $chain$5$??$HistogramReindex@U?$Histogram@$0CMA@@brotli@@@brotli@@YAXPEAV?$vector@U?$Histogram@$0CMA@@brotli@@V?$allocator@U?$Histogram@$0CMA@@brotli@@@std@@@std@@PEAV?$vector@HV?$allocator@H@std@@@2@@Z 00000001800d7264     block_splitter.obj
 0002:0009928c       $chain$6$??$HistogramReindex@U?$Histogram@$0CMA@@brotli@@@brotli@@YAXPEAV?$vector@U?$Histogram@$0CMA@@brotli@@V?$allocator@U?$Histogram@$0CMA@@brotli@@@std@@@std@@PEAV?$vector@HV?$allocator@H@std@@@2@@Z 00000001800d728c     block_splitter.obj
 0002:000992a0       $chain$7$??$HistogramReindex@U?$Histogram@$0CMA@@brotli@@@brotli@@YAXPEAV?$vector@U?$Histogram@$0CMA@@brotli@@V?$allocator@U?$Histogram@$0CMA@@brotli@@@std@@@std@@PEAV?$vector@HV?$allocator@H@std@@@2@@Z 00000001800d72a0     block_splitter.obj
 0002:000992b0       $chain$8$??$HistogramReindex@U?$Histogram@$0CMA@@brotli@@@brotli@@YAXPEAV?$vector@U?$Histogram@$0CMA@@brotli@@V?$allocator@U?$Histogram@$0CMA@@brotli@@@std@@@std@@PEAV?$vector@HV?$allocator@H@std@@@2@@Z 00000001800d72b0     block_splitter.obj
 0002:000992cc       $chain$9$??$HistogramReindex@U?$Histogram@$0CMA@@brotli@@@brotli@@YAXPEAV?$vector@U?$Histogram@$0CMA@@brotli@@V?$allocator@U?$Histogram@$0CMA@@brotli@@@std@@@std@@PEAV?$vector@HV?$allocator@H@std@@@2@@Z 00000001800d72cc     block_splitter.obj
 0002:000992dc       $unwind$??$PopulationCost@$0CAI@@brotli@@YANAEBU?$Histogram@$0CAI@@0@@Z 00000001800d72dc     block_splitter.obj
 0002:000992f8       $unwind$??$HistogramCombine@U?$Histogram@$0CAI@@brotli@@@brotli@@YAXPEAU?$Histogram@$0CAI@@0@PEAH1HH@Z 00000001800d72f8     block_splitter.obj
 0002:00099318       $chain$0$??$HistogramCombine@U?$Histogram@$0CAI@@brotli@@@brotli@@YAXPEAU?$Histogram@$0CAI@@0@PEAH1HH@Z 00000001800d7318     block_splitter.obj
 0002:0009932c       $chain$1$??$HistogramCombine@U?$Histogram@$0CAI@@brotli@@@brotli@@YAXPEAU?$Histogram@$0CAI@@0@PEAH1HH@Z 00000001800d732c     block_splitter.obj
 0002:0009933c       $unwind$??$HistogramRemap@U?$Histogram@$0CAI@@brotli@@@brotli@@YAXPEBU?$Histogram@$0CAI@@0@HPEAU10@PEAH@Z 00000001800d733c     block_splitter.obj
 0002:00099354       $chain$0$??$HistogramRemap@U?$Histogram@$0CAI@@brotli@@@brotli@@YAXPEBU?$Histogram@$0CAI@@0@HPEAU10@PEAH@Z 00000001800d7354     block_splitter.obj
 0002:00099368       $chain$1$??$HistogramRemap@U?$Histogram@$0CAI@@brotli@@@brotli@@YAXPEBU?$Histogram@$0CAI@@0@HPEAU10@PEAH@Z 00000001800d7368     block_splitter.obj
 0002:00099378       $chain$5$??$HistogramReindex@U?$Histogram@$0CAI@@brotli@@@brotli@@YAXPEAV?$vector@U?$Histogram@$0CAI@@brotli@@V?$allocator@U?$Histogram@$0CAI@@brotli@@@std@@@std@@PEAV?$vector@HV?$allocator@H@std@@@2@@Z 00000001800d7378     block_splitter.obj
 0002:000993a0       $chain$6$??$HistogramReindex@U?$Histogram@$0CAI@@brotli@@@brotli@@YAXPEAV?$vector@U?$Histogram@$0CAI@@brotli@@V?$allocator@U?$Histogram@$0CAI@@brotli@@@std@@@std@@PEAV?$vector@HV?$allocator@H@std@@@2@@Z 00000001800d73a0     block_splitter.obj
 0002:000993b4       $chain$7$??$HistogramReindex@U?$Histogram@$0CAI@@brotli@@@brotli@@YAXPEAV?$vector@U?$Histogram@$0CAI@@brotli@@V?$allocator@U?$Histogram@$0CAI@@brotli@@@std@@@std@@PEAV?$vector@HV?$allocator@H@std@@@2@@Z 00000001800d73b4     block_splitter.obj
 0002:000993c4       $chain$8$??$HistogramReindex@U?$Histogram@$0CAI@@brotli@@@brotli@@YAXPEAV?$vector@U?$Histogram@$0CAI@@brotli@@V?$allocator@U?$Histogram@$0CAI@@brotli@@@std@@@std@@PEAV?$vector@HV?$allocator@H@std@@@2@@Z 00000001800d73c4     block_splitter.obj
 0002:000993e0       $chain$9$??$HistogramReindex@U?$Histogram@$0CAI@@brotli@@@brotli@@YAXPEAV?$vector@U?$Histogram@$0CAI@@brotli@@V?$allocator@U?$Histogram@$0CAI@@brotli@@@std@@@std@@PEAV?$vector@HV?$allocator@H@std@@@2@@Z 00000001800d73e0     block_splitter.obj
 0002:000993f0       $unwind$??$CompareAndPushToHeap@U?$Histogram@$0BAA@@brotli@@@brotli@@YAXPEBU?$Histogram@$0BAA@@0@PEBHHHPEAV?$vector@UHistogramPair@brotli@@V?$allocator@UHistogramPair@brotli@@@std@@@std@@@Z 00000001800d73f0     block_splitter.obj
 0002:00099404       $chain$2$??$CompareAndPushToHeap@U?$Histogram@$0BAA@@brotli@@@brotli@@YAXPEBU?$Histogram@$0BAA@@0@PEBHHHPEAV?$vector@UHistogramPair@brotli@@V?$allocator@UHistogramPair@brotli@@@std@@@std@@@Z 00000001800d7404     block_splitter.obj
 0002:00099420       $chain$3$??$CompareAndPushToHeap@U?$Histogram@$0BAA@@brotli@@@brotli@@YAXPEBU?$Histogram@$0BAA@@0@PEBHHHPEAV?$vector@UHistogramPair@brotli@@V?$allocator@UHistogramPair@brotli@@@std@@@std@@@Z 00000001800d7420     block_splitter.obj
 0002:00099434       $chain$4$??$CompareAndPushToHeap@U?$Histogram@$0BAA@@brotli@@@brotli@@YAXPEBU?$Histogram@$0BAA@@0@PEBHHHPEAV?$vector@UHistogramPair@brotli@@V?$allocator@UHistogramPair@brotli@@@std@@@std@@@Z 00000001800d7434     block_splitter.obj
 0002:00099448       $chain$5$??$CompareAndPushToHeap@U?$Histogram@$0BAA@@brotli@@@brotli@@YAXPEBU?$Histogram@$0BAA@@0@PEBHHHPEAV?$vector@UHistogramPair@brotli@@V?$allocator@UHistogramPair@brotli@@@std@@@std@@@Z 00000001800d7448     block_splitter.obj
 0002:00099458       $chain$6$??$CompareAndPushToHeap@U?$Histogram@$0BAA@@brotli@@@brotli@@YAXPEBU?$Histogram@$0BAA@@0@PEBHHHPEAV?$vector@UHistogramPair@brotli@@V?$allocator@UHistogramPair@brotli@@@std@@@std@@@Z 00000001800d7458     block_splitter.obj
 0002:00099468       $unwind$??$HistogramBitCostDistance@U?$Histogram@$0BAA@@brotli@@@brotli@@YANAEBU?$Histogram@$0BAA@@0@0@Z 00000001800d7468     block_splitter.obj
 0002:0009947c       $unwind$??$CompareAndPushToHeap@U?$Histogram@$0CMA@@brotli@@@brotli@@YAXPEBU?$Histogram@$0CMA@@0@PEBHHHPEAV?$vector@UHistogramPair@brotli@@V?$allocator@UHistogramPair@brotli@@@std@@@std@@@Z 00000001800d747c     block_splitter.obj
 0002:00099490       $chain$2$??$CompareAndPushToHeap@U?$Histogram@$0CMA@@brotli@@@brotli@@YAXPEBU?$Histogram@$0CMA@@0@PEBHHHPEAV?$vector@UHistogramPair@brotli@@V?$allocator@UHistogramPair@brotli@@@std@@@std@@@Z 00000001800d7490     block_splitter.obj
 0002:000994ac       $chain$3$??$CompareAndPushToHeap@U?$Histogram@$0CMA@@brotli@@@brotli@@YAXPEBU?$Histogram@$0CMA@@0@PEBHHHPEAV?$vector@UHistogramPair@brotli@@V?$allocator@UHistogramPair@brotli@@@std@@@std@@@Z 00000001800d74ac     block_splitter.obj
 0002:000994c0       $chain$4$??$CompareAndPushToHeap@U?$Histogram@$0CMA@@brotli@@@brotli@@YAXPEBU?$Histogram@$0CMA@@0@PEBHHHPEAV?$vector@UHistogramPair@brotli@@V?$allocator@UHistogramPair@brotli@@@std@@@std@@@Z 00000001800d74c0     block_splitter.obj
 0002:000994d0       $chain$5$??$CompareAndPushToHeap@U?$Histogram@$0CMA@@brotli@@@brotli@@YAXPEBU?$Histogram@$0CMA@@0@PEBHHHPEAV?$vector@UHistogramPair@brotli@@V?$allocator@UHistogramPair@brotli@@@std@@@std@@@Z 00000001800d74d0     block_splitter.obj
 0002:000994e0       $unwind$??$HistogramBitCostDistance@U?$Histogram@$0CMA@@brotli@@@brotli@@YANAEBU?$Histogram@$0CMA@@0@0@Z 00000001800d74e0     block_splitter.obj
 0002:000994f4       $unwind$??$CompareAndPushToHeap@U?$Histogram@$0CAI@@brotli@@@brotli@@YAXPEBU?$Histogram@$0CAI@@0@PEBHHHPEAV?$vector@UHistogramPair@brotli@@V?$allocator@UHistogramPair@brotli@@@std@@@std@@@Z 00000001800d74f4     block_splitter.obj
 0002:00099508       $chain$2$??$CompareAndPushToHeap@U?$Histogram@$0CAI@@brotli@@@brotli@@YAXPEBU?$Histogram@$0CAI@@0@PEBHHHPEAV?$vector@UHistogramPair@brotli@@V?$allocator@UHistogramPair@brotli@@@std@@@std@@@Z 00000001800d7508     block_splitter.obj
 0002:00099524       $chain$3$??$CompareAndPushToHeap@U?$Histogram@$0CAI@@brotli@@@brotli@@YAXPEBU?$Histogram@$0CAI@@0@PEBHHHPEAV?$vector@UHistogramPair@brotli@@V?$allocator@UHistogramPair@brotli@@@std@@@std@@@Z 00000001800d7524     block_splitter.obj
 0002:00099538       $chain$4$??$CompareAndPushToHeap@U?$Histogram@$0CAI@@brotli@@@brotli@@YAXPEBU?$Histogram@$0CAI@@0@PEBHHHPEAV?$vector@UHistogramPair@brotli@@V?$allocator@UHistogramPair@brotli@@@std@@@std@@@Z 00000001800d7538     block_splitter.obj
 0002:00099548       $chain$5$??$CompareAndPushToHeap@U?$Histogram@$0CAI@@brotli@@@brotli@@YAXPEBU?$Histogram@$0CAI@@0@PEBHHHPEAV?$vector@UHistogramPair@brotli@@V?$allocator@UHistogramPair@brotli@@@std@@@std@@@Z 00000001800d7548     block_splitter.obj
 0002:00099558       $unwind$??$HistogramBitCostDistance@U?$Histogram@$0CAI@@brotli@@@brotli@@YANAEBU?$Histogram@$0CAI@@0@0@Z 00000001800d7558     block_splitter.obj
 0002:0009956c       $chain$1$??$push_heap@V?$_Vector_iterator@V?$_Vector_val@U?$_Simple_types@UHistogramPair@brotli@@@std@@@std@@@std@@UHistogramPairComparator@brotli@@@std@@YAXV?$_Vector_iterator@V?$_Vector_val@U?$_Simple_types@UHistogramPair@brotli@@@std@@@std@@@0@0UHistogramPairComparator@brotli@@@Z 00000001800d756c     block_splitter.obj
 0002:00099584       $chain$2$??$push_heap@V?$_Vector_iterator@V?$_Vector_val@U?$_Simple_types@UHistogramPair@brotli@@@std@@@std@@@std@@UHistogramPairComparator@brotli@@@std@@YAXV?$_Vector_iterator@V?$_Vector_val@U?$_Simple_types@UHistogramPair@brotli@@@std@@@std@@@0@0UHistogramPairComparator@brotli@@@Z 00000001800d7584     block_splitter.obj
 0002:00099594       $unwind$??$_Emplace_reallocate@AEBUHistogramPair@brotli@@@?$vector@UHistogramPair@brotli@@V?$allocator@UHistogramPair@brotli@@@std@@@std@@QEAAPEAUHistogramPair@brotli@@QEAU23@AEBU23@@Z 00000001800d7594     block_splitter.obj
 0002:000995a8       $chain$1$??$_Emplace_reallocate@AEBUHistogramPair@brotli@@@?$vector@UHistogramPair@brotli@@V?$allocator@UHistogramPair@brotli@@@std@@@std@@QEAAPEAUHistogramPair@brotli@@QEAU23@AEBU23@@Z 00000001800d75a8     block_splitter.obj
 0002:000995c0       $chain$3$??$_Emplace_reallocate@AEBUHistogramPair@brotli@@@?$vector@UHistogramPair@brotli@@V?$allocator@UHistogramPair@brotli@@@std@@@std@@QEAAPEAUHistogramPair@brotli@@QEAU23@AEBU23@@Z 00000001800d75c0     block_splitter.obj
 0002:000995c0       $chain$5$??$_Emplace_reallocate@AEBUHistogramPair@brotli@@@?$vector@UHistogramPair@brotli@@V?$allocator@UHistogramPair@brotli@@@std@@@std@@QEAAPEAUHistogramPair@brotli@@QEAU23@AEBU23@@Z 00000001800d75c0     block_splitter.obj
 0002:000995d8       $chain$4$??$_Emplace_reallocate@AEBUHistogramPair@brotli@@@?$vector@UHistogramPair@brotli@@V?$allocator@UHistogramPair@brotli@@@std@@@std@@QEAAPEAUHistogramPair@brotli@@QEAU23@AEBU23@@Z 00000001800d75d8     block_splitter.obj
 0002:000995e8       $unwind$??$_Pop_heap_hole_by_index@PEAUHistogramPair@brotli@@U12@UHistogramPairComparator@2@@std@@YAXPEAUHistogramPair@brotli@@_J1$$QEAU12@UHistogramPairComparator@2@@Z 00000001800d75e8     block_splitter.obj
 0002:000995fc       $unwind$?HuffmanBitCost@brotli@@YAHPEBEH@Z 00000001800d75fc     brotli_bit_stream.obj
 0002:0009961c       $unwind$?StoreVarLenUint8@brotli@@YAXHPEAHPEAE@Z 00000001800d761c     brotli_bit_stream.obj
 0002:00099630       $unwind$?StoreCompressedMetaBlockHeader@brotli@@YA_N_N_KPEAHPEAE@Z 00000001800d7630     brotli_bit_stream.obj
 0002:00099648       $unwind$?StoreHuffmanTreeOfHuffmanTreeToBitMask@brotli@@YAXHPEBEPEAHPEAE@Z 00000001800d7648     brotli_bit_stream.obj
 0002:00099658       $chain$2$?StoreHuffmanTreeOfHuffmanTreeToBitMask@brotli@@YAXHPEBEPEAHPEAE@Z 00000001800d7658     brotli_bit_stream.obj
 0002:00099674       $chain$3$?StoreHuffmanTreeOfHuffmanTreeToBitMask@brotli@@YAXHPEBEPEAHPEAE@Z 00000001800d7674     brotli_bit_stream.obj
 0002:00099684       $unwind$?StoreSimpleHuffmanTree@brotli@@YAXPEBEQEAHHHPEAHPEAE@Z 00000001800d7684     brotli_bit_stream.obj
 0002:000996a0       $unwind$?StoreHuffmanTree@brotli@@YAXPEBE_KPEAHPEAE@Z 00000001800d76a0     brotli_bit_stream.obj
 0002:000996c0       $unwind$?BuildAndStoreHuffmanTree@brotli@@YAXPEBHHPEAEPEAGPEAH1@Z 00000001800d76c0     brotli_bit_stream.obj
 0002:000996e0       $unwind$?MoveToFrontTransform@brotli@@YA?AV?$vector@HV?$allocator@H@std@@@std@@AEBV23@@Z 00000001800d76e0     brotli_bit_stream.obj
 0002:000996e0       $unwind$?try_get_function@@YAPEAXW4function_id@?A0x84e3c32f@@QEBDQEBW4module_id@2@2@Z 00000001800d76e0     libvcruntime:winapi_downlevel.obj
 0002:000996e0       $unwind$?try_get_function@@YAPEAXW4function_id@?A0x391cf84c@@QEBDQEBW4module_id@2@2@Z 00000001800d76e0     libucrt:winapi_thunks.obj
 0002:000996fc       $unwind$?RunLengthCodeZeros@brotli@@YAXAEBV?$vector@HV?$allocator@H@std@@@std@@PEAHPEAV23@2@Z 00000001800d76fc     brotli_bit_stream.obj
 0002:00099714       $chain$0$?RunLengthCodeZeros@brotli@@YAXAEBV?$vector@HV?$allocator@H@std@@@std@@PEAHPEAV23@2@Z 00000001800d7714     brotli_bit_stream.obj
 0002:00099728       $chain$1$?RunLengthCodeZeros@brotli@@YAXAEBV?$vector@HV?$allocator@H@std@@@std@@PEAHPEAV23@2@Z 00000001800d7728     brotli_bit_stream.obj
 0002:00099738       $unwind$?BestMaxZeroRunLengthPrefix@brotli@@YAHAEBV?$vector@HV?$allocator@H@std@@@std@@@Z 00000001800d7738     brotli_bit_stream.obj
 0002:00099760       $unwind$?EncodeContextMap@brotli@@YAXAEBV?$vector@HV?$allocator@H@std@@@std@@HPEAHPEAE@Z 00000001800d7760     brotli_bit_stream.obj
 0002:0009977c       $chain$2$?EncodeContextMap@brotli@@YAXAEBV?$vector@HV?$allocator@H@std@@@std@@HPEAHPEAE@Z 00000001800d777c     brotli_bit_stream.obj
 0002:00099798       $chain$3$?EncodeContextMap@brotli@@YAXAEBV?$vector@HV?$allocator@H@std@@@std@@HPEAHPEAE@Z 00000001800d7798     brotli_bit_stream.obj
 0002:00099798       $chain$5$?EncodeContextMap@brotli@@YAXAEBV?$vector@HV?$allocator@H@std@@@std@@HPEAHPEAE@Z 00000001800d7798     brotli_bit_stream.obj
 0002:000997ac       $chain$4$?EncodeContextMap@brotli@@YAXAEBV?$vector@HV?$allocator@H@std@@@std@@HPEAHPEAE@Z 00000001800d77ac     brotli_bit_stream.obj
 0002:000997bc       $unwind$?BuildAndStoreBlockSplitCode@brotli@@YAXAEBV?$vector@HV?$allocator@H@std@@@std@@0HPEAUBlockSplitCode@1@PEAHPEAE@Z 00000001800d77bc     brotli_bit_stream.obj
 0002:000997d0       $chain$0$?BuildAndStoreBlockSplitCode@brotli@@YAXAEBV?$vector@HV?$allocator@H@std@@@std@@0HPEAUBlockSplitCode@1@PEAHPEAE@Z 00000001800d77d0     brotli_bit_stream.obj
 0002:000997e4       $chain$2$?BuildAndStoreBlockSplitCode@brotli@@YAXAEBV?$vector@HV?$allocator@H@std@@@std@@0HPEAUBlockSplitCode@1@PEAHPEAE@Z 00000001800d77e4     brotli_bit_stream.obj
 0002:000997fc       $chain$3$?BuildAndStoreBlockSplitCode@brotli@@YAXAEBV?$vector@HV?$allocator@H@std@@@std@@0HPEAUBlockSplitCode@1@PEAHPEAE@Z 00000001800d77fc     brotli_bit_stream.obj
 0002:0009980c       $chain$4$?BuildAndStoreBlockSplitCode@brotli@@YAXAEBV?$vector@HV?$allocator@H@std@@@std@@0HPEAUBlockSplitCode@1@PEAHPEAE@Z 00000001800d780c     brotli_bit_stream.obj
 0002:0009981c       $unwind$?StoreTrivialContextMap@brotli@@YAXHHPEAHPEAE@Z 00000001800d781c     brotli_bit_stream.obj
 0002:0009982c       $chain$4$?StoreTrivialContextMap@brotli@@YAXHHPEAHPEAE@Z 00000001800d782c     brotli_bit_stream.obj
 0002:00099850       $chain$5$?StoreTrivialContextMap@brotli@@YAXHHPEAHPEAE@Z 00000001800d7850     brotli_bit_stream.obj
 0002:00099860       $chain$6$?StoreTrivialContextMap@brotli@@YAXHHPEAHPEAE@Z 00000001800d7860     brotli_bit_stream.obj
 0002:00099884       $unwind$?StoreSymbol@BlockEncoder@brotli@@QEAAXHPEAHPEAE@Z 00000001800d7884     brotli_bit_stream.obj
 0002:00099898       $chain$0$?StoreSymbol@BlockEncoder@brotli@@QEAAXHPEAHPEAE@Z 00000001800d7898     brotli_bit_stream.obj
 0002:000998ac       $chain$1$?StoreSymbol@BlockEncoder@brotli@@QEAAXHPEAHPEAE@Z 00000001800d78ac     brotli_bit_stream.obj
 0002:000998bc       $unwind$?StoreMetaBlock@brotli@@YA_NPEBE_K11EE_NHHHPEBUCommand@1@1AEBUMetaBlockSplit@1@PEAHPEAE@Z 00000001800d78bc     brotli_bit_stream.obj
 0002:000998d0       $chain$2$?StoreMetaBlock@brotli@@YA_NPEBE_K11EE_NHHHPEBUCommand@1@1AEBUMetaBlockSplit@1@PEAHPEAE@Z 00000001800d78d0     brotli_bit_stream.obj
 0002:000998ec       $chain$3$?StoreMetaBlock@brotli@@YA_NPEBE_K11EE_NHHHPEBUCommand@1@1AEBUMetaBlockSplit@1@PEAHPEAE@Z 00000001800d78ec     brotli_bit_stream.obj
 0002:000998fc       $unwind$?StoreUncompressedMetaBlock@brotli@@YA_N_NPEBE_K22PEAHPEAE@Z 00000001800d78fc     brotli_bit_stream.obj
 0002:00099914       $chain$0$?StoreUncompressedMetaBlock@brotli@@YA_N_NPEBE_K22PEAHPEAE@Z 00000001800d7914     brotli_bit_stream.obj
 0002:00099928       $chain$1$?StoreUncompressedMetaBlock@brotli@@YA_N_NPEBE_K22PEAHPEAE@Z 00000001800d7928     brotli_bit_stream.obj
 0002:00099938       $unwind$??$PopulationCost@$0BBA@@brotli@@YANAEBU?$Histogram@$0BBA@@0@@Z 00000001800d7938     brotli_bit_stream.obj
 0002:00099954       $chain$0$??$_Resize@U_Value_init_tag@std@@@?$vector@GV?$allocator@G@std@@@std@@AEAAX_KAEBU_Value_init_tag@1@@Z 00000001800d7954     brotli_bit_stream.obj
 0002:00099968       $chain$1$??$_Resize@U_Value_init_tag@std@@@?$vector@GV?$allocator@G@std@@@std@@AEAAX_KAEBU_Value_init_tag@1@@Z 00000001800d7968     brotli_bit_stream.obj
 0002:00099978       $chain$2$??$_Resize@U_Value_init_tag@std@@@?$vector@GV?$allocator@G@std@@@std@@AEAAX_KAEBU_Value_init_tag@1@@Z 00000001800d7978     brotli_bit_stream.obj
 0002:0009998c       $unwind$?ApplyTransform@brotli@@YA?AV?$basic_string@DU?$char_traits@D@std@@V?$allocator@D@2@@std@@AEBUTransform@1@PEBEH@Z 00000001800d798c     encode.obj
 0002:000999ac       $chain$1$?ApplyTransform@brotli@@YA?AV?$basic_string@DU?$char_traits@D@std@@V?$allocator@D@2@@std@@AEBUTransform@1@PEBEH@Z 00000001800d79ac     encode.obj
 0002:000999c0       $chain$2$?ApplyTransform@brotli@@YA?AV?$basic_string@DU?$char_traits@D@std@@V?$allocator@D@2@@std@@AEBUTransform@1@PEBEH@Z 00000001800d79c0     encode.obj
 0002:000999d0       $unwind$?Fill@StaticDictionary@brotli@@QEAAX_N@Z 00000001800d79d0     encode.obj
 0002:000999f4       $unwind$?Insert@StaticDictionary@brotli@@QEAAXAEBV?$basic_string@DU?$char_traits@D@std@@V?$allocator@D@2@@std@@HH@Z 00000001800d79f4     encode.obj
 0002:00099a0c       $unwind$?Init@Hashers@brotli@@QEAAXH@Z 00000001800d7a0c     encode.obj
 0002:00099a14       $chain$1$?Init@Hashers@brotli@@QEAAXH@Z 00000001800d7a14     encode.obj
 0002:00099a2c       $chain$2$?Init@Hashers@brotli@@QEAAXH@Z 00000001800d7a2c     encode.obj
 0002:00099a40       $chain$3$?Init@Hashers@brotli@@QEAAXH@Z 00000001800d7a40     encode.obj
 0002:00099a50       $chain$4$?Init@Hashers@brotli@@QEAAXH@Z 00000001800d7a50     encode.obj
 0002:00099a60       $unwind$?CopyInputToRingBuffer@BrotliCompressor@brotli@@QEAAX_KPEBE@Z 00000001800d7a60     encode.obj
 0002:00099a60       $unwind$?OptimizeHistograms@brotli@@YAXHHPEAUMetaBlockSplit@1@@Z 00000001800d7a60     metablock.obj
 0002:00099a60       $unwind$??$common_xtox@K_W@@YAHKQEA_W_KI_N@Z 00000001800d7a60     libucrt:xtoa.obj
 0002:00099a60       $unwind$__acrt_DownlevelLocaleNameToLCID 00000001800d7a60     libucrt:lcidtoname_downlevel.obj
 0002:00099a60       $unwind$??R<lambda_f03950bc5685219e0bcd2087efbe011e>@@QEBAHXZ 00000001800d7a60     libucrt:onexit.obj
 0002:00099a60       $unwind$?type_case_integer@?$output_processor@DV?$stream_output_adapter@D@__crt_stdio_output@@V?$standard_base@DV?$stream_output_adapter@D@__crt_stdio_output@@@2@@__crt_stdio_output@@AEAA_NI_N@Z 00000001800d7a60     libucrt:output.obj
 0002:00099a60       $unwind$?type_case_integer@?$output_processor@_WV?$stream_output_adapter@_W@__crt_stdio_output@@V?$standard_base@_WV?$stream_output_adapter@_W@__crt_stdio_output@@@2@@__crt_stdio_output@@AEAA_NI_N@Z 00000001800d7a60     libucrt:output.obj
 0002:00099a60       $unwind$?type_case_integer@?$output_processor@_WV?$string_output_adapter@_W@__crt_stdio_output@@V?$standard_base@_WV?$string_output_adapter@_W@__crt_stdio_output@@@2@@__crt_stdio_output@@AEAA_NI_N@Z 00000001800d7a60     libucrt:output.obj
 0002:00099a78       $unwind$?WriteBrotliData@BrotliCompressor@brotli@@QEAA_N_N0PEA_KPEAPEAE@Z 00000001800d7a78     encode.obj
 0002:00099a98       $unwind$?WriteMetaBlockInternal@BrotliCompressor@brotli@@AEAA_N_N0PEA_KPEAPEAE@Z 00000001800d7a98     encode.obj
 0002:00099ac0       $chain$1$?WriteMetaBlockInternal@BrotliCompressor@brotli@@AEAA_N_N0PEA_KPEAPEAE@Z 00000001800d7ac0     encode.obj
 0002:00099ad4       $chain$2$?WriteMetaBlockInternal@BrotliCompressor@brotli@@AEAA_N_N0PEA_KPEAPEAE@Z 00000001800d7ad4     encode.obj
 0002:00099ae4       $unwind$?BrotliCompress@brotli@@YAHUBrotliParams@1@PEAVBrotliIn@1@PEAVBrotliOut@1@@Z 00000001800d7ae4     encode.obj
 0002:00099b04       $unwind$?_Assign_grow@?$_Hash_vec@V?$allocator@V?$_List_unchecked_iterator@V?$_List_val@U?$_List_simple_types@U?$pair@$$CBIH@std@@@std@@@std@@@std@@@std@@@std@@QEAAX_KV?$_List_unchecked_iterator@V?$_List_val@U?$_List_simple_types@U?$pair@$$CBIH@std@@@std@@@std@@@2@@Z 00000001800d7b04     encode.obj
 0002:00099b04       $unwind$?_Assign_grow@?$_Hash_vec@V?$allocator@V?$_List_unchecked_iterator@V?$_List_val@U?$_List_simple_types@U?$pair@$$CBV?$basic_string@DU?$char_traits@D@std@@V?$allocator@D@2@@std@@H@std@@@std@@@std@@@std@@@std@@@std@@QEAAX_KV?$_List_unchecked_iterator@V?$_List_val@U?$_List_simple_types@U?$pair@$$CBV?$basic_string@DU?$char_traits@D@std@@V?$allocator@D@2@@std@@H@std@@@std@@@std@@@2@@Z 00000001800d7b04     encode.obj
 0002:00099b14       $chain$0$?_Assign_grow@?$_Hash_vec@V?$allocator@V?$_List_unchecked_iterator@V?$_List_val@U?$_List_simple_types@U?$pair@$$CBIH@std@@@std@@@std@@@std@@@std@@@std@@QEAAX_KV?$_List_unchecked_iterator@V?$_List_val@U?$_List_simple_types@U?$pair@$$CBIH@std@@@std@@@std@@@2@@Z 00000001800d7b14     encode.obj
 0002:00099b14       $chain$0$?_Assign_grow@?$_Hash_vec@V?$allocator@V?$_List_unchecked_iterator@V?$_List_val@U?$_List_simple_types@U?$pair@$$CBV?$basic_string@DU?$char_traits@D@std@@V?$allocator@D@2@@std@@H@std@@@std@@@std@@@std@@@std@@@std@@QEAAX_KV?$_List_unchecked_iterator@V?$_List_val@U?$_List_simple_types@U?$pair@$$CBV?$basic_string@DU?$char_traits@D@std@@V?$allocator@D@2@@std@@H@std@@@std@@@std@@@2@@Z 00000001800d7b14     encode.obj
 0002:00099b28       $chain$1$?_Assign_grow@?$_Hash_vec@V?$allocator@V?$_List_unchecked_iterator@V?$_List_val@U?$_List_simple_types@U?$pair@$$CBIH@std@@@std@@@std@@@std@@@std@@@std@@QEAAX_KV?$_List_unchecked_iterator@V?$_List_val@U?$_List_simple_types@U?$pair@$$CBIH@std@@@std@@@std@@@2@@Z 00000001800d7b28     encode.obj
 0002:00099b28       $chain$1$?_Assign_grow@?$_Hash_vec@V?$allocator@V?$_List_unchecked_iterator@V?$_List_val@U?$_List_simple_types@U?$pair@$$CBV?$basic_string@DU?$char_traits@D@std@@V?$allocator@D@2@@std@@H@std@@@std@@@std@@@std@@@std@@@std@@QEAAX_KV?$_List_unchecked_iterator@V?$_List_val@U?$_List_simple_types@U?$pair@$$CBV?$basic_string@DU?$char_traits@D@std@@V?$allocator@D@2@@std@@H@std@@@std@@@std@@@2@@Z 00000001800d7b28     encode.obj
 0002:00099b38       $chain$2$?_Assign_grow@?$_Hash_vec@V?$allocator@V?$_List_unchecked_iterator@V?$_List_val@U?$_List_simple_types@U?$pair@$$CBIH@std@@@std@@@std@@@std@@@std@@@std@@QEAAX_KV?$_List_unchecked_iterator@V?$_List_val@U?$_List_simple_types@U?$pair@$$CBIH@std@@@std@@@std@@@2@@Z 00000001800d7b38     encode.obj
 0002:00099b38       $chain$2$?_Assign_grow@?$_Hash_vec@V?$allocator@V?$_List_unchecked_iterator@V?$_List_val@U?$_List_simple_types@U?$pair@$$CBV?$basic_string@DU?$char_traits@D@std@@V?$allocator@D@2@@std@@H@std@@@std@@@std@@@std@@@std@@@std@@QEAAX_KV?$_List_unchecked_iterator@V?$_List_val@U?$_List_simple_types@U?$pair@$$CBV?$basic_string@DU?$char_traits@D@std@@V?$allocator@D@2@@std@@H@std@@@std@@@std@@@2@@Z 00000001800d7b38     encode.obj
 0002:00099b4c       $unwind$??$_Try_emplace@AEBI$$V@?$_Hash@V?$_Umap_traits@IHV?$_Uhash_compare@IU?$hash@I@std@@U?$equal_to@I@2@@std@@V?$allocator@U?$pair@$$CBIH@std@@@2@$0A@@std@@@std@@IEAA?AU?$pair@PEAU?$_List_node@U?$pair@$$CBIH@std@@PEAX@std@@_N@1@AEBI@Z 00000001800d7b4c     encode.obj
 0002:00099b60       $chain$0$??$_Try_emplace@AEBI$$V@?$_Hash@V?$_Umap_traits@IHV?$_Uhash_compare@IU?$hash@I@std@@U?$equal_to@I@2@@std@@V?$allocator@U?$pair@$$CBIH@std@@@2@$0A@@std@@@std@@IEAA?AU?$pair@PEAU?$_List_node@U?$pair@$$CBIH@std@@PEAX@std@@_N@1@AEBI@Z 00000001800d7b60     encode.obj
 0002:00099b74       $chain$2$??$_Try_emplace@AEBI$$V@?$_Hash@V?$_Umap_traits@IHV?$_Uhash_compare@IU?$hash@I@std@@U?$equal_to@I@2@@std@@V?$allocator@U?$pair@$$CBIH@std@@@2@$0A@@std@@@std@@IEAA?AU?$pair@PEAU?$_List_node@U?$pair@$$CBIH@std@@PEAX@std@@_N@1@AEBI@Z 00000001800d7b74     encode.obj
 0002:00099b88       $chain$3$??$_Try_emplace@AEBI$$V@?$_Hash@V?$_Umap_traits@IHV?$_Uhash_compare@IU?$hash@I@std@@U?$equal_to@I@2@@std@@V?$allocator@U?$pair@$$CBIH@std@@@2@$0A@@std@@@std@@IEAA?AU?$pair@PEAU?$_List_node@U?$pair@$$CBIH@std@@PEAX@std@@_N@1@AEBI@Z 00000001800d7b88     encode.obj
 0002:00099b98       $unwind$??$_Try_emplace@AEBV?$basic_string@DU?$char_traits@D@std@@V?$allocator@D@2@@std@@$$V@?$_Hash@V?$_Umap_traits@V?$basic_string@DU?$char_traits@D@std@@V?$allocator@D@2@@std@@HV?$_Uhash_compare@V?$basic_string@DU?$char_traits@D@std@@V?$allocator@D@2@@std@@U?$hash@V?$basic_string@DU?$char_traits@D@std@@V?$allocator@D@2@@std@@@2@U?$equal_to@V?$basic_string@DU?$char_traits@D@std@@V?$allocator@D@2@@std@@@2@@2@V?$allocator@U?$pair@$$CBV?$basic_string@DU?$char_traits@D@std@@V?$allocator@D@2@@std@@H@std@@@2@$0A@@std@@@std@@IEAA?AU?$pair@PEAU?$_List_node@U?$pair@$$CBV?$basic_string@DU?$char_traits@D@std@@V?$allocator@D@2@@std@@H@std@@PEAX@std@@_N@1@AEBV?$basic_string@DU?$char_traits@D@std@@V?$allocator@D@2@@1@@Z 00000001800d7b98     encode.obj
 0002:00099bb4       $unwind$??$_Reallocate_grow_by@V<lambda_65e615be2a453ca0576c979606f46740>@@PEBD_K@?$basic_string@DU?$char_traits@D@std@@V?$allocator@D@2@@std@@AEAAAEAV01@_KV<lambda_65e615be2a453ca0576c979606f46740>@@PEBD_K@Z 00000001800d7bb4     encode.obj
 0002:00099bc4       $chain$3$??$_Reallocate_grow_by@V<lambda_65e615be2a453ca0576c979606f46740>@@PEBD_K@?$basic_string@DU?$char_traits@D@std@@V?$allocator@D@2@@std@@AEAAAEAV01@_KV<lambda_65e615be2a453ca0576c979606f46740>@@PEBD_K@Z 00000001800d7bc4     encode.obj
 0002:00099be4       $chain$4$??$_Reallocate_grow_by@V<lambda_65e615be2a453ca0576c979606f46740>@@PEBD_K@?$basic_string@DU?$char_traits@D@std@@V?$allocator@D@2@@std@@AEAAAEAV01@_KV<lambda_65e615be2a453ca0576c979606f46740>@@PEBD_K@Z 00000001800d7be4     encode.obj
 0002:00099bf4       $chain$5$??$_Reallocate_grow_by@V<lambda_65e615be2a453ca0576c979606f46740>@@PEBD_K@?$basic_string@DU?$char_traits@D@std@@V?$allocator@D@2@@std@@AEAAAEAV01@_KV<lambda_65e615be2a453ca0576c979606f46740>@@PEBD_K@Z 00000001800d7bf4     encode.obj
 0002:00099c14       $chain$1$?_Forced_rehash@?$_Hash@V?$_Umap_traits@IHV?$_Uhash_compare@IU?$hash@I@std@@U?$equal_to@I@2@@std@@V?$allocator@U?$pair@$$CBIH@std@@@2@$0A@@std@@@std@@IEAAX_K@Z 00000001800d7c14     encode.obj
 0002:00099c2c       $chain$2$?_Forced_rehash@?$_Hash@V?$_Umap_traits@IHV?$_Uhash_compare@IU?$hash@I@std@@U?$equal_to@I@2@@std@@V?$allocator@U?$pair@$$CBIH@std@@@2@$0A@@std@@@std@@IEAAX_K@Z 00000001800d7c2c     encode.obj
 0002:00099c40       $chain$3$?_Forced_rehash@?$_Hash@V?$_Umap_traits@IHV?$_Uhash_compare@IU?$hash@I@std@@U?$equal_to@I@2@@std@@V?$allocator@U?$pair@$$CBIH@std@@@2@$0A@@std@@@std@@IEAAX_K@Z 00000001800d7c40     encode.obj
 0002:00099c50       $chain$5$?_Forced_rehash@?$_Hash@V?$_Umap_traits@IHV?$_Uhash_compare@IU?$hash@I@std@@U?$equal_to@I@2@@std@@V?$allocator@U?$pair@$$CBIH@std@@@2@$0A@@std@@@std@@IEAAX_K@Z 00000001800d7c50     encode.obj
 0002:00099c6c       $chain$6$?_Forced_rehash@?$_Hash@V?$_Umap_traits@IHV?$_Uhash_compare@IU?$hash@I@std@@U?$equal_to@I@2@@std@@V?$allocator@U?$pair@$$CBIH@std@@@2@$0A@@std@@@std@@IEAAX_K@Z 00000001800d7c6c     encode.obj
 0002:00099c7c       $unwind$?_Forced_rehash@?$_Hash@V?$_Umap_traits@V?$basic_string@DU?$char_traits@D@std@@V?$allocator@D@2@@std@@HV?$_Uhash_compare@V?$basic_string@DU?$char_traits@D@std@@V?$allocator@D@2@@std@@U?$hash@V?$basic_string@DU?$char_traits@D@std@@V?$allocator@D@2@@std@@@2@U?$equal_to@V?$basic_string@DU?$char_traits@D@std@@V?$allocator@D@2@@std@@@2@@2@V?$allocator@U?$pair@$$CBV?$basic_string@DU?$char_traits@D@std@@V?$allocator@D@2@@std@@H@std@@@2@$0A@@std@@@std@@IEAAX_K@Z 00000001800d7c7c     encode.obj
 0002:00099c88       $chain$3$?_Forced_rehash@?$_Hash@V?$_Umap_traits@V?$basic_string@DU?$char_traits@D@std@@V?$allocator@D@2@@std@@HV?$_Uhash_compare@V?$basic_string@DU?$char_traits@D@std@@V?$allocator@D@2@@std@@U?$hash@V?$basic_string@DU?$char_traits@D@std@@V?$allocator@D@2@@std@@@2@U?$equal_to@V?$basic_string@DU?$char_traits@D@std@@V?$allocator@D@2@@std@@@2@@2@V?$allocator@U?$pair@$$CBV?$basic_string@DU?$char_traits@D@std@@V?$allocator@D@2@@std@@H@std@@@2@$0A@@std@@@std@@IEAAX_K@Z 00000001800d7c88     encode.obj
 0002:00099ca8       $chain$5$?_Forced_rehash@?$_Hash@V?$_Umap_traits@V?$basic_string@DU?$char_traits@D@std@@V?$allocator@D@2@@std@@HV?$_Uhash_compare@V?$basic_string@DU?$char_traits@D@std@@V?$allocator@D@2@@std@@U?$hash@V?$basic_string@DU?$char_traits@D@std@@V?$allocator@D@2@@std@@@2@U?$equal_to@V?$basic_string@DU?$char_traits@D@std@@V?$allocator@D@2@@std@@@2@@2@V?$allocator@U?$pair@$$CBV?$basic_string@DU?$char_traits@D@std@@V?$allocator@D@2@@std@@H@std@@@2@$0A@@std@@@std@@IEAAX_K@Z 00000001800d7ca8     encode.obj
 0002:00099cc0       $chain$6$?_Forced_rehash@?$_Hash@V?$_Umap_traits@V?$basic_string@DU?$char_traits@D@std@@V?$allocator@D@2@@std@@HV?$_Uhash_compare@V?$basic_string@DU?$char_traits@D@std@@V?$allocator@D@2@@std@@U?$hash@V?$basic_string@DU?$char_traits@D@std@@V?$allocator@D@2@@std@@@2@U?$equal_to@V?$basic_string@DU?$char_traits@D@std@@V?$allocator@D@2@@std@@@2@@2@V?$allocator@U?$pair@$$CBV?$basic_string@DU?$char_traits@D@std@@V?$allocator@D@2@@std@@H@std@@@2@$0A@@std@@@std@@IEAAX_K@Z 00000001800d7cc0     encode.obj
 0002:00099cd0       $chain$8$?_Forced_rehash@?$_Hash@V?$_Umap_traits@V?$basic_string@DU?$char_traits@D@std@@V?$allocator@D@2@@std@@HV?$_Uhash_compare@V?$basic_string@DU?$char_traits@D@std@@V?$allocator@D@2@@std@@U?$hash@V?$basic_string@DU?$char_traits@D@std@@V?$allocator@D@2@@std@@@2@U?$equal_to@V?$basic_string@DU?$char_traits@D@std@@V?$allocator@D@2@@std@@@2@@2@V?$allocator@U?$pair@$$CBV?$basic_string@DU?$char_traits@D@std@@V?$allocator@D@2@@std@@H@std@@@2@$0A@@std@@@std@@IEAAX_K@Z 00000001800d7cd0     encode.obj
 0002:00099cf8       $chain$9$?_Forced_rehash@?$_Hash@V?$_Umap_traits@V?$basic_string@DU?$char_traits@D@std@@V?$allocator@D@2@@std@@HV?$_Uhash_compare@V?$basic_string@DU?$char_traits@D@std@@V?$allocator@D@2@@std@@U?$hash@V?$basic_string@DU?$char_traits@D@std@@V?$allocator@D@2@@std@@@2@U?$equal_to@V?$basic_string@DU?$char_traits@D@std@@V?$allocator@D@2@@std@@@2@@2@V?$allocator@U?$pair@$$CBV?$basic_string@DU?$char_traits@D@std@@V?$allocator@D@2@@std@@H@std@@@2@$0A@@std@@@std@@IEAAX_K@Z 00000001800d7cf8     encode.obj
 0002:00099d08       $unwind$??$_Reallocate_grow_by@V<lambda_9013ee9e23efe4882b67eff5b0ecf103>@@$$V@?$basic_string@DU?$char_traits@D@std@@V?$allocator@D@2@@std@@AEAAAEAV01@_KV<lambda_9013ee9e23efe4882b67eff5b0ecf103>@@@Z 00000001800d7d08     encode.obj
 0002:00099d14       $chain$2$??$_Reallocate_grow_by@V<lambda_9013ee9e23efe4882b67eff5b0ecf103>@@$$V@?$basic_string@DU?$char_traits@D@std@@V?$allocator@D@2@@std@@AEAAAEAV01@_KV<lambda_9013ee9e23efe4882b67eff5b0ecf103>@@@Z 00000001800d7d14     encode.obj
 0002:00099d30       $chain$3$??$_Reallocate_grow_by@V<lambda_9013ee9e23efe4882b67eff5b0ecf103>@@$$V@?$basic_string@DU?$char_traits@D@std@@V?$allocator@D@2@@std@@AEAAAEAV01@_KV<lambda_9013ee9e23efe4882b67eff5b0ecf103>@@@Z 00000001800d7d30     encode.obj
 0002:00099d40       $chain$4$??$_Reallocate_grow_by@V<lambda_9013ee9e23efe4882b67eff5b0ecf103>@@$$V@?$basic_string@DU?$char_traits@D@std@@V?$allocator@D@2@@std@@AEAAAEAV01@_KV<lambda_9013ee9e23efe4882b67eff5b0ecf103>@@@Z 00000001800d7d40     encode.obj
 0002:00099d5c       $unwind$??$_Reallocate_grow_by@V<lambda_319d5e083f45f90dcdce5dce53cbb275>@@D@?$basic_string@DU?$char_traits@D@std@@V?$allocator@D@2@@std@@AEAAAEAV01@_KV<lambda_319d5e083f45f90dcdce5dce53cbb275>@@D@Z 00000001800d7d5c     encode.obj
 0002:00099d6c       $chain$2$??$_Reallocate_grow_by@V<lambda_319d5e083f45f90dcdce5dce53cbb275>@@D@?$basic_string@DU?$char_traits@D@std@@V?$allocator@D@2@@std@@AEAAAEAV01@_KV<lambda_319d5e083f45f90dcdce5dce53cbb275>@@D@Z 00000001800d7d6c     encode.obj
 0002:00099d88       $chain$3$??$_Reallocate_grow_by@V<lambda_319d5e083f45f90dcdce5dce53cbb275>@@D@?$basic_string@DU?$char_traits@D@std@@V?$allocator@D@2@@std@@AEAAAEAV01@_KV<lambda_319d5e083f45f90dcdce5dce53cbb275>@@D@Z 00000001800d7d88     encode.obj
 0002:00099d98       $chain$4$??$_Reallocate_grow_by@V<lambda_319d5e083f45f90dcdce5dce53cbb275>@@D@?$basic_string@DU?$char_traits@D@std@@V?$allocator@D@2@@std@@AEAAAEAV01@_KV<lambda_319d5e083f45f90dcdce5dce53cbb275>@@D@Z 00000001800d7d98     encode.obj
 0002:00099db4       $unwind$?CreateHuffmanTree@brotli@@YAXPEBHHHPEAE@Z 00000001800d7db4     entropy_encode.obj
 0002:00099dd8       $unwind$?WriteHuffmanTreeRepetitions@brotli@@YAXHHHPEAV?$vector@EV?$allocator@E@std@@@std@@0@Z 00000001800d7dd8     entropy_encode.obj
 0002:00099de8       $unwind$?WriteHuffmanTreeRepetitionsZeros@brotli@@YAXHPEAV?$vector@EV?$allocator@E@std@@@std@@0@Z 00000001800d7de8     entropy_encode.obj
 0002:00099df8       $unwind$?OptimizeHuffmanCountsForRle@brotli@@YAHHPEAH@Z 00000001800d7df8     entropy_encode.obj
 0002:00099e08       $chain$0$?OptimizeHuffmanCountsForRle@brotli@@YAHHPEAH@Z 00000001800d7e08     entropy_encode.obj
 0002:00099e1c       $chain$4$?OptimizeHuffmanCountsForRle@brotli@@YAHHPEAH@Z 00000001800d7e1c     entropy_encode.obj
 0002:00099e3c       $chain$5$?OptimizeHuffmanCountsForRle@brotli@@YAHHPEAH@Z 00000001800d7e3c     entropy_encode.obj
 0002:00099e4c       $chain$6$?OptimizeHuffmanCountsForRle@brotli@@YAHHPEAH@Z 00000001800d7e4c     entropy_encode.obj
 0002:00099e60       $chain$11$?OptimizeHuffmanCountsForRle@brotli@@YAHHPEAH@Z 00000001800d7e60     entropy_encode.obj
 0002:00099e60       $chain$7$?OptimizeHuffmanCountsForRle@brotli@@YAHHPEAH@Z 00000001800d7e60     entropy_encode.obj
 0002:00099e70       $chain$8$?OptimizeHuffmanCountsForRle@brotli@@YAHHPEAH@Z 00000001800d7e70     entropy_encode.obj
 0002:00099e84       $chain$9$?OptimizeHuffmanCountsForRle@brotli@@YAHHPEAH@Z 00000001800d7e84     entropy_encode.obj
 0002:00099e98       $unwind$?WriteHuffmanTree@brotli@@YAXPEBEIPEAV?$vector@EV?$allocator@E@std@@@std@@1@Z 00000001800d7e98     entropy_encode.obj
 0002:00099eb4       $unwind$?ConvertBitDepthsToSymbols@brotli@@YAXPEBEHPEAG@Z 00000001800d7eb4     entropy_encode.obj
 0002:00099ec8       $chain$0$?ConvertBitDepthsToSymbols@brotli@@YAXPEBEHPEAG@Z 00000001800d7ec8     entropy_encode.obj
 0002:00099edc       $chain$1$?ConvertBitDepthsToSymbols@brotli@@YAXPEBEHPEAG@Z 00000001800d7edc     entropy_encode.obj
 0002:00099eec       $unwind$??$_Emplace_reallocate@AEBUHuffmanTree@?A0xbf9879d9@brotli@@@?$vector@UHuffmanTree@?A0xbf9879d9@brotli@@V?$allocator@UHuffmanTree@?A0xbf9879d9@brotli@@@std@@@std@@QEAAPEAUHuffmanTree@?A0xbf9879d9@brotli@@QEAU234@AEBU234@@Z 00000001800d7eec     entropy_encode.obj
 0002:00099eec       $unwind$??$_Emplace_reallocate@UHuffmanTree@?A0xbf9879d9@brotli@@@?$vector@UHuffmanTree@?A0xbf9879d9@brotli@@V?$allocator@UHuffmanTree@?A0xbf9879d9@brotli@@@std@@@std@@QEAAPEAUHuffmanTree@?A0xbf9879d9@brotli@@QEAU234@$$QEAU234@@Z 00000001800d7eec     entropy_encode.obj
 0002:00099efc       $chain$3$??$_Emplace_reallocate@AEBUHuffmanTree@?A0xbf9879d9@brotli@@@?$vector@UHuffmanTree@?A0xbf9879d9@brotli@@V?$allocator@UHuffmanTree@?A0xbf9879d9@brotli@@@std@@@std@@QEAAPEAUHuffmanTree@?A0xbf9879d9@brotli@@QEAU234@AEBU234@@Z 00000001800d7efc     entropy_encode.obj
 0002:00099efc       $chain$3$??$_Emplace_reallocate@UHuffmanTree@?A0xbf9879d9@brotli@@@?$vector@UHuffmanTree@?A0xbf9879d9@brotli@@V?$allocator@UHuffmanTree@?A0xbf9879d9@brotli@@@std@@@std@@QEAAPEAUHuffmanTree@?A0xbf9879d9@brotli@@QEAU234@$$QEAU234@@Z 00000001800d7efc     entropy_encode.obj
 0002:00099f1c       $chain$5$??$_Emplace_reallocate@AEBUHuffmanTree@?A0xbf9879d9@brotli@@@?$vector@UHuffmanTree@?A0xbf9879d9@brotli@@V?$allocator@UHuffmanTree@?A0xbf9879d9@brotli@@@std@@@std@@QEAAPEAUHuffmanTree@?A0xbf9879d9@brotli@@QEAU234@AEBU234@@Z 00000001800d7f1c     entropy_encode.obj
 0002:00099f1c       $chain$5$??$_Emplace_reallocate@UHuffmanTree@?A0xbf9879d9@brotli@@@?$vector@UHuffmanTree@?A0xbf9879d9@brotli@@V?$allocator@UHuffmanTree@?A0xbf9879d9@brotli@@@std@@@std@@QEAAPEAUHuffmanTree@?A0xbf9879d9@brotli@@QEAU234@$$QEAU234@@Z 00000001800d7f1c     entropy_encode.obj
 0002:00099f3c       $chain$6$??$_Emplace_reallocate@AEBUHuffmanTree@?A0xbf9879d9@brotli@@@?$vector@UHuffmanTree@?A0xbf9879d9@brotli@@V?$allocator@UHuffmanTree@?A0xbf9879d9@brotli@@@std@@@std@@QEAAPEAUHuffmanTree@?A0xbf9879d9@brotli@@QEAU234@AEBU234@@Z 00000001800d7f3c     entropy_encode.obj
 0002:00099f3c       $chain$6$??$_Emplace_reallocate@UHuffmanTree@?A0xbf9879d9@brotli@@@?$vector@UHuffmanTree@?A0xbf9879d9@brotli@@V?$allocator@UHuffmanTree@?A0xbf9879d9@brotli@@@std@@@std@@QEAAPEAUHuffmanTree@?A0xbf9879d9@brotli@@QEAU234@$$QEAU234@@Z 00000001800d7f3c     entropy_encode.obj
 0002:00099f4c       $unwind$??$_Insertion_sort_unchecked@PEAUHuffmanTree@?A0xbf9879d9@brotli@@P6A_NAEBU123@0@Z@std@@YAPEAUHuffmanTree@?A0xbf9879d9@brotli@@QEAU123@0P6A_NAEBU123@1@Z@Z 00000001800d7f4c     entropy_encode.obj
 0002:00099f58       $chain$3$??$_Insertion_sort_unchecked@PEAUHuffmanTree@?A0xbf9879d9@brotli@@P6A_NAEBU123@0@Z@std@@YAPEAUHuffmanTree@?A0xbf9879d9@brotli@@QEAU123@0P6A_NAEBU123@1@Z@Z 00000001800d7f58     entropy_encode.obj
 0002:00099f78       $chain$5$??$_Insertion_sort_unchecked@PEAUHuffmanTree@?A0xbf9879d9@brotli@@P6A_NAEBU123@0@Z@std@@YAPEAUHuffmanTree@?A0xbf9879d9@brotli@@QEAU123@0P6A_NAEBU123@1@Z@Z 00000001800d7f78     entropy_encode.obj
 0002:00099f8c       $chain$6$??$_Insertion_sort_unchecked@PEAUHuffmanTree@?A0xbf9879d9@brotli@@P6A_NAEBU123@0@Z@std@@YAPEAUHuffmanTree@?A0xbf9879d9@brotli@@QEAU123@0P6A_NAEBU123@1@Z@Z 00000001800d7f8c     entropy_encode.obj
 0002:00099f9c       $unwind$??$_Stable_sort_unchecked@PEAUHuffmanTree@?A0xbf9879d9@brotli@@P6A_NAEBU123@0@Z@std@@YAXQEAUHuffmanTree@?A0xbf9879d9@brotli@@0_J01P6A_NAEBU123@2@Z@Z 00000001800d7f9c     entropy_encode.obj
 0002:00099fbc       $unwind$??$_Buffered_merge_sort_unchecked@PEAUHuffmanTree@?A0xbf9879d9@brotli@@P6A_NAEBU123@0@Z@std@@YAXQEAUHuffmanTree@?A0xbf9879d9@brotli@@0_J0P6A_NAEBU123@2@Z@Z 00000001800d7fbc     entropy_encode.obj
 0002:00099fcc       $chain$2$??$_Buffered_merge_sort_unchecked@PEAUHuffmanTree@?A0xbf9879d9@brotli@@P6A_NAEBU123@0@Z@std@@YAXQEAUHuffmanTree@?A0xbf9879d9@brotli@@0_J0P6A_NAEBU123@2@Z@Z 00000001800d7fcc     entropy_encode.obj
 0002:00099fe8       $chain$3$??$_Buffered_merge_sort_unchecked@PEAUHuffmanTree@?A0xbf9879d9@brotli@@P6A_NAEBU123@0@Z@std@@YAXQEAUHuffmanTree@?A0xbf9879d9@brotli@@0_J0P6A_NAEBU123@2@Z@Z 00000001800d7fe8     entropy_encode.obj
 0002:00099ff8       $unwind$??$_Buffered_inplace_merge_unchecked@PEAUHuffmanTree@?A0xbf9879d9@brotli@@P6A_NAEBU123@0@Z@std@@YAXPEAUHuffmanTree@?A0xbf9879d9@brotli@@00_J1QEAU123@_JP6A_NAEBU123@4@Z@Z 00000001800d7ff8     entropy_encode.obj
 0002:0009a008       $chain$0$??$_Buffered_inplace_merge_unchecked@PEAUHuffmanTree@?A0xbf9879d9@brotli@@P6A_NAEBU123@0@Z@std@@YAXPEAUHuffmanTree@?A0xbf9879d9@brotli@@00_J1QEAU123@_JP6A_NAEBU123@4@Z@Z 00000001800d8008     entropy_encode.obj
 0002:0009a01c       $chain$5$??$_Buffered_inplace_merge_unchecked@PEAUHuffmanTree@?A0xbf9879d9@brotli@@P6A_NAEBU123@0@Z@std@@YAXPEAUHuffmanTree@?A0xbf9879d9@brotli@@00_J1QEAU123@_JP6A_NAEBU123@4@Z@Z 00000001800d801c     entropy_encode.obj
 0002:0009a03c       $chain$6$??$_Buffered_inplace_merge_unchecked@PEAUHuffmanTree@?A0xbf9879d9@brotli@@P6A_NAEBU123@0@Z@std@@YAXPEAUHuffmanTree@?A0xbf9879d9@brotli@@00_J1QEAU123@_JP6A_NAEBU123@4@Z@Z 00000001800d803c     entropy_encode.obj
 0002:0009a04c       $unwind$??$_Chunked_merge_unchecked@PEAUHuffmanTree@?A0xbf9879d9@brotli@@PEAU123@P6A_NAEBU123@0@Z@std@@YAXPEAUHuffmanTree@?A0xbf9879d9@brotli@@QEAU123@0_J_JP6A_NAEBU123@4@Z@Z 00000001800d804c     entropy_encode.obj
 0002:0009a05c       $chain$3$??$_Chunked_merge_unchecked@PEAUHuffmanTree@?A0xbf9879d9@brotli@@PEAU123@P6A_NAEBU123@0@Z@std@@YAXPEAUHuffmanTree@?A0xbf9879d9@brotli@@QEAU123@0_J_JP6A_NAEBU123@4@Z@Z 00000001800d805c     entropy_encode.obj
 0002:0009a07c       $chain$4$??$_Chunked_merge_unchecked@PEAUHuffmanTree@?A0xbf9879d9@brotli@@PEAU123@P6A_NAEBU123@0@Z@std@@YAXPEAUHuffmanTree@?A0xbf9879d9@brotli@@QEAU123@0_J_JP6A_NAEBU123@4@Z@Z 00000001800d807c     entropy_encode.obj
 0002:0009a08c       $unwind$??$_Buffered_inplace_merge_unchecked_impl@PEAUHuffmanTree@?A0xbf9879d9@brotli@@P6A_NAEBU123@0@Z@std@@YAXPEAUHuffmanTree@?A0xbf9879d9@brotli@@00_J1QEAU123@_JP6A_NAEBU123@4@Z@Z 00000001800d808c     entropy_encode.obj
 0002:0009a0a4       $unwind$??$_Buffered_inplace_merge_divide_and_conquer2@PEAUHuffmanTree@?A0xbf9879d9@brotli@@P6A_NAEBU123@0@Z@std@@YAXPEAUHuffmanTree@?A0xbf9879d9@brotli@@00_J1QEAU123@_JP6A_NAEBU123@4@Z0011@Z 00000001800d80a4     entropy_encode.obj
 0002:0009a0b8       $chain$0$??$_Buffered_inplace_merge_divide_and_conquer2@PEAUHuffmanTree@?A0xbf9879d9@brotli@@P6A_NAEBU123@0@Z@std@@YAXPEAUHuffmanTree@?A0xbf9879d9@brotli@@00_J1QEAU123@_JP6A_NAEBU123@4@Z0011@Z 00000001800d80b8     entropy_encode.obj
 0002:0009a0cc       $chain$1$??$_Buffered_inplace_merge_divide_and_conquer2@PEAUHuffmanTree@?A0xbf9879d9@brotli@@P6A_NAEBU123@0@Z@std@@YAXPEAUHuffmanTree@?A0xbf9879d9@brotli@@00_J1QEAU123@_JP6A_NAEBU123@4@Z0011@Z 00000001800d80cc     entropy_encode.obj
 0002:0009a0dc       $unwind$?BuildHistograms@brotli@@YAXPEBUCommand@1@_KAEBVBlockSplit@1@22PEBE_K4EEAEBV?$vector@HV?$allocator@H@std@@@std@@PEAV?$vector@U?$Histogram@$0BAA@@brotli@@V?$allocator@U?$Histogram@$0BAA@@brotli@@@std@@@5@PEAV?$vector@U?$Histogram@$0CMA@@brotli@@V?$allocator@U?$Histogram@$0CMA@@brotli@@@std@@@5@PEAV?$vector@U?$Histogram@$0CAI@@brotli@@V?$allocator@U?$Histogram@$0CAI@@brotli@@@std@@@5@@Z 00000001800d80dc     histogram.obj
 0002:0009a0f4       $unwind$?EstimateBitCostsForLiteralsUTF8@brotli@@YAX_K000PEBEPEAM@Z 00000001800d80f4     literal_cost.obj
 0002:0009a118       $chain$6$?EstimateBitCostsForLiteralsUTF8@brotli@@YAX_K000PEBEPEAM@Z 00000001800d8118     literal_cost.obj
 0002:0009a144       $chain$7$?EstimateBitCostsForLiteralsUTF8@brotli@@YAX_K000PEBEPEAM@Z 00000001800d8144     literal_cost.obj
 0002:0009a154       $unwind$?EstimateBitCostsForLiterals@brotli@@YAX_K000PEBEPEAM@Z 00000001800d8154     literal_cost.obj
 0002:0009a170       $chain$5$?EstimateBitCostsForLiterals@brotli@@YAX_K000PEBEPEAM@Z 00000001800d8170     literal_cost.obj
 0002:0009a198       $chain$6$?EstimateBitCostsForLiterals@brotli@@YAX_K000PEBEPEAM@Z 00000001800d8198     literal_cost.obj
 0002:0009a1a8       $unwind$?BitsEntropy@brotli@@YANPEBHH@Z 00000001800d81a8     metablock.obj
 0002:0009a1bc       $chain$2$?BitsEntropy@brotli@@YANPEBHH@Z 00000001800d81bc     metablock.obj
 0002:0009a1d8       $chain$3$?BitsEntropy@brotli@@YANPEBHH@Z 00000001800d81d8     metablock.obj
 0002:0009a1e8       $unwind$?BuildMetaBlock@brotli@@YAXPEBE_K1EEPEBUCommand@1@_KH_NPEAUMetaBlockSplit@1@@Z 00000001800d81e8     metablock.obj
 0002:0009a200       $chain$0$?BuildMetaBlock@brotli@@YAXPEBE_K1EEPEBUCommand@1@_KH_NPEAUMetaBlockSplit@1@@Z 00000001800d8200     metablock.obj
 0002:0009a214       $chain$2$?BuildMetaBlock@brotli@@YAXPEBE_K1EEPEBUCommand@1@_KH_NPEAUMetaBlockSplit@1@@Z 00000001800d8214     metablock.obj
 0002:0009a214       $chain$4$?BuildMetaBlock@brotli@@YAXPEBE_K1EEPEBUCommand@1@_KH_NPEAUMetaBlockSplit@1@@Z 00000001800d8214     metablock.obj
 0002:0009a228       $chain$3$?BuildMetaBlock@brotli@@YAXPEBE_K1EEPEBUCommand@1@_KH_NPEAUMetaBlockSplit@1@@Z 00000001800d8228     metablock.obj
 0002:0009a238       $unwind$?BuildMetaBlockGreedy@brotli@@YAXPEBE_K1PEBUCommand@1@1PEAUMetaBlockSplit@1@@Z 00000001800d8238     metablock.obj
 0002:0009a258       $unwind$?FinishBlock@?$BlockSplitter@U?$Histogram@$0CAI@@brotli@@@brotli@@QEAAX_N@Z 00000001800d8258     metablock.obj
 0002:0009a26c       $chain$0$?FinishBlock@?$BlockSplitter@U?$Histogram@$0CAI@@brotli@@@brotli@@QEAAX_N@Z 00000001800d826c     metablock.obj
 0002:0009a280       $chain$1$?FinishBlock@?$BlockSplitter@U?$Histogram@$0CAI@@brotli@@@brotli@@QEAAX_N@Z 00000001800d8280     metablock.obj
 0002:0009a294       $chain$7$?FinishBlock@?$BlockSplitter@U?$Histogram@$0CAI@@brotli@@@brotli@@QEAAX_N@Z 00000001800d8294     metablock.obj
 0002:0009a2bc       $chain$8$?FinishBlock@?$BlockSplitter@U?$Histogram@$0CAI@@brotli@@@brotli@@QEAAX_N@Z 00000001800d82bc     metablock.obj
 0002:0009a2d0       $chain$9$?FinishBlock@?$BlockSplitter@U?$Histogram@$0CAI@@brotli@@@brotli@@QEAAX_N@Z 00000001800d82d0     metablock.obj
 0002:0009a2e0       $chain$10$?FinishBlock@?$BlockSplitter@U?$Histogram@$0CAI@@brotli@@@brotli@@QEAAX_N@Z 00000001800d82e0     metablock.obj
 0002:0009a2f0       $unwind$?FinishBlock@?$BlockSplitter@U?$Histogram@$0CMA@@brotli@@@brotli@@QEAAX_N@Z 00000001800d82f0     metablock.obj
 0002:0009a304       $chain$0$?FinishBlock@?$BlockSplitter@U?$Histogram@$0CMA@@brotli@@@brotli@@QEAAX_N@Z 00000001800d8304     metablock.obj
 0002:0009a318       $chain$1$?FinishBlock@?$BlockSplitter@U?$Histogram@$0CMA@@brotli@@@brotli@@QEAAX_N@Z 00000001800d8318     metablock.obj
 0002:0009a32c       $chain$7$?FinishBlock@?$BlockSplitter@U?$Histogram@$0CMA@@brotli@@@brotli@@QEAAX_N@Z 00000001800d832c     metablock.obj
 0002:0009a354       $chain$8$?FinishBlock@?$BlockSplitter@U?$Histogram@$0CMA@@brotli@@@brotli@@QEAAX_N@Z 00000001800d8354     metablock.obj
 0002:0009a368       $chain$9$?FinishBlock@?$BlockSplitter@U?$Histogram@$0CMA@@brotli@@@brotli@@QEAAX_N@Z 00000001800d8368     metablock.obj
 0002:0009a378       $chain$10$?FinishBlock@?$BlockSplitter@U?$Histogram@$0CMA@@brotli@@@brotli@@QEAAX_N@Z 00000001800d8378     metablock.obj
 0002:0009a388       $unwind$?FinishBlock@?$BlockSplitter@U?$Histogram@$0BAA@@brotli@@@brotli@@QEAAX_N@Z 00000001800d8388     metablock.obj
 0002:0009a39c       $chain$0$?FinishBlock@?$BlockSplitter@U?$Histogram@$0BAA@@brotli@@@brotli@@QEAAX_N@Z 00000001800d839c     metablock.obj
 0002:0009a3b0       $chain$1$?FinishBlock@?$BlockSplitter@U?$Histogram@$0BAA@@brotli@@@brotli@@QEAAX_N@Z 00000001800d83b0     metablock.obj
 0002:0009a3c4       $chain$7$?FinishBlock@?$BlockSplitter@U?$Histogram@$0BAA@@brotli@@@brotli@@QEAAX_N@Z 00000001800d83c4     metablock.obj
 0002:0009a3ec       $chain$8$?FinishBlock@?$BlockSplitter@U?$Histogram@$0BAA@@brotli@@@brotli@@QEAAX_N@Z 00000001800d83ec     metablock.obj
 0002:0009a404       $chain$9$?FinishBlock@?$BlockSplitter@U?$Histogram@$0BAA@@brotli@@@brotli@@QEAAX_N@Z 00000001800d8404     metablock.obj
 0002:0009a414       $chain$10$?FinishBlock@?$BlockSplitter@U?$Histogram@$0BAA@@brotli@@@brotli@@QEAAX_N@Z 00000001800d8414     metablock.obj
 0002:0009a424       xdata                      00000001800d8424     node:node.exe
 0002:0009a42c       $unwind$?__scrt_throw_std_bad_alloc@@YAXXZ 00000001800d842c     LIBCMT:throw_bad_alloc.obj
 0002:0009a42c       $unwind$?__scrt_throw_std_bad_array_new_length@@YAXXZ 00000001800d842c     LIBCMT:throw_bad_alloc.obj
 0002:0009a42c       $unwind$?_Xlength_error@std@@YAXPEBD@Z 00000001800d842c     libcpmt:xthrow.obj
 0002:0009a42c       $unwind$?_Xout_of_range@std@@YAXPEBD@Z 00000001800d842c     libcpmt:xthrow.obj
 0002:0009a42c       $unwind$_raise_exc         00000001800d842c     libucrt:fpexcept.obj
 0002:0009a438       $xdatasym                  00000001800d8438     LIBCMT:amdsecgs.obj
 0002:0009a43c       $unwind$__report_securityfailure 00000001800d843c     LIBCMT:gs_report.obj
 0002:0009a444       $unwind$__report_gsfailure 00000001800d8444     LIBCMT:gs_report.obj
 0002:0009a44c       $unwind$capture_current_context 00000001800d844c     LIBCMT:gs_report.obj
 0002:0009a458       $unwind$capture_previous_context 00000001800d8458     LIBCMT:gs_report.obj
 0002:0009a464       $unwind$??2@YAPEAX_KAEBUnothrow_t@std@@@Z 00000001800d8464     LIBCMT:new_scalar_nothrow.obj
 0002:0009a474       $cppxdata$??2@YAPEAX_KAEBUnothrow_t@std@@@Z 00000001800d8474     LIBCMT:new_scalar_nothrow.obj
 0002:0009a481       $stateUnwindMap$??2@YAPEAX_KAEBUnothrow_t@std@@@Z 00000001800d8481     LIBCMT:new_scalar_nothrow.obj
 0002:0009a484       $tryMap$??2@YAPEAX_KAEBUnothrow_t@std@@@Z 00000001800d8484     LIBCMT:new_scalar_nothrow.obj
 0002:0009a48c       $handlerMap$??2@YAPEAX_KAEBUnothrow_t@std@@@Z 00000001800d848c     LIBCMT:new_scalar_nothrow.obj
 0002:0009a494       $ip2state$??2@YAPEAX_KAEBUnothrow_t@std@@@Z 00000001800d8494     LIBCMT:new_scalar_nothrow.obj
 0002:0009a498       $unwind$?catch$0@?0???2@YAPEAX_KAEBUnothrow_t@std@@@Z@4HA 00000001800d8498     LIBCMT:new_scalar_nothrow.obj
 0002:0009a4a8       $cppxdata$?catch$0@?0???2@YAPEAX_KAEBUnothrow_t@std@@@Z@4HA 00000001800d84a8     LIBCMT:new_scalar_nothrow.obj
 0002:0009a4b2       $stateUnwindMap$?catch$0@?0???2@YAPEAX_KAEBUnothrow_t@std@@@Z@4HA 00000001800d84b2     LIBCMT:new_scalar_nothrow.obj
 0002:0009a4b4       $ip2state$?catch$0@?0???2@YAPEAX_KAEBUnothrow_t@std@@@Z@4HA 00000001800d84b4     LIBCMT:new_scalar_nothrow.obj
 0002:0009a4b8       $unwind$?dllmain_crt_process_attach@@YAHQEAUHINSTANCE__@@QEAX@Z 00000001800d84b8     LIBCMT:dll_dllmain.obj
 0002:0009a4f4       $unwind$?fin$0@?0??dllmain_crt_process_attach@@YAHQEAUHINSTANCE__@@QEAX@Z@4HA 00000001800d84f4     LIBCMT:dll_dllmain.obj
 0002:0009a4f4       $unwind$?fin$0@?0??dllmain_crt_process_detach@@YAH_N@Z@4HA 00000001800d84f4     LIBCMT:dll_dllmain.obj
 0002:0009a4f4       $unwind$?fin$1@?0??dllmain_crt_process_detach@@YAH_N@Z@4HA 00000001800d84f4     LIBCMT:dll_dllmain.obj
 0002:0009a4f4       $unwind$_IsNonwritableInCurrentImage$filt$0 00000001800d84f4     LIBCMT:pesect.obj
 0002:0009a4f4       $unwind$?filt$0@?0??CxxCallCatchBlock@__FrameHandler4@@SAPEAXPEAU_EXCEPTION_RECORD@@@Z@4HA 00000001800d84f4     libvcruntime:frame.obj
 0002:0009a4f4       $unwind$_query_new_handler$fin$0 00000001800d84f4     libucrt:new_handler.obj
 0002:0009a4f4       $unwind$?fin$0@?0???$?RV<lambda_0ae27a3a962d80f24befdcbee591983d>@@AEAV<lambda_8d0ee55de4b1038c4002e0adecdf1839>@@V<lambda_dc504788e8f1664fe9b84e20bfb512f2>@@@?$__crt_seh_guarded_call@X@@QEAAX$$QEAV<lambda_0ae27a3a962d80f24befdcbee591983d>@@AEAV<lambda_8d0ee55de4b1038c4002e0adecdf1839>@@$$QEAV<lambda_dc504788e8f1664fe9b84e20bfb512f2>@@@Z@4HA 00000001800d84f4     libucrt:per_thread_data.obj
 0002:0009a4f4       $unwind$?fin$0@?0???$?RV<lambda_2d41944a1d46af3157314b8a01080d33>@@AEAV<lambda_8f455de75cd7d7f24b4096f044d8b9e6>@@V<lambda_aa500f224e6afead328df44964fe2772>@@@?$__crt_seh_guarded_call@X@@QEAAX$$QEAV<lambda_2d41944a1d46af3157314b8a01080d33>@@AEAV<lambda_8f455de75cd7d7f24b4096f044d8b9e6>@@$$QEAV<lambda_aa500f224e6afead328df44964fe2772>@@@Z@4HA 00000001800d84f4     libucrt:per_thread_data.obj
 0002:0009a4f4       $unwind$?fin$0@?0???$?RV<lambda_aa87e3671a710a21b5dc78c0bdf72e11>@@AEAV<lambda_92619d2358a28f41a33ba319515a20b9>@@V<lambda_6992ecaafeb10aed2b74cb1fae11a551>@@@?$__crt_seh_guarded_call@X@@QEAAX$$QEAV<lambda_aa87e3671a710a21b5dc78c0bdf72e11>@@AEAV<lambda_92619d2358a28f41a33ba319515a20b9>@@$$QEAV<lambda_6992ecaafeb10aed2b74cb1fae11a551>@@@Z@4HA 00000001800d84f4     libucrt:per_thread_data.obj
 0002:0009a4f4       $unwind$?fin$0@?0???$?RV<lambda_f2e299630e499de9f9a165e60fcd3db5>@@AEAV<lambda_2ae9d31cdba2644fcbeaf08da7c24588>@@V<lambda_40d01ff24d0e7b3814fdbdcee8eab3c7>@@@?$__crt_seh_guarded_call@X@@QEAAX$$QEAV<lambda_f2e299630e499de9f9a165e60fcd3db5>@@AEAV<lambda_2ae9d31cdba2644fcbeaf08da7c24588>@@$$QEAV<lambda_40d01ff24d0e7b3814fdbdcee8eab3c7>@@@Z@4HA 00000001800d84f4     libucrt:per_thread_data.obj
 0002:0009a4f4       $unwind$__acrt_update_thread_locale_data$fin$0 00000001800d84f4     libucrt:locale_refcounting.obj
 0002:0009a4f4       $unwind$?fin$0@?0???$?RV<lambda_410d79af7f07d98d83a3f525b3859a53>@@AEAV<lambda_3e16ef9562a7dcce91392c22ab16ea36>@@V<lambda_38119f0e861e05405d8a144b9b982f0a>@@@?$__crt_seh_guarded_call@X@@QEAAX$$QEAV<lambda_410d79af7f07d98d83a3f525b3859a53>@@AEAV<lambda_3e16ef9562a7dcce91392c22ab16ea36>@@$$QEAV<lambda_38119f0e861e05405d8a144b9b982f0a>@@@Z@4HA 00000001800d84f4     libucrt:wsetlocale.obj
 0002:0009a4f4       $unwind$?fin$0@?0???$?RV<lambda_751a882b2c74d4b022dec766aa51a29a>@@AEAV<lambda_628dfdc04ba53c8bfc02c9951375f3f5>@@V<lambda_f6c7be5f7998530c34de24c7437d6b54>@@@?$__crt_seh_guarded_call@H@@QEAAH$$QEAV<lambda_751a882b2c74d4b022dec766aa51a29a>@@AEAV<lambda_628dfdc04ba53c8bfc02c9951375f3f5>@@$$QEAV<lambda_f6c7be5f7998530c34de24c7437d6b54>@@@Z@4HA 00000001800d84f4     libucrt:close.obj
 0002:0009a4f4       $unwind$?fin$0@?0???$?RV<lambda_a37b2b86f63e897a80ea819b0eb08c01>@@AEAV<lambda_38ce7e780aa69e748d6df282ebc68efe>@@V<lambda_99fb1378e971ab6e7edea83e3a7a83a2>@@@?$__crt_seh_guarded_call@H@@QEAAH$$QEAV<lambda_a37b2b86f63e897a80ea819b0eb08c01>@@AEAV<lambda_38ce7e780aa69e748d6df282ebc68efe>@@$$QEAV<lambda_99fb1378e971ab6e7edea83e3a7a83a2>@@@Z@4HA 00000001800d84f4     libucrt:commit.obj
 0002:0009a4f4       $unwind$__acrt_initialize_lowio$fin$0 00000001800d84f4     libucrt:ioinit.obj
 0002:0009a4f4       $unwind$?fin$0@?0???$common_lseek@_J@@YA_JH_JH@Z@4HA 00000001800d84f4     libucrt:lseek.obj
 0002:0009a4f4       $unwind$__acrt_lowio_ensure_fh_exists$fin$0 00000001800d84f4     libucrt:osfinfo.obj
 0002:0009a4f4       $unwind$_write$fin$0       00000001800d84f4     libucrt:write.obj
 0002:0009a4f4       $unwind$?fin$0@?0???$?RV<lambda_efdfa57d1f175319df784efa44bb7b81>@@AEAV<lambda_5f0a4c1567f8adc6734073e5d1e1b35c>@@V<lambda_2e8a7d3640ea6ccb4c2413664c2db6fd>@@@?$__crt_seh_guarded_call@X@@QEAAX$$QEAV<lambda_efdfa57d1f175319df784efa44bb7b81>@@AEAV<lambda_5f0a4c1567f8adc6734073e5d1e1b35c>@@$$QEAV<lambda_2e8a7d3640ea6ccb4c2413664c2db6fd>@@@Z@4HA 00000001800d84f4     libucrt:mbctype.obj
 0002:0009a4f4       $unwind$?fin$0@?0??update_thread_multibyte_data_internal@@YAPEAU__crt_multibyte_data@@QEAU__acrt_ptd@@QEAPEAU1@@Z@4HA 00000001800d84f4     libucrt:mbctype.obj
 0002:0009a4f4       $unwind$?fin$0@?0???$?RV<lambda_450d765d439847d4c735a33c368b5fc0>@@AEAV<lambda_44731a7d0e6d81c3e6aa82d741081786>@@V<lambda_601a2a7da3b7a96e9554ac7215c4b07c>@@@?$__crt_seh_guarded_call@P6AXH@Z@@QEAAP6AXH@Z$$QEAV<lambda_450d765d439847d4c735a33c368b5fc0>@@AEAV<lambda_44731a7d0e6d81c3e6aa82d741081786>@@$$QEAV<lambda_601a2a7da3b7a96e9554ac7215c4b07c>@@@Z@4HA 00000001800d84f4     libucrt:signal.obj
 0002:0009a4f4       $unwind$raise$fin$0        00000001800d84f4     libucrt:signal.obj
 0002:0009a4f4       $unwind$?filt$0@?0???R<lambda_6e4b09c48022b2350581041d5f6b0c4c>@@QEBA@XZ@4HA 00000001800d84f4     libucrt:exit.obj
 0002:0009a4f4       $unwind$?fin$0@?0???$?RV<lambda_d80eeec6fff315bfe5c115232f3240e3>@@AEAV<lambda_6e4b09c48022b2350581041d5f6b0c4c>@@V<lambda_2358e3775559c9db80273638284d5e45>@@@?$__crt_seh_guarded_call@X@@QEAAX$$QEAV<lambda_d80eeec6fff315bfe5c115232f3240e3>@@AEAV<lambda_6e4b09c48022b2350581041d5f6b0c4c>@@$$QEAV<lambda_2358e3775559c9db80273638284d5e45>@@@Z@4HA 00000001800d84f4     libucrt:exit.obj
 0002:0009a4f4       $unwind$?fin$0@?0???$?RV<lambda_638799b9deba96c50f710eeac98168cd>@@AEAV<lambda_22ebabd17bc4fa466a2aca6d8deb888d>@@V<lambda_a6f7d7db0129f75315ebf26d50c089f1>@@@?$__crt_seh_guarded_call@H@@QEAAH$$QEAV<lambda_638799b9deba96c50f710eeac98168cd>@@AEAV<lambda_22ebabd17bc4fa466a2aca6d8deb888d>@@$$QEAV<lambda_a6f7d7db0129f75315ebf26d50c089f1>@@@Z@4HA 00000001800d84f4     libucrt:onexit.obj
 0002:0009a4f4       $unwind$?fin$0@?0???$?RV<lambda_7777bce6b2f8c936911f934f8298dc43>@@AEAV<lambda_f03950bc5685219e0bcd2087efbe011e>@@V<lambda_3883c3dff614d5e0c5f61bb1ac94921c>@@@?$__crt_seh_guarded_call@H@@QEAAH$$QEAV<lambda_7777bce6b2f8c936911f934f8298dc43>@@AEAV<lambda_f03950bc5685219e0bcd2087efbe011e>@@$$QEAV<lambda_3883c3dff614d5e0c5f61bb1ac94921c>@@@Z@4HA 00000001800d84f4     libucrt:onexit.obj
 0002:0009a4f4       $unwind$_fcloseall$fin$0   00000001800d84f4     libucrt:closeall.obj
 0002:0009a4f4       $unwind$fclose$fin$0       00000001800d84f4     libucrt:fclose.obj
 0002:0009a4f4       $unwind$?fin$0@?0???$?RV<lambda_842d9ff0dc9ef11c61343bbaebe7f885>@@AEAV<lambda_c5860995281e5c4ce005b3de8f5874ee>@@V<lambda_d90129c13df834fdcbf8d2b88dafcf2d>@@@?$__crt_seh_guarded_call@X@@QEAAX$$QEAV<lambda_842d9ff0dc9ef11c61343bbaebe7f885>@@AEAV<lambda_c5860995281e5c4ce005b3de8f5874ee>@@$$QEAV<lambda_d90129c13df834fdcbf8d2b88dafcf2d>@@@Z@4HA 00000001800d84f4     libucrt:fflush.obj
 0002:0009a4f4       $unwind$?fin$0@?0???$?RV<lambda_886d6c58226a84441f68b9f2b8217b83>@@AEAV<lambda_ab61a845afdef5b7c387490eaf3616ee>@@V<lambda_f7f22ab5edc0698d5f6905b0d3f44752>@@@?$__crt_seh_guarded_call@X@@QEAAX$$QEAV<lambda_886d6c58226a84441f68b9f2b8217b83>@@AEAV<lambda_ab61a845afdef5b7c387490eaf3616ee>@@$$QEAV<lambda_f7f22ab5edc0698d5f6905b0d3f44752>@@@Z@4HA 00000001800d84f4     libucrt:fflush.obj
 0002:0009a4f4       $unwind$?fin$0@?0???$?RV<lambda_c376a267cfb53b6959b3b692ec76b120>@@AEAV<lambda_9a32fed5bf61b6b509b2d3f6003082a1>@@V<lambda_572fbb9fa0ab338edf41edfd4b5fcc8d>@@@?$__crt_seh_guarded_call@H@@QEAAH$$QEAV<lambda_c376a267cfb53b6959b3b692ec76b120>@@AEAV<lambda_9a32fed5bf61b6b509b2d3f6003082a1>@@$$QEAV<lambda_572fbb9fa0ab338edf41edfd4b5fcc8d>@@@Z@4HA 00000001800d84f4     libucrt:fflush.obj
 0002:0009a4f4       $unwind$?fin$0@?0???$?RV<lambda_676bd5779251ec186b530f0a904b4b35>@@AEAV<lambda_b579ea784fd840951dfbcbdaebf709fd>@@V<lambda_10027885da78ada7fb00668d7e2e96b5>@@@?$__crt_seh_guarded_call@H@@QEAAH$$QEAV<lambda_676bd5779251ec186b530f0a904b4b35>@@AEAV<lambda_b579ea784fd840951dfbcbdaebf709fd>@@$$QEAV<lambda_10027885da78ada7fb00668d7e2e96b5>@@@Z@4HA 00000001800d84f4     libucrt:output.obj
 0002:0009a4f4       $unwind$?fin$0@?0???$?RV<lambda_fe5404e9642edbb7c8ae71e1dcfa4018>@@AEAV<lambda_36eeb330e99a4f0bf8a7da86d0894cb9>@@V<lambda_2fa474834de80dc12f7a3c6eddd7a366>@@@?$__crt_seh_guarded_call@H@@QEAAH$$QEAV<lambda_fe5404e9642edbb7c8ae71e1dcfa4018>@@AEAV<lambda_36eeb330e99a4f0bf8a7da86d0894cb9>@@$$QEAV<lambda_2fa474834de80dc12f7a3c6eddd7a366>@@@Z@4HA 00000001800d84f4     libucrt:output.obj
 0002:0009a4f4       $unwind$?fin$0@?0???$?RV<lambda_84ec643ea9557e2f7dc01bb0e9624395>@@AEAV<lambda_ca71763b3c0644891230e4f79ea54fa6>@@V<lambda_439a761618c59b0600e24586724d733b>@@@?$__crt_seh_guarded_call@H@@QEAAH$$QEAV<lambda_84ec643ea9557e2f7dc01bb0e9624395>@@AEAV<lambda_ca71763b3c0644891230e4f79ea54fa6>@@$$QEAV<lambda_439a761618c59b0600e24586724d733b>@@@Z@4HA 00000001800d84f4     libucrt:setvbuf.obj
 0002:0009a4f4       $unwind$_ctrlfp$filt$0     00000001800d84f4     libucrt:fpctrl.obj
 0002:0009a4fc       $unwind$?dllmain_crt_process_detach@@YAH_N@Z 00000001800d84fc     LIBCMT:dll_dllmain.obj
 0002:0009a550       $unwind$?dllmain_dispatch@@YAHQEAUHINSTANCE__@@KQEAX@Z 00000001800d8550     LIBCMT:dll_dllmain.obj
 0002:0009a578       $unwind$?filt$0@?0??dllmain_dispatch@@YAHQEAUHINSTANCE__@@KQEAX@Z@4HA 00000001800d8578     LIBCMT:dll_dllmain.obj
 0002:0009a578       $unwind$?filt$0@?0??FrameUnwindToState@__FrameHandler4@@SAXPEA_KPEAU_xDISPATCHER_CONTEXT@@PEAUFuncInfo4@FH4@@H@Z@4HA 00000001800d8578     libvcruntime:frame.obj
 0002:0009a578       $unwind$?fin$1@?0??FrameUnwindToState@__FrameHandler4@@SAXPEA_KPEAU_xDISPATCHER_CONTEXT@@PEAUFuncInfo4@FH4@@H@Z@4HA 00000001800d8578     libvcruntime:frame.obj
 0002:0009a580       $unwind$__isa_available_init 00000001800d8580     LIBCMT:cpu_disp.obj
 0002:0009a590       $unwind$__scrt_is_nonwritable_in_current_image 00000001800d8590     LIBCMT:utility.obj
 0002:0009a5b0       $unwind$__scrt_is_nonwritable_in_current_image$filt$0 00000001800d85b0     LIBCMT:utility.obj
 0002:0009a5b8       $unwind$__scrt_fastfail    00000001800d85b8     LIBCMT:utility_desktop.obj
 0002:0009a5c8       $unwind$__security_init_cookie 00000001800d85c8     LIBCMT:gs_support.obj
 0002:0009a5d8       $xdatasym                  00000001800d85d8     LIBCMT:guard_dispatch.obj
 0002:0009a5e0       $xdatasym                  00000001800d85e0     LIBCMT:guard_xfg_dispatch.obj
 0002:0009a5e4       $unwind$__std_exception_copy 00000001800d85e4     libvcruntime:std_exception.obj
 0002:0009a5e4       $unwind$_free_osfhnd       00000001800d85e4     libucrt:osfinfo.obj
 0002:0009a5f8       $unwind$_CxxThrowException 00000001800d85f8     libvcruntime:throw.obj
 0002:0009a608       $unwind$?DecompFuncInfo@FH4@@YA_JPEAEAEAUFuncInfo4@1@_KH_N@Z 00000001800d8608     libvcruntime:risctrnsctrl.obj
 0002:0009a620       $unwind$?UnwindNestedFrames@__FrameHandler4@@SAXPEA_KPEAUEHExceptionRecord@@PEAU_CONTEXT@@0PEAXPEAUFuncInfo4@FH4@@HHPEAUHandlerType4@5@PEAU_xDISPATCHER_CONTEXT@@E@Z 00000001800d8620     libvcruntime:risctrnsctrl.obj
 0002:0009a634       $unwind$?GetRangeOfTrysToCheck@__FrameHandler4@@SA?AU?$pair@Viterator@TryBlockMap4@FH4@@V123@@std@@AEAVTryBlockMap4@FH4@@HPEAU_xDISPATCHER_CONTEXT@@PEAUFuncInfo4@5@H@Z 00000001800d8634     libvcruntime:risctrnsctrl.obj
 0002:0009a650       $unwind$__CxxFrameHandler4 00000001800d8650     libvcruntime:risctrnsctrl.obj
 0002:0009a664       $unwind$??$_CallSETranslator@V__FrameHandler4@@@@YAHPEAUEHExceptionRecord@@PEA_KPEAU_CONTEXT@@PEAU_xDISPATCHER_CONTEXT@@PEAUFuncInfo4@FH4@@K1H@Z 00000001800d8664     libvcruntime:risctrnsctrl.obj
 0002:0009a684       $unwind$?filt$0@?0???$_CallSETranslator@V__FrameHandler4@@@@YAHPEAUEHExceptionRecord@@PEA_KPEAU_CONTEXT@@PEAU_xDISPATCHER_CONTEXT@@PEAUFuncInfo4@FH4@@K1H@Z@4HA 00000001800d8684     libvcruntime:risctrnsctrl.obj
 0002:0009a690       $unwind$__C_specific_handler 00000001800d8690     libvcruntime:riscchandler.obj
 0002:0009a6ac       $unwind$__DestructExceptionObject 00000001800d86ac     libvcruntime:ehhelpers.obj
 0002:0009a6cc       $unwind$__DestructExceptionObject$filt$0 00000001800d86cc     libvcruntime:ehhelpers.obj
 0002:0009a6cc       $unwind$?fin$1@?0??CxxCallCatchBlock@__FrameHandler4@@SAPEAXPEAU_EXCEPTION_RECORD@@@Z@4HA 00000001800d86cc     libvcruntime:frame.obj
 0002:0009a6d8       $xdatasym                  00000001800d86d8     libvcruntime:memset.obj
 0002:0009a6e8       $unwind$?StateFromIp@__FrameHandler4@@SAHPEAUFuncInfo4@FH4@@PEAU_xDISPATCHER_CONTEXT@@_K@Z 00000001800d86e8     libvcruntime:ehstate.obj
 0002:0009a6fc       $unwind$?getStartStop@UWMap4@FH4@@QEAAXHHAEAViterator@12@0@Z 00000001800d86fc     libvcruntime:frame.obj
 0002:0009a714       $unwind$?getStateFromIterators@UWMap4@FH4@@SAHAEBViterator@12@H0H0@Z 00000001800d8714     libvcruntime:frame.obj
 0002:0009a714       $unwind$strpbrk            00000001800d8714     libucrt:strpbrk.obj
 0002:0009a724       $unwind$?FrameUnwindToState@__FrameHandler4@@SAXPEA_KPEAU_xDISPATCHER_CONTEXT@@PEAUFuncInfo4@FH4@@H@Z 00000001800d8724     libvcruntime:frame.obj
 0002:0009a76c       $unwind$?CxxCallCatchBlock@__FrameHandler4@@SAPEAXPEAU_EXCEPTION_RECORD@@@Z 00000001800d876c     libvcruntime:frame.obj
 0002:0009a7c8       $unwind$?IsInExceptionSpec@@YAEPEAUEHExceptionRecord@@PEBU_s_ESTypeList@@@Z 00000001800d87c8     libvcruntime:frame.obj
 0002:0009a7e4       $unwind$??$__InternalCxxFrameHandler@V__FrameHandler4@@@@YA?AW4_EXCEPTION_DISPOSITION@@PEAUEHExceptionRecord@@PEA_KPEAU_CONTEXT@@PEAU_xDISPATCHER_CONTEXT@@PEAUFuncInfo4@FH4@@H1E@Z 00000001800d87e4     libvcruntime:frame.obj
 0002:0009a7fc       $unwind$__GSHandlerCheck_SEH 00000001800d87fc     LIBCMT:gshandlerseh.obj
 0002:0009a7fc       $unwind$??$TypeMatchHelper@V__FrameHandler3@@@@YAHPEBU_s_HandlerType@@PEBU_s_CatchableType@@PEBU_s_ThrowInfo@@@Z 00000001800d87fc     libvcruntime:frame.obj
 0002:0009a7fc       $unwind$??$TypeMatchHelper@V__FrameHandler4@@@@YAHPEAUHandlerType4@FH4@@PEBU_s_CatchableType@@PEBU_s_ThrowInfo@@@Z 00000001800d87fc     libvcruntime:frame.obj
 0002:0009a7fc       $unwind$?initialize_stdio_handles_nolock@@YAXXZ 00000001800d87fc     libucrt:ioinit.obj
 0002:0009a7fc       $unwind$__acrt_initialize_stdio 00000001800d87fc     libucrt:_file.obj
 0002:0009a814       $unwind$??$BuildCatchObjectHelperInternal@V__FrameHandler4@@@@YAHPEAUEHExceptionRecord@@PEAXPEAUHandlerType4@FH4@@PEBU_s_CatchableType@@@Z 00000001800d8814     libvcruntime:frame.obj
 0002:0009a854       $unwind$??$BuildCatchObjectInternal@V__FrameHandler4@@@@YAXPEAUEHExceptionRecord@@PEAXPEAUHandlerType4@FH4@@PEBU_s_CatchableType@@@Z 00000001800d8854     libvcruntime:frame.obj
 0002:0009a880       $unwind$??$FindHandler@V__FrameHandler4@@@@YAXPEAUEHExceptionRecord@@PEA_KPEAU_CONTEXT@@PEAU_xDISPATCHER_CONTEXT@@PEAUFuncInfo4@FH4@@EH1@Z 00000001800d8880     libvcruntime:frame.obj
 0002:0009a8a0       $unwind$??$CatchIt@V__FrameHandler4@@@@YAXPEAUEHExceptionRecord@@PEA_KPEAU_CONTEXT@@PEAU_xDISPATCHER_CONTEXT@@PEAUFuncInfo4@FH4@@PEAUHandlerType4@4@PEBU_s_CatchableType@@PEAUTryBlockMapEntry4@4@H1EE@Z 00000001800d88a0     libvcruntime:frame.obj
 0002:0009a8b8       $unwind$??$FindHandlerForForeignException@V__FrameHandler4@@@@YAXPEAUEHExceptionRecord@@PEA_KPEAU_CONTEXT@@PEAU_xDISPATCHER_CONTEXT@@PEAUFuncInfo4@FH4@@HH1@Z 00000001800d88b8     libvcruntime:frame.obj
 0002:0009a8d8       $xdatasym                  00000001800d88d8     libvcruntime:notify.obj
 0002:0009a8e8       $xdatasym                  00000001800d88e8     libvcruntime:handlers.obj
 0002:0009a908       $xdatasym                  00000001800d8908     libvcruntime:memcpy.obj
 0002:0009a918       $unwind$swprintf           00000001800d8918     libucrt:assert.obj
 0002:0009a928       $unwind$??$common_assert_to_stderr@_W@@YAXQEB_W0I@Z 00000001800d8928     libucrt:assert.obj
 0002:0009a944       $unwind$??$common_assert_to_message_box@_W@@YAXQEB_W0IQEAX@Z 00000001800d8944     libucrt:assert.obj
 0002:0009a960       $unwind$??$common_assert_to_message_box_build_string@_W@@YAXQEA_W_KQEB_W2IQEAX@Z 00000001800d8960     libucrt:assert.obj
 0002:0009a980       $unwind$__acrt_call_reportfault 00000001800d8980     libucrt:invalid_parameter.obj
 0002:0009a9a0       $unwind$__acrt_MessageBoxW 00000001800d89a0     libucrt:winapi_thunks.obj
 0002:0009a9a0       $unwind$_invalid_parameter 00000001800d89a0     libucrt:invalid_parameter.obj
 0002:0009a9b4       $unwind$__stdio_common_vfprintf 00000001800d89b4     libucrt:output.obj
 0002:0009a9b4       $unwind$__stdio_common_vfwprintf 00000001800d89b4     libucrt:output.obj
 0002:0009a9bc       $unwind$??$common_vsprintf@Vstandard_base@__crt_stdio_output@@_W@@YAH_KQEA_W0QEB_WQEAU__crt_locale_pointers@@QEAD@Z 00000001800d89bc     libucrt:output.obj
 0002:0009a9dc       $unwind$??$parse_command_line@D@@YAXPEADPEAPEAD0PEA_K2@Z 00000001800d89dc     libucrt:argv_parsing.obj
 0002:0009a9dc       $unwind$?write_string_impl@?$output_adapter_common@DV?$stream_output_adapter@D@__crt_stdio_output@@@__crt_stdio_output@@IEBAXQEBDHQEAHAEAV__crt_deferred_errno_cache@@@Z 00000001800d89dc     libucrt:output.obj
 0002:0009a9dc       $unwind$?write_string_impl@?$output_adapter_common@_WV?$stream_output_adapter@_W@__crt_stdio_output@@@__crt_stdio_output@@IEBAXQEB_WHQEAHAEAV__crt_deferred_errno_cache@@@Z 00000001800d89dc     libucrt:output.obj
 0002:0009a9f8       $unwind$?process@?$output_processor@DV?$stream_output_adapter@D@__crt_stdio_output@@V?$standard_base@DV?$stream_output_adapter@D@__crt_stdio_output@@@2@@__crt_stdio_output@@QEAAHXZ 00000001800d89f8     libucrt:output.obj
 0002:0009aa08       $unwind$?parse_int_from_format_string@?$output_processor@DV?$stream_output_adapter@D@__crt_stdio_output@@V?$standard_base@DV?$stream_output_adapter@D@__crt_stdio_output@@@2@@__crt_stdio_output@@AEAA_NQEAH@Z 00000001800d8a08     libucrt:output.obj
 0002:0009aa08       $unwind$?process@?$output_processor@_WV?$stream_output_adapter@_W@__crt_stdio_output@@V?$standard_base@_WV?$stream_output_adapter@_W@__crt_stdio_output@@@2@@__crt_stdio_output@@QEAAHXZ 00000001800d8a08     libucrt:output.obj
 0002:0009aa08       $unwind$?process@?$output_processor@_WV?$string_output_adapter@_W@__crt_stdio_output@@V?$standard_base@_WV?$string_output_adapter@_W@__crt_stdio_output@@@2@@__crt_stdio_output@@QEAAHXZ 00000001800d8a08     libucrt:output.obj
 0002:0009aa1c       $unwind$?state_case_type@?$output_processor@DV?$stream_output_adapter@D@__crt_stdio_output@@V?$standard_base@DV?$stream_output_adapter@D@__crt_stdio_output@@@2@@__crt_stdio_output@@AEAA_NXZ 00000001800d8a1c     libucrt:output.obj
 0002:0009aa34       $unwind$?type_case_a@?$output_processor@DV?$stream_output_adapter@D@__crt_stdio_output@@V?$standard_base@DV?$stream_output_adapter@D@__crt_stdio_output@@@2@@__crt_stdio_output@@AEAA_NXZ 00000001800d8a34     libucrt:output.obj
 0002:0009aa40       $unwind$?write_stored_string_tchar@?$output_processor@DV?$stream_output_adapter@D@__crt_stdio_output@@V?$standard_base@DV?$stream_output_adapter@D@__crt_stdio_output@@@2@@__crt_stdio_output@@AEAA_ND@Z 00000001800d8a40     libucrt:output.obj
 0002:0009aa58       $unwind$??R<lambda_36eeb330e99a4f0bf8a7da86d0894cb9>@@QEBAHXZ 00000001800d8a58     libucrt:output.obj
 0002:0009aa58       $unwind$??R<lambda_b579ea784fd840951dfbcbdaebf709fd>@@QEBAHXZ 00000001800d8a58     libucrt:output.obj
 0002:0009aa78       $unwind$?parse_int_from_format_string@?$output_processor@_WV?$stream_output_adapter@_W@__crt_stdio_output@@V?$standard_base@_WV?$stream_output_adapter@_W@__crt_stdio_output@@@2@@__crt_stdio_output@@AEAA_NQEAH@Z 00000001800d8a78     libucrt:output.obj
 0002:0009aa78       $unwind$?parse_int_from_format_string@?$output_processor@_WV?$string_output_adapter@_W@__crt_stdio_output@@V?$standard_base@_WV?$string_output_adapter@_W@__crt_stdio_output@@@2@@__crt_stdio_output@@AEAA_NQEAH@Z 00000001800d8a78     libucrt:output.obj
 0002:0009aa8c       $unwind$?state_case_type@?$output_processor@_WV?$stream_output_adapter@_W@__crt_stdio_output@@V?$standard_base@_WV?$stream_output_adapter@_W@__crt_stdio_output@@@2@@__crt_stdio_output@@AEAA_NXZ 00000001800d8a8c     libucrt:output.obj
 0002:0009aaac       $unwind$?type_case_c_tchar@?$output_processor@_WV?$stream_output_adapter@_W@__crt_stdio_output@@V?$standard_base@_WV?$stream_output_adapter@_W@__crt_stdio_output@@@2@@__crt_stdio_output@@AEAA_N_W@Z 00000001800d8aac     libucrt:output.obj
 0002:0009aaac       $unwind$?type_case_c_tchar@?$output_processor@_WV?$string_output_adapter@_W@__crt_stdio_output@@V?$standard_base@_WV?$string_output_adapter@_W@__crt_stdio_output@@@2@@__crt_stdio_output@@AEAA_N_W@Z 00000001800d8aac     libucrt:output.obj
 0002:0009aabc       $unwind$?type_case_a@?$output_processor@_WV?$stream_output_adapter@_W@__crt_stdio_output@@V?$standard_base@_WV?$stream_output_adapter@_W@__crt_stdio_output@@@2@@__crt_stdio_output@@AEAA_NXZ 00000001800d8abc     libucrt:output.obj
 0002:0009aabc       $unwind$?type_case_a@?$output_processor@_WV?$string_output_adapter@_W@__crt_stdio_output@@V?$standard_base@_WV?$string_output_adapter@_W@__crt_stdio_output@@@2@@__crt_stdio_output@@AEAA_NXZ 00000001800d8abc     libucrt:output.obj
 0002:0009aacc       $unwind$?write_stored_string_tchar@?$output_processor@_WV?$stream_output_adapter@_W@__crt_stdio_output@@V?$standard_base@_WV?$stream_output_adapter@_W@__crt_stdio_output@@@2@@__crt_stdio_output@@AEAA_N_W@Z 00000001800d8acc     libucrt:output.obj
 0002:0009aae0       $unwind$?write_string@?$string_output_adapter@_W@__crt_stdio_output@@QEBAXQEB_WHQEAHAEAV__crt_deferred_errno_cache@@@Z 00000001800d8ae0     libucrt:output.obj
 0002:0009aaf8       $unwind$?state_case_type@?$output_processor@_WV?$string_output_adapter@_W@__crt_stdio_output@@V?$standard_base@_WV?$string_output_adapter@_W@__crt_stdio_output@@@2@@__crt_stdio_output@@AEAA_NXZ 00000001800d8af8     libucrt:output.obj
 0002:0009ab1c       $unwind$?write_stored_string_tchar@?$output_processor@_WV?$string_output_adapter@_W@__crt_stdio_output@@V?$standard_base@_WV?$string_output_adapter@_W@__crt_stdio_output@@@2@@__crt_stdio_output@@AEAA_N_W@Z 00000001800d8b1c     libucrt:output.obj
 0002:0009ab30       $unwind$??$write_multiple_characters@V?$string_output_adapter@_W@__crt_stdio_output@@D@__crt_stdio_output@@YAXAEBV?$string_output_adapter@_W@0@DHQEAH@Z 00000001800d8b30     libucrt:output.obj
 0002:0009ab3c       $unwind$??$write_multiple_characters@V?$stream_output_adapter@D@__crt_stdio_output@@D@__crt_stdio_output@@YAXAEBV?$stream_output_adapter@D@0@DHQEAH@Z 00000001800d8b3c     libucrt:output.obj
 0002:0009ab3c       $unwind$??$write_multiple_characters@V?$stream_output_adapter@_W@__crt_stdio_output@@D@__crt_stdio_output@@YAXAEBV?$stream_output_adapter@_W@0@DHQEAH@Z 00000001800d8b3c     libucrt:output.obj
 0002:0009ab54       $unwind$??$type_case_integer_parse_into_buffer@I@?$output_processor@DV?$stream_output_adapter@D@__crt_stdio_output@@V?$standard_base@DV?$stream_output_adapter@D@__crt_stdio_output@@@2@@__crt_stdio_output@@AEAAXII_N@Z 00000001800d8b54     libucrt:output.obj
 0002:0009ab54       $unwind$??$type_case_integer_parse_into_buffer@I@?$output_processor@_WV?$stream_output_adapter@_W@__crt_stdio_output@@V?$standard_base@_WV?$stream_output_adapter@_W@__crt_stdio_output@@@2@@__crt_stdio_output@@AEAAXII_N@Z 00000001800d8b54     libucrt:output.obj
 0002:0009ab54       $unwind$??$type_case_integer_parse_into_buffer@I@?$output_processor@_WV?$string_output_adapter@_W@__crt_stdio_output@@V?$standard_base@_WV?$string_output_adapter@_W@__crt_stdio_output@@@2@@__crt_stdio_output@@AEAAXII_N@Z 00000001800d8b54     libucrt:output.obj
 0002:0009ab54       $unwind$??$type_case_integer_parse_into_buffer@_K@?$output_processor@DV?$stream_output_adapter@D@__crt_stdio_output@@V?$standard_base@DV?$stream_output_adapter@D@__crt_stdio_output@@@2@@__crt_stdio_output@@AEAAX_KI_N@Z 00000001800d8b54     libucrt:output.obj
 0002:0009ab54       $unwind$??$type_case_integer_parse_into_buffer@_K@?$output_processor@_WV?$stream_output_adapter@_W@__crt_stdio_output@@V?$standard_base@_WV?$stream_output_adapter@_W@__crt_stdio_output@@@2@@__crt_stdio_output@@AEAAX_KI_N@Z 00000001800d8b54     libucrt:output.obj
 0002:0009ab54       $unwind$??$type_case_integer_parse_into_buffer@_K@?$output_processor@_WV?$string_output_adapter@_W@__crt_stdio_output@@V?$standard_base@_WV?$string_output_adapter@_W@__crt_stdio_output@@@2@@__crt_stdio_output@@AEAAX_KI_N@Z 00000001800d8b54     libucrt:output.obj
 0002:0009ab5c       $unwind$??$?RV<lambda_fe5404e9642edbb7c8ae71e1dcfa4018>@@AEAV<lambda_36eeb330e99a4f0bf8a7da86d0894cb9>@@V<lambda_2fa474834de80dc12f7a3c6eddd7a366>@@@?$__crt_seh_guarded_call@H@@QEAAH$$QEAV<lambda_fe5404e9642edbb7c8ae71e1dcfa4018>@@AEAV<lambda_36eeb330e99a4f0bf8a7da86d0894cb9>@@$$QEAV<lambda_2fa474834de80dc12f7a3c6eddd7a366>@@@Z 00000001800d8b5c     libucrt:output.obj
 0002:0009ab80       $unwind$??$?RV<lambda_676bd5779251ec186b530f0a904b4b35>@@AEAV<lambda_b579ea784fd840951dfbcbdaebf709fd>@@V<lambda_10027885da78ada7fb00668d7e2e96b5>@@@?$__crt_seh_guarded_call@H@@QEAAH$$QEAV<lambda_676bd5779251ec186b530f0a904b4b35>@@AEAV<lambda_b579ea784fd840951dfbcbdaebf709fd>@@$$QEAV<lambda_10027885da78ada7fb00668d7e2e96b5>@@@Z 00000001800d8b80     libucrt:output.obj
 0002:0009aba4       $unwind$log2               00000001800d8ba4     libucrt:log2.obj
 0002:0009abb0       $unwind$_mbsdec_l          00000001800d8bb0     libucrt:mbsdec.obj
 0002:0009abb0       $unwind$_stricmp_l         00000001800d8bb0     libucrt:stricmp.obj
 0002:0009abbc       $unwind$_query_new_handler 00000001800d8bbc     libucrt:new_handler.obj
 0002:0009abdc       $unwind$?common_exit@@YAXHW4_crt_exit_cleanup_mode@@W4_crt_exit_return_mode@@@Z 00000001800d8bdc     libucrt:exit.obj
 0002:0009abe8       $unwind$??R<lambda_6e4b09c48022b2350581041d5f6b0c4c>@@QEBA@XZ 00000001800d8be8     libucrt:exit.obj
 0002:0009ac08       $unwind$??$?RV<lambda_d80eeec6fff315bfe5c115232f3240e3>@@AEAV<lambda_6e4b09c48022b2350581041d5f6b0c4c>@@V<lambda_2358e3775559c9db80273638284d5e45>@@@?$__crt_seh_guarded_call@X@@QEAAX$$QEAV<lambda_d80eeec6fff315bfe5c115232f3240e3>@@AEAV<lambda_6e4b09c48022b2350581041d5f6b0c4c>@@$$QEAV<lambda_2358e3775559c9db80273638284d5e45>@@@Z 00000001800d8c08     libucrt:exit.obj
 0002:0009ac2c       $unwind$_configure_narrow_argv 00000001800d8c2c     libucrt:argv_parsing.obj
 0002:0009ac40       $unwind$??$free_environment@D@@YAXQEAPEAD@Z 00000001800d8c40     libucrt:environment_initialization.obj
 0002:0009ac40       $unwind$??$free_environment@_W@@YAXQEAPEA_W@Z 00000001800d8c40     libucrt:environment_initialization.obj
 0002:0009ac4c       $unwind$_register_onexit_function 00000001800d8c4c     libucrt:onexit.obj
 0002:0009ac54       $unwind$_execute_onexit_table 00000001800d8c54     libucrt:onexit.obj
 0002:0009ac5c       $unwind$??R<lambda_22ebabd17bc4fa466a2aca6d8deb888d>@@QEBAHXZ 00000001800d8c5c     libucrt:onexit.obj
 0002:0009ac74       $unwind$??$?RV<lambda_638799b9deba96c50f710eeac98168cd>@@AEAV<lambda_22ebabd17bc4fa466a2aca6d8deb888d>@@V<lambda_a6f7d7db0129f75315ebf26d50c089f1>@@@?$__crt_seh_guarded_call@H@@QEAAH$$QEAV<lambda_638799b9deba96c50f710eeac98168cd>@@AEAV<lambda_22ebabd17bc4fa466a2aca6d8deb888d>@@$$QEAV<lambda_a6f7d7db0129f75315ebf26d50c089f1>@@@Z 00000001800d8c74     libucrt:onexit.obj
 0002:0009ac98       $unwind$??$?RV<lambda_7777bce6b2f8c936911f934f8298dc43>@@AEAV<lambda_f03950bc5685219e0bcd2087efbe011e>@@V<lambda_3883c3dff614d5e0c5f61bb1ac94921c>@@@?$__crt_seh_guarded_call@H@@QEAAH$$QEAV<lambda_7777bce6b2f8c936911f934f8298dc43>@@AEAV<lambda_f03950bc5685219e0bcd2087efbe011e>@@$$QEAV<lambda_3883c3dff614d5e0c5f61bb1ac94921c>@@@Z 00000001800d8c98     libucrt:onexit.obj
 0002:0009acbc       $unwind$terminate          00000001800d8cbc     libucrt:terminate.obj
 0002:0009acdc       $unwind$??$parse_integer@KV?$c_string_character_source@D@__crt_strtox@@@__crt_strtox@@YAKQEAU__crt_locale_pointers@@V?$c_string_character_source@D@0@H_N@Z 00000001800d8cdc     libucrt:atox.obj
 0002:0009acf8       $unwind$??$parse_integer@KV?$c_string_character_source@_W@__crt_strtox@@@__crt_strtox@@YAKQEAU__crt_locale_pointers@@V?$c_string_character_source@_W@0@H_N@Z 00000001800d8cf8     libucrt:atox.obj
 0002:0009ad10       $xdatasym                  00000001800d8d10     libucrt:strncmp.obj
 0002:0009ad14       $unwind$__acrt_GetModuleFileNameA 00000001800d8d14     libucrt:getmodulefilenamea.obj
 0002:0009ad30       $unwind$?common_flush_all@@YAH_N@Z 00000001800d8d30     libucrt:fflush.obj
 0002:0009ad38       $unwind$??$?RV<lambda_842d9ff0dc9ef11c61343bbaebe7f885>@@AEAV<lambda_c5860995281e5c4ce005b3de8f5874ee>@@V<lambda_d90129c13df834fdcbf8d2b88dafcf2d>@@@?$__crt_seh_guarded_call@X@@QEAAX$$QEAV<lambda_842d9ff0dc9ef11c61343bbaebe7f885>@@AEAV<lambda_c5860995281e5c4ce005b3de8f5874ee>@@$$QEAV<lambda_d90129c13df834fdcbf8d2b88dafcf2d>@@@Z 00000001800d8d38     libucrt:fflush.obj
 0002:0009ad5c       $unwind$??$?RV<lambda_886d6c58226a84441f68b9f2b8217b83>@@AEAV<lambda_ab61a845afdef5b7c387490eaf3616ee>@@V<lambda_f7f22ab5edc0698d5f6905b0d3f44752>@@@?$__crt_seh_guarded_call@X@@QEAAX$$QEAV<lambda_886d6c58226a84441f68b9f2b8217b83>@@AEAV<lambda_ab61a845afdef5b7c387490eaf3616ee>@@$$QEAV<lambda_f7f22ab5edc0698d5f6905b0d3f44752>@@@Z 00000001800d8d5c     libucrt:fflush.obj
 0002:0009ad84       $unwind$??$?RV<lambda_c376a267cfb53b6959b3b692ec76b120>@@AEAV<lambda_9a32fed5bf61b6b509b2d3f6003082a1>@@V<lambda_572fbb9fa0ab338edf41edfd4b5fcc8d>@@@?$__crt_seh_guarded_call@H@@QEAAH$$QEAV<lambda_c376a267cfb53b6959b3b692ec76b120>@@AEAV<lambda_9a32fed5bf61b6b509b2d3f6003082a1>@@$$QEAV<lambda_572fbb9fa0ab338edf41edfd4b5fcc8d>@@@Z 00000001800d8d84     libucrt:fflush.obj
 0002:0009ada8       $unwind$setvbuf            00000001800d8da8     libucrt:setvbuf.obj
 0002:0009adb0       $unwind$??$?RV<lambda_84ec643ea9557e2f7dc01bb0e9624395>@@AEAV<lambda_ca71763b3c0644891230e4f79ea54fa6>@@V<lambda_439a761618c59b0600e24586724d733b>@@@?$__crt_seh_guarded_call@H@@QEAAH$$QEAV<lambda_84ec643ea9557e2f7dc01bb0e9624395>@@AEAV<lambda_ca71763b3c0644891230e4f79ea54fa6>@@$$QEAV<lambda_439a761618c59b0600e24586724d733b>@@@Z 00000001800d8db0     libucrt:setvbuf.obj
 0002:0009add4       $unwind$__acrt_uninitialize_locale 00000001800d8dd4     libucrt:wsetlocale.obj
 0002:0009add4       $unwind$__acrt_get_sigabrt_handler 00000001800d8dd4     libucrt:signal.obj
 0002:0009addc       $unwind$raise              00000001800d8ddc     libucrt:signal.obj
 0002:0009ae18       $unwind$??$?RV<lambda_450d765d439847d4c735a33c368b5fc0>@@AEAV<lambda_44731a7d0e6d81c3e6aa82d741081786>@@V<lambda_601a2a7da3b7a96e9554ac7215c4b07c>@@@?$__crt_seh_guarded_call@P6AXH@Z@@QEAAP6AXH@Z$$QEAV<lambda_450d765d439847d4c735a33c368b5fc0>@@AEAV<lambda_44731a7d0e6d81c3e6aa82d741081786>@@$$QEAV<lambda_601a2a7da3b7a96e9554ac7215c4b07c>@@@Z 00000001800d8e18     libucrt:signal.obj
 0002:0009ae3c       $unwind$_free_base         00000001800d8e3c     libucrt:free_base.obj
 0002:0009ae3c       $unwind$?destroy_fls@@YAXPEAX@Z 00000001800d8e3c     libucrt:per_thread_data.obj
 0002:0009ae3c       $unwind$__acrt_locale_free_numeric 00000001800d8e3c     libucrt:initnum.obj
 0002:0009ae3c       $unwind$__acrt_locale_free_lc_time_if_unreferenced 00000001800d8e3c     libucrt:locale_refcounting.obj
 0002:0009ae44       $unwind$?construct_ptd_array@@YAXQEAU__acrt_ptd@@@Z 00000001800d8e44     libucrt:per_thread_data.obj
 0002:0009ae4c       $unwind$?destroy_ptd_array@@YAXQEAU__acrt_ptd@@@Z 00000001800d8e4c     libucrt:per_thread_data.obj
 0002:0009ae54       $unwind$??$?RV<lambda_0ae27a3a962d80f24befdcbee591983d>@@AEAV<lambda_8d0ee55de4b1038c4002e0adecdf1839>@@V<lambda_dc504788e8f1664fe9b84e20bfb512f2>@@@?$__crt_seh_guarded_call@X@@QEAAX$$QEAV<lambda_0ae27a3a962d80f24befdcbee591983d>@@AEAV<lambda_8d0ee55de4b1038c4002e0adecdf1839>@@$$QEAV<lambda_dc504788e8f1664fe9b84e20bfb512f2>@@@Z 00000001800d8e54     libucrt:per_thread_data.obj
 0002:0009ae78       $unwind$??$?RV<lambda_aa87e3671a710a21b5dc78c0bdf72e11>@@AEAV<lambda_92619d2358a28f41a33ba319515a20b9>@@V<lambda_6992ecaafeb10aed2b74cb1fae11a551>@@@?$__crt_seh_guarded_call@X@@QEAAX$$QEAV<lambda_aa87e3671a710a21b5dc78c0bdf72e11>@@AEAV<lambda_92619d2358a28f41a33ba319515a20b9>@@$$QEAV<lambda_6992ecaafeb10aed2b74cb1fae11a551>@@@Z 00000001800d8e78     libucrt:per_thread_data.obj
 0002:0009ae9c       $unwind$??$?RV<lambda_f2e299630e499de9f9a165e60fcd3db5>@@AEAV<lambda_2ae9d31cdba2644fcbeaf08da7c24588>@@V<lambda_40d01ff24d0e7b3814fdbdcee8eab3c7>@@@?$__crt_seh_guarded_call@X@@QEAAX$$QEAV<lambda_f2e299630e499de9f9a165e60fcd3db5>@@AEAV<lambda_2ae9d31cdba2644fcbeaf08da7c24588>@@$$QEAV<lambda_40d01ff24d0e7b3814fdbdcee8eab3c7>@@@Z 00000001800d8e9c     libucrt:per_thread_data.obj
 0002:0009aec0       $unwind$??$?RV<lambda_2d41944a1d46af3157314b8a01080d33>@@AEAV<lambda_8f455de75cd7d7f24b4096f044d8b9e6>@@V<lambda_aa500f224e6afead328df44964fe2772>@@@?$__crt_seh_guarded_call@X@@QEAAX$$QEAV<lambda_2d41944a1d46af3157314b8a01080d33>@@AEAV<lambda_8f455de75cd7d7f24b4096f044d8b9e6>@@$$QEAV<lambda_aa500f224e6afead328df44964fe2772>@@@Z 00000001800d8ec0     libucrt:per_thread_data.obj
 0002:0009aee4       $unwind$__acrt_initialize_winapi_thunks 00000001800d8ee4     libucrt:winapi_thunks.obj
 0002:0009aeec       $unwind$?fp_format_e@@YAHQEBNQEAD_K12H_NIQEAU__crt_locale_pointers@@@Z 00000001800d8eec     libucrt:cvt.obj
 0002:0009aeec       $unwind$_mbtowc_l          00000001800d8eec     libucrt:mbtowc.obj
 0002:0009aeec       $unwind$__acrt_LCMapStringEx 00000001800d8eec     libucrt:winapi_thunks.obj
 0002:0009af00       $unwind$__acrt_is_interactive 00000001800d8f00     libucrt:winapi_thunks.obj
 0002:0009af14       $unwind$_fcloseall         00000001800d8f14     libucrt:closeall.obj
 0002:0009af38       $unwind$__acrt_initialize_lowio 00000001800d8f38     libucrt:ioinit.obj
 0002:0009af58       $unwind$?initialize_inherited_file_handles_nolock@@YAXXZ 00000001800d8f58     libucrt:ioinit.obj
 0002:0009af74       $unwind$_wctomb_s_l        00000001800d8f74     libucrt:wctomb.obj
 0002:0009af84       $unwind$__acrt_fp_format   00000001800d8f84     libucrt:cvt.obj
 0002:0009af98       $unwind$?fp_format_e_internal@@YAHQEAD_KH_NIQEAU_strflt@@2QEAU__crt_locale_pointers@@@Z 00000001800d8f98     libucrt:cvt.obj
 0002:0009afb0       $unwind$?fp_format_a@@YAHQEBNPEAD_KQEAD2H_NIQEAU__crt_locale_pointers@@@Z 00000001800d8fb0     libucrt:cvt.obj
 0002:0009afcc       $unwind$__dcrt_get_narrow_environment_from_os 00000001800d8fcc     libucrt:get_environment_from_os.obj
 0002:0009afcc       $unwind$?fp_format_f_internal@@YAHQEAD_KHQEAU_strflt@@_NQEAU__crt_locale_pointers@@@Z 00000001800d8fcc     libucrt:cvt.obj
 0002:0009afcc       $unwind$??$__acrt_wcs_to_mbs_cp@U__crt_win32_buffer_internal_dynamic_resizing@@@@YAHQEB_WAEAV?$__crt_win32_buffer@DU__crt_win32_buffer_internal_dynamic_resizing@@@@I@Z 00000001800d8fcc     libucrt:argv_wildcards.obj
 0002:0009afe4       $unwind$?fp_format_g@@YAHQEBNQEAD_K12H_NIQEAU__crt_locale_pointers@@@Z 00000001800d8fe4     libucrt:cvt.obj
 0002:0009aff8       $unwind$_fputwc_nolock     00000001800d8ff8     libucrt:fputwc.obj
 0002:0009b014       $unwind$__acrt_stdio_end_temporary_buffering_nolock 00000001800d9014     libucrt:_sftbuf.obj
 0002:0009b01c       $unwind$??$?RV<lambda_410d79af7f07d98d83a3f525b3859a53>@@AEAV<lambda_3e16ef9562a7dcce91392c22ab16ea36>@@V<lambda_38119f0e861e05405d8a144b9b982f0a>@@@?$__crt_seh_guarded_call@X@@QEAAX$$QEAV<lambda_410d79af7f07d98d83a3f525b3859a53>@@AEAV<lambda_3e16ef9562a7dcce91392c22ab16ea36>@@$$QEAV<lambda_38119f0e861e05405d8a144b9b982f0a>@@@Z 00000001800d901c     libucrt:wsetlocale.obj
 0002:0009b044       $unwind$_call_matherr      00000001800d9044     libucrt:libm_error.obj
 0002:0009b04c       $unwind$_handle_error      00000001800d904c     libucrt:libm_error.obj
 0002:0009b06c       $unwind$_write             00000001800d906c     libucrt:write.obj
 0002:0009b09c       $unwind$_write_nolock      00000001800d909c     libucrt:write.obj
 0002:0009b0b4       $unwind$?write_double_translated_ansi_nolock@@YA?AUwrite_result@?A0x17268360@@HQEBDI@Z 00000001800d90b4     libucrt:write.obj
 0002:0009b0d8       $unwind$?write_text_ansi_nolock@@YA?AUwrite_result@?A0x17268360@@HQEBDI@Z 00000001800d90d8     libucrt:write.obj
 0002:0009b0d8       $unwind$?write_text_utf16le_nolock@@YA?AUwrite_result@?A0x17268360@@HQEBDI@Z 00000001800d90d8     libucrt:write.obj
 0002:0009b0f8       $unwind$?write_text_utf8_nolock@@YA?AUwrite_result@?A0x17268360@@HQEBDI@Z 00000001800d90f8     libucrt:write.obj
 0002:0009b11c       $unwind$??$write_buffer_nolock@D@@YA_NDV__crt_stdio_stream@@@Z 00000001800d911c     libucrt:_flsbuf.obj
 0002:0009b12c       $unwind$??$write_buffer_nolock@_W@@YA_N_WV__crt_stdio_stream@@@Z 00000001800d912c     libucrt:_flsbuf.obj
 0002:0009b13c       $unwind$??$__acrt_mbs_to_wcs_cp@U__crt_win32_buffer_internal_dynamic_resizing@@@@YAHQEBDAEAV?$__crt_win32_buffer@_WU__crt_win32_buffer_internal_dynamic_resizing@@@@I@Z 00000001800d913c     libucrt:argv_wildcards.obj
 0002:0009b154       $unwind$??$common_expand_argv_wildcards@D@@YAHQEAPEADQEAPEAPEAD@Z 00000001800d9154     libucrt:argv_wildcards.obj
 0002:0009b16c       $unwind$??$copy_and_add_argument_to_buffer@D@@YAHQEBD0_KAEAV?$argument_list@D@?A0x5f5c8891@@@Z 00000001800d916c     libucrt:argv_wildcards.obj
 0002:0009b188       $unwind$??$expand_argument_wildcards@D@@YAHQEAD0AEAV?$argument_list@D@?A0x5f5c8891@@@Z 00000001800d9188     libucrt:argv_wildcards.obj
 0002:0009b1ac       $unwind$_setmbcp_nolock    00000001800d91ac     libucrt:mbctype.obj
 0002:0009b1cc       $unwind$__dcrt_lowio_ensure_console_output_initialized 00000001800d91cc     libucrt:initcon.obj
 0002:0009b1cc       $unwind$_isleadbyte_l      00000001800d91cc     libucrt:_wctype.obj
 0002:0009b1cc       $unwind$?getSystemCP@@YAHH@Z 00000001800d91cc     libucrt:mbctype.obj
 0002:0009b1d4       $unwind$?update_thread_multibyte_data_internal@@YAPEAU__crt_multibyte_data@@QEAU__acrt_ptd@@QEAPEAU1@@Z 00000001800d91d4     libucrt:mbctype.obj
 0002:0009b1fc       $unwind$?setmbcp_internal@@YAHH_NQEAU__acrt_ptd@@QEAPEAU__crt_multibyte_data@@@Z 00000001800d91fc     libucrt:mbctype.obj
 0002:0009b20c       $unwind$?setSBUpLow@@YAXPEAU__crt_multibyte_data@@@Z 00000001800d920c     libucrt:mbctype.obj
 0002:0009b228       $unwind$??$?RV<lambda_efdfa57d1f175319df784efa44bb7b81>@@AEAV<lambda_5f0a4c1567f8adc6734073e5d1e1b35c>@@V<lambda_2e8a7d3640ea6ccb4c2413664c2db6fd>@@@?$__crt_seh_guarded_call@X@@QEAAX$$QEAV<lambda_efdfa57d1f175319df784efa44bb7b81>@@AEAV<lambda_5f0a4c1567f8adc6734073e5d1e1b35c>@@$$QEAV<lambda_2e8a7d3640ea6ccb4c2413664c2db6fd>@@@Z 00000001800d9228     libucrt:mbctype.obj
 0002:0009b24c       $unwind$__GSHandlerCheckCommon 00000001800d924c     LIBCMT:gshandler.obj
 0002:0009b24c       $unwind$__acrt_WideCharToMultiByte 00000001800d924c     libucrt:widechartomultibyte.obj
 0002:0009b254       $unwind$iswctype           00000001800d9254     libucrt:iswctype.obj
 0002:0009b260       $unwind$_isctype_l         00000001800d9260     libucrt:isctype.obj
 0002:0009b27c       $unwind$_close             00000001800d927c     libucrt:close.obj
 0002:0009b27c       $unwind$_commit            00000001800d927c     libucrt:commit.obj
 0002:0009b284       $unwind$??$?RV<lambda_a37b2b86f63e897a80ea819b0eb08c01>@@AEAV<lambda_38ce7e780aa69e748d6df282ebc68efe>@@V<lambda_99fb1378e971ab6e7edea83e3a7a83a2>@@@?$__crt_seh_guarded_call@H@@QEAAH$$QEAV<lambda_a37b2b86f63e897a80ea819b0eb08c01>@@AEAV<lambda_38ce7e780aa69e748d6df282ebc68efe>@@$$QEAV<lambda_99fb1378e971ab6e7edea83e3a7a83a2>@@@Z 00000001800d9284     libucrt:commit.obj
 0002:0009b2a8       $unwind$__acrt_update_thread_locale_data 00000001800d92a8     libucrt:locale_refcounting.obj
 0002:0009b2cc       $unwind$fclose             00000001800d92cc     libucrt:fclose.obj
 0002:0009b2f0       $unwind$__acrt_lowio_destroy_handle_array 00000001800d92f0     libucrt:osfinfo.obj
 0002:0009b300       $unwind$__acrt_lowio_ensure_fh_exists 00000001800d9300     libucrt:osfinfo.obj
 0002:0009b32c       $unwind$?__mbsrtowcs_utf8@__crt_mbstring@@YA_KPEA_WPEAPEBD_KPEAU_Mbstatet@@@Z 00000001800d932c     libucrt:mbrtowc.obj
 0002:0009b344       $unwind$__acrt_fltout      00000001800d9344     libucrt:cfout.obj
 0002:0009b364       $unwind$?divide@__crt_strtox@@YA_KAEAUbig_integer@1@AEBU21@@Z 00000001800d9364     libucrt:cfout.obj
 0002:0009b37c       $chain$0$?divide@__crt_strtox@@YA_KAEAUbig_integer@1@AEBU21@@Z 00000001800d937c     libucrt:cfout.obj
 0002:0009b390       $chain$1$?divide@__crt_strtox@@YA_KAEAUbig_integer@1@AEBU21@@Z 00000001800d9390     libucrt:cfout.obj
 0002:0009b3a0       $unwind$__acrt_locale_free_monetary 00000001800d93a0     libucrt:initmon.obj
 0002:0009b3a8       $unwind$__acrt_locale_free_time 00000001800d93a8     libucrt:inittime.obj
 0002:0009b3b8       $unwind$__acrt_GetStringTypeA 00000001800d93b8     libucrt:getstringtypea.obj
 0002:0009b3e0       $unwind$_raise_exc_ex      00000001800d93e0     libucrt:fpexcept.obj
 0002:0009b3f4       $unwind$_ctrlfp            00000001800d93f4     libucrt:fpctrl.obj
 0002:0009b41c       $unwind$??$common_lseek@_J@@YA_JH_JH@Z 00000001800d941c     libucrt:lseek.obj
 0002:0009b44c       $unwind$_putwch_nolock     00000001800d944c     libucrt:putwch.obj
 0002:0009b454       $unwind$qsort              00000001800d9454     libucrt:qsort.obj
 0002:0009b46c       $chain$4$qsort             00000001800d946c     libucrt:qsort.obj
 0002:0009b490       $chain$5$qsort             00000001800d9490     libucrt:qsort.obj
 0002:0009b4a0       $unwind$fallbackMethod     00000001800d94a0     libucrt:strpbrk.obj
 0002:0009b4b0       $unwind$__acrt_LCMapStringA 00000001800d94b0     libucrt:lcmapstringa.obj
 0002:0009b4c0       $unwind$?__acrt_LCMapStringA_stat@@YAHPEAU__crt_locale_pointers@@PEB_WKPEBDHPEADHHH@Z 00000001800d94c0     libucrt:lcmapstringa.obj
 0002:0009b4e8       $unwind$??$?RV<lambda_751a882b2c74d4b022dec766aa51a29a>@@AEAV<lambda_628dfdc04ba53c8bfc02c9951375f3f5>@@V<lambda_f6c7be5f7998530c34de24c7437d6b54>@@@?$__crt_seh_guarded_call@H@@QEAAH$$QEAV<lambda_751a882b2c74d4b022dec766aa51a29a>@@AEAV<lambda_628dfdc04ba53c8bfc02c9951375f3f5>@@$$QEAV<lambda_f6c7be5f7998530c34de24c7437d6b54>@@@Z 00000001800d94e8     libucrt:close.obj
 0002:0009b50c       $unwind$?__mbrtoc32_utf8@__crt_mbstring@@YA_KPEA_UPEBD_KPEAU_Mbstatet@@@Z 00000001800d950c     libucrt:mbrtoc32.obj
 0002:0009b528       $xdatasym                  00000001800d9528     libucrt:log10.obj
 0002:0009b538       $xdatasym                  00000001800d9538     libucrt:fpsr.obj
 0002:0009b540       $unwind$__acrt_fenv_set_control 00000001800d9540     libucrt:_fenvutils.obj
 0002:0009b550       $unwind$__acrt_initialize_fma3 00000001800d9550     libucrt:fma3_available.obj
 0002:0009b558       $unwind$_log_special_common 00000001800d9558     libucrt:log_special.obj
 0002:0009b564       $unwind$?DloadObtainSection@@YAPEAXPEAK0@Z 00000001800d9564     DelayImp:delayhlp.obj
 0002:0009b574       $unwind$?DloadMakePermanentImageCommit@@YAXPEAX_K@Z 00000001800d9574     DelayImp:delayhlp.obj
 0002:0009b580       $unwind$?DloadProtectSection@@YAXKPEAK@Z 00000001800d9580     DelayImp:delayhlp.obj
 0002:0009b590       $unwind$__delayLoadHelper2 00000001800d9590     DelayImp:delayhlp.obj
 0002:0009b5ac       $unwind$_IsNonwritableInCurrentImage 00000001800d95ac     LIBCMT:pesect.obj
 0002:0009b5d0       $xdatasym                  00000001800d95d0     LIBCMT:chkstk.obj
 0002:0009b5d8       $xdatasym                  00000001800d95d8     libvcruntime:memcmp.obj
 0002:0009c230       .edata                     00000001800da230     addon.exp
 0002:0009c258       rgpv                       00000001800da258     addon.exp
 0002:0009c25c       rgszName                   00000001800da25c     addon.exp
 0002:0009c260       rgwOrd                     00000001800da260     addon.exp
 0002:0009c262       szName                     00000001800da262     addon.exp
 0002:0009c26d       $N00001                    00000001800da26d     addon.exp
 0002:0009c53c       .idata$6                   00000001800da53c     kernel32:KERNEL32.dll
 0003:00000040       ?__vcrt_flsindex@@3KA      00000001800db040     libvcruntime:per_thread_data.obj
 0003:00000160       ?errno_no_memory@@3HA      00000001800db160     libucrt:errno.obj
 0003:00000164       ?doserrno_no_memory@@3KA   00000001800db164     libucrt:errno.obj
 0003:00000168       ?__acrt_flsindex@@3KA      00000001800db168     libucrt:per_thread_data.obj
 0003:00000660       _mbctypes                  00000001800db660     libucrt:mbctype.obj
 0003:00000770       _mbcasemaps                00000001800db770     libucrt:mbctype.obj
 0003:00000870       ?__rgctypeflag@@3PADA      00000001800db870     libucrt:mbctype.obj
 0003:00000880       ?__rgcode_page_info@@3PAUcode_page_info@@A 00000001800db880     libucrt:mbctype.obj
 0003:00000a20       ?dazSupported@?1??_ctrlfp@@9@9 00000001800dba20     libucrt:fpctrl.obj
 0003:00000a30       ?__dcrt_lowio_console_output_handle@@3PEAXEA 00000001800dba30     libucrt:initcon.obj
 0003:00000a50       _module                    00000001800dba50     addon.obj
 0003:00000cd0       GS_ExceptionRecord         00000001800dbcd0     LIBCMT:gs_report.obj
 0003:00000d70       GS_ContextRecord           00000001800dbd70     LIBCMT:gs_report.obj
 0003:00001240       ?g_tss_cv@@3U_RTL_CONDITION_VARIABLE@@A 00000001800dc240     LIBCMT:thread_safe_statics.obj
 0003:00001248       ?g_tss_event@@3PEAXEA      00000001800dc248     LIBCMT:thread_safe_statics.obj
 0003:00001250       ?g_tss_mutex@@3U_RTL_CRITICAL_SECTION@@A 00000001800dc250     LIBCMT:thread_safe_statics.obj
 0003:00001278       ?g_sleep_condition_variable_cs@@3P6AHPEAU_RTL_CONDITION_VARIABLE@@PEAU_RTL_CRITICAL_SECTION@@K@ZEA 00000001800dc278     LIBCMT:thread_safe_statics.obj
 0003:00001280       ?g_wake_all_condition_variable@@3P6AXPEAU_RTL_CONDITION_VARIABLE@@@ZEA 00000001800dc280     LIBCMT:thread_safe_statics.obj
 0003:00001288       ?__proc_attached@@3HA      00000001800dc288     LIBCMT:dll_dllmain.obj
 0003:000012a0       ?is_initialized_as_dll@@3_NA 00000001800dc2a0     LIBCMT:utility.obj
 0003:000012a1       ?module_local_atexit_table_initialized@@3_NA 00000001800dc2a1     LIBCMT:utility.obj
 0003:000012a8       ?module_local_atexit_table@@3U_onexit_table_t@@A 00000001800dc2a8     LIBCMT:utility.obj
 0003:000012c0       ?module_local_at_quick_exit_table@@3U_onexit_table_t@@A 00000001800dc2c0     LIBCMT:utility.obj
 0003:00001320       ?__vcrt_startup_thread_ptd@@3U__vcrt_ptd@@A 00000001800dc320     libvcruntime:per_thread_data.obj
 0003:000013a0       __vcrt_lock_table          00000001800dc3a0     libvcruntime:locks.obj
 0003:000013c8       __vcrt_locks_initialized   00000001800dc3c8     libvcruntime:locks.obj
 0003:00001410       ?heap@@3V_HeapManager@@A   00000001800dc410     libvcruntime:undname.obj
 0003:00001438       ?module_handles@@3PAPEAUHINSTANCE__@@A 00000001800dc438     libvcruntime:winapi_downlevel.obj
 0003:00001450       ?function_pointers@@3PAPEAXA 00000001800dc450     libvcruntime:winapi_downlevel.obj
 0003:00001478       ?__acrt_invalid_parameter_handler@@3V?$dual_state_global@P6AXPEB_W00I_K@Z@__crt_state_management@@A 00000001800dc478     libucrt:invalid_parameter.obj
 0003:00001498       ?__acrt_new_handler@@3V?$dual_state_global@P6AH_K@Z@__crt_state_management@@A 00000001800dc498     libucrt:new_handler.obj
 0003:000014a0       ?c_termination_complete@@3JA 00000001800dc4a0     libucrt:exit.obj
 0003:000014a8       ?thread_local_exit_callback_func@@3P6AXPEAXK0@ZEA 00000001800dc4a8     libucrt:exit.obj
 0003:000014c0       ?program_name@?1???$common_configure_argv@D@@YAHW4_crt_argv_mode@@@Z@4PADA 00000001800dc4c0     libucrt:argv_parsing.obj
 0003:00001618       ?__acrt_app_type@@3W4_crt_app_type@@A 00000001800dc618     libucrt:report_runtime_error.obj
 0003:0000161c       __acrt_error_mode          00000001800dc61c     libucrt:set_error_mode.obj
 0003:00001620       ?ctrlc_action@@3V?$dual_state_global@P6AXH@Z@__crt_state_management@@A 00000001800dc620     libucrt:signal.obj
 0003:00001628       ?ctrlbreak_action@@3V?$dual_state_global@P6AXH@Z@__crt_state_management@@A 00000001800dc628     libucrt:signal.obj
 0003:00001630       ?abort_action@@3V?$dual_state_global@P6AXH@Z@__crt_state_management@@A 00000001800dc630     libucrt:signal.obj
 0003:00001638       ?term_action@@3V?$dual_state_global@P6AXH@Z@__crt_state_management@@A 00000001800dc638     libucrt:signal.obj
 0003:00001640       ?module_handles@@3PAPEAUHINSTANCE__@@A 00000001800dc640     libucrt:winapi_thunks.obj
 0003:000016e0       ?encoded_function_pointers@@3PAPEAXA 00000001800dc6e0     libucrt:winapi_thunks.obj
 0003:00001bf8       ?internal_state@?1??_mbtowc_l@@9@4U_Mbstatet@@A 00000001800dcbf8     libucrt:mbtowc.obj
 0003:00001c00       ?enable_percent_n@@3_KA    00000001800dcc00     libucrt:printf_count_output.obj
 0003:00001c30       ?__acrt_lock_table@@3PAU_RTL_CRITICAL_SECTION@@A 00000001800dcc30     libucrt:locks.obj
 0003:00001e60       ?__acrt_locks_initialized@@3IA 00000001800dce60     libucrt:locks.obj
 0003:00001e64       ?state_cache@?1???$get_cached_win_policy@Udeveloper_information_policy_properties@?1??__acrt_get_developer_information_policy@@YA?AW4developer_information_policy@@XZ@@@YA?AW4developer_information_policy@@W4AppPolicyShowDeveloperDiagnostic@@@Z@4JA 00000001800dce64     libucrt:win_policies.obj
 0003:00001e68       ?state_cache@?1???$get_cached_win_policy@Uwindowing_model_policy_properties@?1??__acrt_get_windowing_model_policy@@YA?AW4windowing_model_policy@@XZ@@@YA?AW4windowing_model_policy@@W4AppPolicyWindowingModel@@@Z@4JA 00000001800dce68     libucrt:win_policies.obj
 0003:00001e88       ?fSystemSet@@3HA           00000001800dce88     libucrt:mbctype.obj
 0003:00001e8c       ?initialized@?1??__acrt_initialize_multibyte@@9@4_NA 00000001800dce8c     libucrt:mbctype.obj
 0003:00001ec8       ?user_matherr@@3V?$dual_state_global@P6AHPEAU_exception@@@Z@__crt_state_management@@A 00000001800dcec8     libucrt:matherr.obj
 0003:00001ed0       ?__acrt_global_new_mode@@3V?$dual_state_global@J@__crt_state_management@@A 00000001800dced0     libucrt:new_mode.obj
 0003:00001ee0       ?internal_pst@?1??__mbrtoc32_utf8@__crt_mbstring@@YA_KPEA_UPEBD_KPEAU_Mbstatet@@@Z@4U3@A 00000001800dcee0     libucrt:mbrtoc32.obj
 0003:00001f30       ?$TSS0@?9??WriteMetaBlockInternal@BrotliCompressor@brotli@@AEAA_N_N0PEA_KPEAPEAE@Z@4HA 00000001800dcf30     encode.obj
 0003:00001f38       ?kBitCostThreshold@?9??WriteMetaBlockInternal@BrotliCompressor@brotli@@AEAA_N_N0PEA_KPEAPEAE@Z@4NB 00000001800dcf38     encode.obj
 0005:00000000       MsetTab                    00000001800e1000     libvcruntime:memset.obj
 0005:00000050       MoveSmall                  00000001800e1050     libvcruntime:memcpy.obj
 0006:00000060       $R000000                   00000001800e2060     * linker generated manifest res *

 Exports

  ordinal    name

        1    _register_addon_
